
johnson.elf:     file format elf32-littlearm

Sections:
Idx Name          Size      VMA       LMA       File off  Algn
  0 .text         00007eb4  00080000  00080000  00008000  2**3
                  CONTENTS, ALLOC, LOAD, READONLY, CODE
  1 .ARM.exidx    00000008  00087eb4  00087eb4  0000feb4  2**2
                  CONTENTS, ALLOC, LOAD, READONLY, DATA
  2 .relocate     00000a0c  20070000  00087ebc  00010000  2**3
                  CONTENTS, ALLOC, LOAD, CODE
  3 .bss          0000a368  20070a10  000888d0  00010a10  2**3
                  ALLOC
  4 .stack        00002000  2007ad78  00092c38  00010a10  2**0
                  ALLOC
  5 .ARM.attributes 00000029  00000000  00000000  00010a0c  2**0
                  CONTENTS, READONLY
  6 .comment      0000005b  00000000  00000000  00010a35  2**0
                  CONTENTS, READONLY
  7 .debug_info   0001d443  00000000  00000000  00010a90  2**0
                  CONTENTS, READONLY, DEBUGGING
  8 .debug_abbrev 00004e5b  00000000  00000000  0002ded3  2**0
                  CONTENTS, READONLY, DEBUGGING
  9 .debug_loc    0000a4af  00000000  00000000  00032d2e  2**0
                  CONTENTS, READONLY, DEBUGGING
 10 .debug_aranges 000011d0  00000000  00000000  0003d1dd  2**0
                  CONTENTS, READONLY, DEBUGGING
 11 .debug_ranges 000010d0  00000000  00000000  0003e3ad  2**0
                  CONTENTS, READONLY, DEBUGGING
 12 .debug_macro  0001f7dc  00000000  00000000  0003f47d  2**0
                  CONTENTS, READONLY, DEBUGGING
 13 .debug_line   0001e2c9  00000000  00000000  0005ec59  2**0
                  CONTENTS, READONLY, DEBUGGING
 14 .debug_str    0006b2cc  00000000  00000000  0007cf22  2**0
                  CONTENTS, READONLY, DEBUGGING
 15 .debug_frame  00003648  00000000  00000000  000e81f0  2**2
                  CONTENTS, READONLY, DEBUGGING

Disassembly of section .text:

00080000 <_sfixed>:
   80000:	2007cd78 	.word	0x2007cd78
   80004:	000835f5 	.word	0x000835f5
   80008:	000835f1 	.word	0x000835f1
   8000c:	000835f1 	.word	0x000835f1
   80010:	000835f1 	.word	0x000835f1
   80014:	000835f1 	.word	0x000835f1
   80018:	000835f1 	.word	0x000835f1
	...
   8002c:	00080919 	.word	0x00080919
   80030:	000835f1 	.word	0x000835f1
   80034:	00000000 	.word	0x00000000
   80038:	00080995 	.word	0x00080995
   8003c:	000809d1 	.word	0x000809d1
   80040:	000835f1 	.word	0x000835f1
   80044:	000835f1 	.word	0x000835f1
   80048:	000835f1 	.word	0x000835f1
   8004c:	000835f1 	.word	0x000835f1
   80050:	000835f1 	.word	0x000835f1
   80054:	000835f1 	.word	0x000835f1
   80058:	000835f1 	.word	0x000835f1
   8005c:	000835f1 	.word	0x000835f1
   80060:	000835f1 	.word	0x000835f1
   80064:	000835f1 	.word	0x000835f1
   80068:	00000000 	.word	0x00000000
   8006c:	00083461 	.word	0x00083461
   80070:	00083475 	.word	0x00083475
   80074:	00083489 	.word	0x00083489
   80078:	0008349d 	.word	0x0008349d
	...
   80084:	00082cbd 	.word	0x00082cbd
   80088:	000835f1 	.word	0x000835f1
   8008c:	000835f1 	.word	0x000835f1
   80090:	000835f1 	.word	0x000835f1
   80094:	000835f1 	.word	0x000835f1
   80098:	000835f1 	.word	0x000835f1
   8009c:	000835f1 	.word	0x000835f1
   800a0:	000835f1 	.word	0x000835f1
   800a4:	00000000 	.word	0x00000000
   800a8:	000835f1 	.word	0x000835f1
   800ac:	000801f9 	.word	0x000801f9
   800b0:	000835f1 	.word	0x000835f1
   800b4:	000835f1 	.word	0x000835f1
   800b8:	000835f1 	.word	0x000835f1
   800bc:	000835f1 	.word	0x000835f1
   800c0:	000835f1 	.word	0x000835f1
   800c4:	000835f1 	.word	0x000835f1
   800c8:	000835f1 	.word	0x000835f1
   800cc:	000835f1 	.word	0x000835f1
   800d0:	000835f1 	.word	0x000835f1
   800d4:	000835f1 	.word	0x000835f1
   800d8:	000835f1 	.word	0x000835f1
   800dc:	000835f1 	.word	0x000835f1
   800e0:	000835f1 	.word	0x000835f1
   800e4:	000835f1 	.word	0x000835f1
   800e8:	000835f1 	.word	0x000835f1
   800ec:	000835f1 	.word	0x000835f1
   800f0:	000835f1 	.word	0x000835f1

000800f4 <__do_global_dtors_aux>:
   800f4:	b510      	push	{r4, lr}
   800f6:	4c05      	ldr	r4, [pc, #20]	; (8010c <__do_global_dtors_aux+0x18>)
   800f8:	7823      	ldrb	r3, [r4, #0]
   800fa:	b933      	cbnz	r3, 8010a <__do_global_dtors_aux+0x16>
   800fc:	4b04      	ldr	r3, [pc, #16]	; (80110 <__do_global_dtors_aux+0x1c>)
   800fe:	b113      	cbz	r3, 80106 <__do_global_dtors_aux+0x12>
   80100:	4804      	ldr	r0, [pc, #16]	; (80114 <__do_global_dtors_aux+0x20>)
   80102:	f3af 8000 	nop.w
   80106:	2301      	movs	r3, #1
   80108:	7023      	strb	r3, [r4, #0]
   8010a:	bd10      	pop	{r4, pc}
   8010c:	20070a10 	.word	0x20070a10
   80110:	00000000 	.word	0x00000000
   80114:	00087ebc 	.word	0x00087ebc

00080118 <frame_dummy>:
   80118:	4b08      	ldr	r3, [pc, #32]	; (8013c <frame_dummy+0x24>)
   8011a:	b510      	push	{r4, lr}
   8011c:	b11b      	cbz	r3, 80126 <frame_dummy+0xe>
   8011e:	4808      	ldr	r0, [pc, #32]	; (80140 <frame_dummy+0x28>)
   80120:	4908      	ldr	r1, [pc, #32]	; (80144 <frame_dummy+0x2c>)
   80122:	f3af 8000 	nop.w
   80126:	4808      	ldr	r0, [pc, #32]	; (80148 <frame_dummy+0x30>)
   80128:	6803      	ldr	r3, [r0, #0]
   8012a:	b903      	cbnz	r3, 8012e <frame_dummy+0x16>
   8012c:	bd10      	pop	{r4, pc}
   8012e:	4b07      	ldr	r3, [pc, #28]	; (8014c <frame_dummy+0x34>)
   80130:	2b00      	cmp	r3, #0
   80132:	d0fb      	beq.n	8012c <frame_dummy+0x14>
   80134:	e8bd 4010 	ldmia.w	sp!, {r4, lr}
   80138:	4718      	bx	r3
   8013a:	bf00      	nop
   8013c:	00000000 	.word	0x00000000
   80140:	00087ebc 	.word	0x00087ebc
   80144:	20070a14 	.word	0x20070a14
   80148:	00087ebc 	.word	0x00087ebc
   8014c:	00000000 	.word	0x00000000

00080150 <delay_driver_init>:
   80150:	b510      	push	{r4, lr}
   80152:	201c      	movs	r0, #28
   80154:	4b08      	ldr	r3, [pc, #32]	; (80178 <delay_driver_init+0x28>)
   80156:	4798      	blx	r3
   80158:	4c08      	ldr	r4, [pc, #32]	; (8017c <delay_driver_init+0x2c>)
   8015a:	4620      	mov	r0, r4
   8015c:	2101      	movs	r1, #1
   8015e:	2200      	movs	r2, #0
   80160:	4b07      	ldr	r3, [pc, #28]	; (80180 <delay_driver_init+0x30>)
   80162:	4798      	blx	r3
   80164:	4620      	mov	r0, r4
   80166:	2101      	movs	r1, #1
   80168:	4b06      	ldr	r3, [pc, #24]	; (80184 <delay_driver_init+0x34>)
   8016a:	4798      	blx	r3
   8016c:	4620      	mov	r0, r4
   8016e:	2101      	movs	r1, #1
   80170:	4b05      	ldr	r3, [pc, #20]	; (80188 <delay_driver_init+0x38>)
   80172:	4798      	blx	r3
   80174:	2000      	movs	r0, #0
   80176:	bd10      	pop	{r4, pc}
   80178:	0008359d 	.word	0x0008359d
   8017c:	40080000 	.word	0x40080000
   80180:	000807f5 	.word	0x000807f5
   80184:	00080811 	.word	0x00080811
   80188:	00080821 	.word	0x00080821

0008018c <edge_detection>:
	
	ioport_set_pin_level(pin_mapper(13), 0);
	new_sample = 1;
}

void edge_detection(void) {
   8018c:	b510      	push	{r4, lr}
	uint32_t pulse_width_us;

	/* Was it rising edge? start the timer */
	if (pio_get(PIOD, PIO_TYPE_PIO_INPUT, PIO_PD8)) {
   8018e:	4811      	ldr	r0, [pc, #68]	; (801d4 <edge_detection+0x48>)
   80190:	f04f 5120 	mov.w	r1, #671088640	; 0x28000000
   80194:	f44f 7280 	mov.w	r2, #256	; 0x100
   80198:	4b0f      	ldr	r3, [pc, #60]	; (801d8 <edge_detection+0x4c>)
   8019a:	4798      	blx	r3
   8019c:	b120      	cbz	r0, 801a8 <edge_detection+0x1c>
		/* Start TC to measure pulse width */
		tc_start(TC0,2);
   8019e:	480f      	ldr	r0, [pc, #60]	; (801dc <edge_detection+0x50>)
   801a0:	2102      	movs	r1, #2
   801a2:	4b0f      	ldr	r3, [pc, #60]	; (801e0 <edge_detection+0x54>)
   801a4:	4798      	blx	r3
   801a6:	bd10      	pop	{r4, pc}
	}
	/* Falling edge, stop timer */
	else {
		pulse_width_us = tc_read_cv(TC0, 2) / 42;
   801a8:	4c0c      	ldr	r4, [pc, #48]	; (801dc <edge_detection+0x50>)
   801aa:	4620      	mov	r0, r4
   801ac:	2102      	movs	r1, #2
   801ae:	4b0d      	ldr	r3, [pc, #52]	; (801e4 <edge_detection+0x58>)
   801b0:	4798      	blx	r3
   801b2:	0840      	lsrs	r0, r0, #1
   801b4:	4b0c      	ldr	r3, [pc, #48]	; (801e8 <edge_detection+0x5c>)
   801b6:	fba3 2300 	umull	r2, r3, r3, r0
   801ba:	0898      	lsrs	r0, r3, #2
		/* Pulse width proportionate against pulse width / 58, see HC-SR04 datasheet */
		last_sample = pulse_width_us / 58;
   801bc:	4b0b      	ldr	r3, [pc, #44]	; (801ec <edge_detection+0x60>)
   801be:	fba3 2300 	umull	r2, r3, r3, r0
   801c2:	095b      	lsrs	r3, r3, #5
   801c4:	4a0a      	ldr	r2, [pc, #40]	; (801f0 <edge_detection+0x64>)
   801c6:	6013      	str	r3, [r2, #0]
		tc_stop(TC0, 2);
   801c8:	4620      	mov	r0, r4
   801ca:	2102      	movs	r1, #2
   801cc:	4b09      	ldr	r3, [pc, #36]	; (801f4 <edge_detection+0x68>)
   801ce:	4798      	blx	r3
   801d0:	bd10      	pop	{r4, pc}
   801d2:	bf00      	nop
   801d4:	400e1400 	.word	0x400e1400
   801d8:	00083141 	.word	0x00083141
   801dc:	40080000 	.word	0x40080000
   801e0:	00080819 	.word	0x00080819
   801e4:	00080829 	.word	0x00080829
   801e8:	30c30c31 	.word	0x30c30c31
   801ec:	8d3dcb09 	.word	0x8d3dcb09
   801f0:	20070a34 	.word	0x20070a34
   801f4:	00080821 	.word	0x00080821

000801f8 <TC0_Handler>:
	new_sample = 0;
	return last_sample;
}

void TC0_Handler(void)
{
   801f8:	b530      	push	{r4, r5, lr}
   801fa:	b083      	sub	sp, #12
	ioport_set_pin_level(pin_mapper(13), 1);
   801fc:	200d      	movs	r0, #13
   801fe:	4d21      	ldr	r5, [pc, #132]	; (80284 <TC0_Handler+0x8c>)
   80200:	47a8      	blx	r5
typedef uint32_t ioport_port_t;
typedef uint32_t ioport_port_mask_t;

__always_inline static ioport_port_t arch_ioport_pin_to_port_id(ioport_pin_t pin)
{
	return pin >> 5;
   80202:	0943      	lsrs	r3, r0, #5
	} else {
		return (Pio *)((uintptr_t)IOPORT_BASE_ADDRESS +
		       (IOPORT_PIO_OFFSET * port));
	}
#else
	return (Pio *)((uintptr_t)IOPORT_BASE_ADDRESS +
   80204:	f503 1300 	add.w	r3, r3, #2097152	; 0x200000
   80208:	f203 7307 	addw	r3, r3, #1799	; 0x707
   8020c:	025b      	lsls	r3, r3, #9
	return arch_ioport_port_to_base(arch_ioport_pin_to_port_id(pin));
}

__always_inline static ioport_port_mask_t arch_ioport_pin_to_mask(ioport_pin_t pin)
{
	return 1U << (pin & 0x1F);
   8020e:	f000 001f 	and.w	r0, r0, #31
   80212:	2401      	movs	r4, #1
   80214:	fa04 f200 	lsl.w	r2, r4, r0
		bool level)
{
	Pio *base = arch_ioport_pin_to_base(pin);

	if (level) {
		base->PIO_SODR = arch_ioport_pin_to_mask(pin);
   80218:	631a      	str	r2, [r3, #48]	; 0x30
	volatile uint32_t ul_dummy;

	/* Clear status bit to acknowledge interrupt */
	ul_dummy = tc_get_status(TC0, 0);		//The compare bit is cleared by reading the register, manual p. 915
   8021a:	481b      	ldr	r0, [pc, #108]	; (80288 <TC0_Handler+0x90>)
   8021c:	2100      	movs	r1, #0
   8021e:	4b1b      	ldr	r3, [pc, #108]	; (8028c <TC0_Handler+0x94>)
   80220:	4798      	blx	r3
   80222:	9001      	str	r0, [sp, #4]
	/* Avoid compiler warning */
	UNUSED(ul_dummy);
   80224:	9b01      	ldr	r3, [sp, #4]
	
	/* Send TRIG pulse for starting sample */
	ioport_set_pin_level(pin_mapper(TRIG_PIN_DUE), 1);
   80226:	2009      	movs	r0, #9
   80228:	47a8      	blx	r5
typedef uint32_t ioport_port_t;
typedef uint32_t ioport_port_mask_t;

__always_inline static ioport_port_t arch_ioport_pin_to_port_id(ioport_pin_t pin)
{
	return pin >> 5;
   8022a:	0943      	lsrs	r3, r0, #5
	} else {
		return (Pio *)((uintptr_t)IOPORT_BASE_ADDRESS +
		       (IOPORT_PIO_OFFSET * port));
	}
#else
	return (Pio *)((uintptr_t)IOPORT_BASE_ADDRESS +
   8022c:	f503 1300 	add.w	r3, r3, #2097152	; 0x200000
   80230:	f203 7307 	addw	r3, r3, #1799	; 0x707
   80234:	025b      	lsls	r3, r3, #9
	return arch_ioport_port_to_base(arch_ioport_pin_to_port_id(pin));
}

__always_inline static ioport_port_mask_t arch_ioport_pin_to_mask(ioport_pin_t pin)
{
	return 1U << (pin & 0x1F);
   80236:	f000 001f 	and.w	r0, r0, #31
   8023a:	fa04 f200 	lsl.w	r2, r4, r0
		bool level)
{
	Pio *base = arch_ioport_pin_to_base(pin);

	if (level) {
		base->PIO_SODR = arch_ioport_pin_to_mask(pin);
   8023e:	631a      	str	r2, [r3, #48]	; 0x30
	delay_us(9); /* Pulse specified to be 10 us wide */
   80240:	2036      	movs	r0, #54	; 0x36
   80242:	4b13      	ldr	r3, [pc, #76]	; (80290 <TC0_Handler+0x98>)
   80244:	4798      	blx	r3
	ioport_set_pin_level(pin_mapper(TRIG_PIN_DUE), 0);
   80246:	2009      	movs	r0, #9
   80248:	47a8      	blx	r5
typedef uint32_t ioport_port_t;
typedef uint32_t ioport_port_mask_t;

__always_inline static ioport_port_t arch_ioport_pin_to_port_id(ioport_pin_t pin)
{
	return pin >> 5;
   8024a:	0943      	lsrs	r3, r0, #5
	} else {
		return (Pio *)((uintptr_t)IOPORT_BASE_ADDRESS +
		       (IOPORT_PIO_OFFSET * port));
	}
#else
	return (Pio *)((uintptr_t)IOPORT_BASE_ADDRESS +
   8024c:	f503 1300 	add.w	r3, r3, #2097152	; 0x200000
   80250:	f203 7307 	addw	r3, r3, #1799	; 0x707
   80254:	025b      	lsls	r3, r3, #9
	return arch_ioport_port_to_base(arch_ioport_pin_to_port_id(pin));
}

__always_inline static ioport_port_mask_t arch_ioport_pin_to_mask(ioport_pin_t pin)
{
	return 1U << (pin & 0x1F);
   80256:	f000 001f 	and.w	r0, r0, #31
   8025a:	fa04 f200 	lsl.w	r2, r4, r0
	Pio *base = arch_ioport_pin_to_base(pin);

	if (level) {
		base->PIO_SODR = arch_ioport_pin_to_mask(pin);
	} else {
		base->PIO_CODR = arch_ioport_pin_to_mask(pin);
   8025e:	635a      	str	r2, [r3, #52]	; 0x34
	
	ioport_set_pin_level(pin_mapper(13), 0);
   80260:	200d      	movs	r0, #13
   80262:	47a8      	blx	r5
typedef uint32_t ioport_port_t;
typedef uint32_t ioport_port_mask_t;

__always_inline static ioport_port_t arch_ioport_pin_to_port_id(ioport_pin_t pin)
{
	return pin >> 5;
   80264:	0943      	lsrs	r3, r0, #5
	} else {
		return (Pio *)((uintptr_t)IOPORT_BASE_ADDRESS +
		       (IOPORT_PIO_OFFSET * port));
	}
#else
	return (Pio *)((uintptr_t)IOPORT_BASE_ADDRESS +
   80266:	f503 1300 	add.w	r3, r3, #2097152	; 0x200000
   8026a:	f203 7307 	addw	r3, r3, #1799	; 0x707
   8026e:	025b      	lsls	r3, r3, #9
	return arch_ioport_port_to_base(arch_ioport_pin_to_port_id(pin));
}

__always_inline static ioport_port_mask_t arch_ioport_pin_to_mask(ioport_pin_t pin)
{
	return 1U << (pin & 0x1F);
   80270:	f000 001f 	and.w	r0, r0, #31
   80274:	fa04 f200 	lsl.w	r2, r4, r0
	Pio *base = arch_ioport_pin_to_base(pin);

	if (level) {
		base->PIO_SODR = arch_ioport_pin_to_mask(pin);
	} else {
		base->PIO_CODR = arch_ioport_pin_to_mask(pin);
   80278:	635a      	str	r2, [r3, #52]	; 0x34
	new_sample = 1;
   8027a:	4b06      	ldr	r3, [pc, #24]	; (80294 <TC0_Handler+0x9c>)
   8027c:	601c      	str	r4, [r3, #0]
}
   8027e:	b003      	add	sp, #12
   80280:	bd30      	pop	{r4, r5, pc}
   80282:	bf00      	nop
   80284:	00082c85 	.word	0x00082c85
   80288:	40080000 	.word	0x40080000
   8028c:	00080841 	.word	0x00080841
   80290:	20070001 	.word	0x20070001
   80294:	20070a30 	.word	0x20070a30

00080298 <hcsr04_init>:
	pio_enable_interrupt(PIOD, PIO_PD8);
	NVIC_EnableIRQ(PIOD_IRQn);
}


void hcsr04_init(void) {
   80298:	b5f0      	push	{r4, r5, r6, r7, lr}
   8029a:	b083      	sub	sp, #12
*/

static void timer_sample_init(void)
{
	/* Configure PMC */
	pmc_enable_periph_clk(ID_TC0);
   8029c:	201b      	movs	r0, #27
   8029e:	4d24      	ldr	r5, [pc, #144]	; (80330 <hcsr04_init+0x98>)
   802a0:	47a8      	blx	r5

	tc_init(TC0, 0, 0 | TC_CMR_CPCTRG);			//Timer_clock_1 - MCK/2 - 42 MHz
   802a2:	4c24      	ldr	r4, [pc, #144]	; (80334 <hcsr04_init+0x9c>)
   802a4:	4620      	mov	r0, r4
   802a6:	2100      	movs	r1, #0
   802a8:	f44f 4280 	mov.w	r2, #16384	; 0x4000
   802ac:	4f22      	ldr	r7, [pc, #136]	; (80338 <hcsr04_init+0xa0>)
   802ae:	47b8      	blx	r7
	tc_write_rc(TC0, 0, 4200000);				//4 200 000 corresponds to fs = 10 Hz
   802b0:	4620      	mov	r0, r4
   802b2:	2100      	movs	r1, #0
   802b4:	4a21      	ldr	r2, [pc, #132]	; (8033c <hcsr04_init+0xa4>)
   802b6:	4b22      	ldr	r3, [pc, #136]	; (80340 <hcsr04_init+0xa8>)
   802b8:	4798      	blx	r3

    \param [in]      IRQn  External interrupt number. Value cannot be negative.
 */
__STATIC_INLINE void NVIC_EnableIRQ(IRQn_Type IRQn)
{
  NVIC->ISER[((uint32_t)(IRQn) >> 5)] = (1 << ((uint32_t)(IRQn) & 0x1F)); /* enable interrupt */
   802ba:	4e22      	ldr	r6, [pc, #136]	; (80344 <hcsr04_init+0xac>)
   802bc:	f04f 6300 	mov.w	r3, #134217728	; 0x8000000
   802c0:	6033      	str	r3, [r6, #0]

	/* Configure and enable interrupt on RC compare */
	NVIC_EnableIRQ((IRQn_Type) ID_TC0);
	tc_enable_interrupt(TC0, 0, TC_IER_CPCS);
   802c2:	4620      	mov	r0, r4
   802c4:	2100      	movs	r1, #0
   802c6:	2210      	movs	r2, #16
   802c8:	4b1f      	ldr	r3, [pc, #124]	; (80348 <hcsr04_init+0xb0>)
   802ca:	4798      	blx	r3
	
	tc_start(TC0, 0);
   802cc:	4620      	mov	r0, r4
   802ce:	2100      	movs	r1, #0
   802d0:	4b1e      	ldr	r3, [pc, #120]	; (8034c <hcsr04_init+0xb4>)
   802d2:	4798      	blx	r3
}

static void timer_measure_init(void) {
	/* power on the peripheral clock for timers */
	pmc_enable_periph_clk(ID_TC2);
   802d4:	201d      	movs	r0, #29
   802d6:	47a8      	blx	r5

	tc_init(TC0,2,0);				/* Enable timer block 1, channel 3, TCLK1 (MCK/2) and capturemode */
   802d8:	4620      	mov	r0, r4
   802da:	2102      	movs	r1, #2
   802dc:	2200      	movs	r2, #0
   802de:	47b8      	blx	r7
	tc_set_block_mode(TC0,2);
   802e0:	4620      	mov	r0, r4
   802e2:	2102      	movs	r1, #2
   802e4:	4b1a      	ldr	r3, [pc, #104]	; (80350 <hcsr04_init+0xb8>)
   802e6:	4798      	blx	r3
	tc_stop(TC0, 2);				/* Making sure the timer does not run  */
   802e8:	4620      	mov	r0, r4
   802ea:	2102      	movs	r1, #2
   802ec:	4b19      	ldr	r3, [pc, #100]	; (80354 <hcsr04_init+0xbc>)
   802ee:	4798      	blx	r3
/*
* Enable interrupt to be triggered on rising/falling edge on input pin
*/
static void echo_init_pin_interrupts(void) {
	/* Enable Clock for PIOB - needed for sampling falling edge */
	pmc_enable_periph_clk(ID_PIOD);
   802f0:	200e      	movs	r0, #14
   802f2:	47a8      	blx	r5

	/* Set specific pin to use as input */
	pio_set_input(PIOD, PIO_PD8, PIO_PULLUP);
   802f4:	f504 24c2 	add.w	r4, r4, #397312	; 0x61000
   802f8:	f504 6480 	add.w	r4, r4, #1024	; 0x400
   802fc:	4620      	mov	r0, r4
   802fe:	f44f 7180 	mov.w	r1, #256	; 0x100
   80302:	2201      	movs	r2, #1
   80304:	4b14      	ldr	r3, [pc, #80]	; (80358 <hcsr04_init+0xc0>)
   80306:	4798      	blx	r3

	/* Unfortunately we can only have one interrupt handler per pin */
	pio_handler_set(PIOD, ID_PIOD, PIO_PD8, PIO_IT_EDGE, edge_detection);
   80308:	4b14      	ldr	r3, [pc, #80]	; (8035c <hcsr04_init+0xc4>)
   8030a:	9300      	str	r3, [sp, #0]
   8030c:	4620      	mov	r0, r4
   8030e:	210e      	movs	r1, #14
   80310:	f44f 7280 	mov.w	r2, #256	; 0x100
   80314:	2340      	movs	r3, #64	; 0x40
   80316:	4d12      	ldr	r5, [pc, #72]	; (80360 <hcsr04_init+0xc8>)
   80318:	47a8      	blx	r5

	/* Enable Interrupt Handling in NVIC and in PIO */
	pio_enable_interrupt(PIOD, PIO_PD8);
   8031a:	4620      	mov	r0, r4
   8031c:	f44f 7180 	mov.w	r1, #256	; 0x100
   80320:	4b10      	ldr	r3, [pc, #64]	; (80364 <hcsr04_init+0xcc>)
   80322:	4798      	blx	r3
   80324:	f44f 4380 	mov.w	r3, #16384	; 0x4000
   80328:	6033      	str	r3, [r6, #0]
	timer_sample_init();
	/* Enable another timer to measure pulse width using capture mode */
	timer_measure_init();
	/* Enable the interrupts for measuring pulse width on ECHO */
	echo_init_pin_interrupts();
}
   8032a:	b003      	add	sp, #12
   8032c:	bdf0      	pop	{r4, r5, r6, r7, pc}
   8032e:	bf00      	nop
   80330:	0008359d 	.word	0x0008359d
   80334:	40080000 	.word	0x40080000
   80338:	000807f5 	.word	0x000807f5
   8033c:	00401640 	.word	0x00401640
   80340:	00080831 	.word	0x00080831
   80344:	e000e100 	.word	0xe000e100
   80348:	00080839 	.word	0x00080839
   8034c:	00080819 	.word	0x00080819
   80350:	00080811 	.word	0x00080811
   80354:	00080821 	.word	0x00080821
   80358:	00083199 	.word	0x00083199
   8035c:	0008018d 	.word	0x0008018d
   80360:	000833f5 	.word	0x000833f5
   80364:	00083225 	.word	0x00083225

00080368 <hcsr04_get_distance_filtered>:
/*
 * Function: hcsr04_get_distance_filtered
 * --------------------
 * Returns the average of 10 samples or -1 if more than 2 samples are outside the desired range (currently 2-50)
 */
int hcsr04_get_distance_filtered(void) {
   80368:	b4f0      	push	{r4, r5, r6, r7}
	check_sample = 0;
	legit_sample_counter = 0;
   8036a:	2000      	movs	r0, #0
   8036c:	4b13      	ldr	r3, [pc, #76]	; (803bc <hcsr04_get_distance_filtered+0x54>)
   8036e:	6018      	str	r0, [r3, #0]
   80370:	4605      	mov	r5, r0
   80372:	210a      	movs	r1, #10

static volatile int last_sample = 0;
static volatile int new_sample = 0;

int hcsr04_sample_ready(void) {
	return new_sample;
   80374:	4a12      	ldr	r2, [pc, #72]	; (803c0 <hcsr04_get_distance_filtered+0x58>)
}

int hcsr04_get_distance(void) {
	new_sample = 0;
   80376:	4607      	mov	r7, r0
	return last_sample;
   80378:	4e12      	ldr	r6, [pc, #72]	; (803c4 <hcsr04_get_distance_filtered+0x5c>)

static volatile int last_sample = 0;
static volatile int new_sample = 0;

int hcsr04_sample_ready(void) {
	return new_sample;
   8037a:	6813      	ldr	r3, [r2, #0]
	check_sample = 0;
	legit_sample_counter = 0;
	sum_values = 0;
	
	for (int i = 0; i < how_many_samples; i++) { // Loops through 10 samples
		while(!hcsr04_sample_ready()); // Waits for a new sample
   8037c:	2b00      	cmp	r3, #0
   8037e:	d0fc      	beq.n	8037a <hcsr04_get_distance_filtered+0x12>
int hcsr04_sample_ready(void) {
	return new_sample;
}

int hcsr04_get_distance(void) {
	new_sample = 0;
   80380:	6017      	str	r7, [r2, #0]
	return last_sample;
   80382:	6833      	ldr	r3, [r6, #0]
	sum_values = 0;
	
	for (int i = 0; i < how_many_samples; i++) { // Loops through 10 samples
		while(!hcsr04_sample_ready()); // Waits for a new sample
		check_sample = hcsr04_get_distance(); // Stores the sample
		sum_values += check_sample; // Adds the sample's value to sum_values
   80384:	4418      	add	r0, r3
		
		if (check_sample > min_value && check_sample < max_value) {
   80386:	1edc      	subs	r4, r3, #3
   80388:	2c2e      	cmp	r4, #46	; 0x2e
			legit_sample_counter++; // The sample is within within the desired range (currently 2-50)
   8038a:	bf98      	it	ls
   8038c:	3501      	addls	r5, #1
int hcsr04_get_distance_filtered(void) {
	check_sample = 0;
	legit_sample_counter = 0;
	sum_values = 0;
	
	for (int i = 0; i < how_many_samples; i++) { // Loops through 10 samples
   8038e:	3901      	subs	r1, #1
   80390:	d1f3      	bne.n	8037a <hcsr04_get_distance_filtered+0x12>
   80392:	4a0d      	ldr	r2, [pc, #52]	; (803c8 <hcsr04_get_distance_filtered+0x60>)
   80394:	6013      	str	r3, [r2, #0]
   80396:	4b0d      	ldr	r3, [pc, #52]	; (803cc <hcsr04_get_distance_filtered+0x64>)
   80398:	6018      	str	r0, [r3, #0]
   8039a:	4b08      	ldr	r3, [pc, #32]	; (803bc <hcsr04_get_distance_filtered+0x54>)
   8039c:	601d      	str	r5, [r3, #0]
		if (check_sample > min_value && check_sample < max_value) {
			legit_sample_counter++; // The sample is within within the desired range (currently 2-50)
		}
	}
	
	if (legit_sample_counter >= how_many_legit_samples) { // Checks if we got enough of legit samples
   8039e:	2d07      	cmp	r5, #7
   803a0:	dd07      	ble.n	803b2 <hcsr04_get_distance_filtered+0x4a>
		return (sum_values / how_many_samples); // Returns the average of the 10 samples
   803a2:	4603      	mov	r3, r0
   803a4:	480a      	ldr	r0, [pc, #40]	; (803d0 <hcsr04_get_distance_filtered+0x68>)
   803a6:	fb80 2003 	smull	r2, r0, r0, r3
   803aa:	17db      	asrs	r3, r3, #31
   803ac:	ebc3 00a0 	rsb	r0, r3, r0, asr #2
   803b0:	e001      	b.n	803b6 <hcsr04_get_distance_filtered+0x4e>
	}
	return -1;
   803b2:	f04f 30ff 	mov.w	r0, #4294967295
}
   803b6:	bcf0      	pop	{r4, r5, r6, r7}
   803b8:	4770      	bx	lr
   803ba:	bf00      	nop
   803bc:	20070a38 	.word	0x20070a38
   803c0:	20070a30 	.word	0x20070a30
   803c4:	20070a34 	.word	0x20070a34
   803c8:	20070a3c 	.word	0x20070a3c
   803cc:	20070a2c 	.word	0x20070a2c
   803d0:	66666667 	.word	0x66666667

000803d4 <Twi_master_init>:
   803d4:	b510      	push	{r4, lr}
   803d6:	4604      	mov	r4, r0
   803d8:	2017      	movs	r0, #23
   803da:	4b14      	ldr	r3, [pc, #80]	; (8042c <Twi_master_init+0x58>)
   803dc:	4798      	blx	r3
   803de:	4a14      	ldr	r2, [pc, #80]	; (80430 <Twi_master_init+0x5c>)
   803e0:	6853      	ldr	r3, [r2, #4]
   803e2:	f443 5340 	orr.w	r3, r3, #12288	; 0x3000
   803e6:	6053      	str	r3, [r2, #4]
   803e8:	2380      	movs	r3, #128	; 0x80
   803ea:	6023      	str	r3, [r4, #0]
   803ec:	6b23      	ldr	r3, [r4, #48]	; 0x30
   803ee:	2308      	movs	r3, #8
   803f0:	6023      	str	r3, [r4, #0]
   803f2:	2320      	movs	r3, #32
   803f4:	6023      	str	r3, [r4, #0]
   803f6:	6823      	ldr	r3, [r4, #0]
   803f8:	f043 0304 	orr.w	r3, r3, #4
   803fc:	6023      	str	r3, [r4, #0]
   803fe:	6863      	ldr	r3, [r4, #4]
   80400:	f443 1380 	orr.w	r3, r3, #1048576	; 0x100000
   80404:	6063      	str	r3, [r4, #4]
   80406:	f8d4 3120 	ldr.w	r3, [r4, #288]	; 0x120
   8040a:	f443 7380 	orr.w	r3, r3, #256	; 0x100
   8040e:	f043 0301 	orr.w	r3, r3, #1
   80412:	f8c4 3120 	str.w	r3, [r4, #288]	; 0x120
   80416:	f04f 33ff 	mov.w	r3, #4294967295
   8041a:	62a3      	str	r3, [r4, #40]	; 0x28
   8041c:	6923      	ldr	r3, [r4, #16]
   8041e:	f443 33c3 	orr.w	r3, r3, #99840	; 0x18600
   80422:	f043 03a0 	orr.w	r3, r3, #160	; 0xa0
   80426:	6123      	str	r3, [r4, #16]
   80428:	bd10      	pop	{r4, pc}
   8042a:	bf00      	nop
   8042c:	0008359d 	.word	0x0008359d
   80430:	400e1000 	.word	0x400e1000

00080434 <master_write_cmd>:
   80434:	2300      	movs	r3, #0
   80436:	6043      	str	r3, [r0, #4]
   80438:	f44f 2300 	mov.w	r3, #524288	; 0x80000
   8043c:	6043      	str	r3, [r0, #4]
   8043e:	4a07      	ldr	r2, [pc, #28]	; (8045c <master_write_cmd+0x28>)
   80440:	6a13      	ldr	r3, [r2, #32]
   80442:	f013 0f04 	tst.w	r3, #4
   80446:	d0fb      	beq.n	80440 <master_write_cmd+0xc>
   80448:	6341      	str	r1, [r0, #52]	; 0x34
   8044a:	2302      	movs	r3, #2
   8044c:	6003      	str	r3, [r0, #0]
   8044e:	4a03      	ldr	r2, [pc, #12]	; (8045c <master_write_cmd+0x28>)
   80450:	6a13      	ldr	r3, [r2, #32]
   80452:	f013 0f01 	tst.w	r3, #1
   80456:	d0fb      	beq.n	80450 <master_write_cmd+0x1c>
   80458:	4608      	mov	r0, r1
   8045a:	4770      	bx	lr
   8045c:	40090000 	.word	0x40090000

00080460 <I2C_mk_addr>:
   80460:	460a      	mov	r2, r1
   80462:	b159      	cbz	r1, 8047c <I2C_mk_addr+0x1c>
   80464:	7803      	ldrb	r3, [r0, #0]
   80466:	2901      	cmp	r1, #1
   80468:	bfc4      	itt	gt
   8046a:	7841      	ldrbgt	r1, [r0, #1]
   8046c:	ea41 2303 	orrgt.w	r3, r1, r3, lsl #8
   80470:	2a02      	cmp	r2, #2
   80472:	dd05      	ble.n	80480 <I2C_mk_addr+0x20>
   80474:	7880      	ldrb	r0, [r0, #2]
   80476:	ea40 2003 	orr.w	r0, r0, r3, lsl #8
   8047a:	4770      	bx	lr
   8047c:	2000      	movs	r0, #0
   8047e:	4770      	bx	lr
   80480:	4618      	mov	r0, r3
   80482:	4770      	bx	lr

00080484 <I2C_master_read>:
   80484:	e92d 41f0 	stmdb	sp!, {r4, r5, r6, r7, r8, lr}
   80488:	68cc      	ldr	r4, [r1, #12]
   8048a:	688e      	ldr	r6, [r1, #8]
   8048c:	2c00      	cmp	r4, #0
   8048e:	d043      	beq.n	80518 <I2C_master_read+0x94>
   80490:	4605      	mov	r5, r0
   80492:	2000      	movs	r0, #0
   80494:	6068      	str	r0, [r5, #4]
   80496:	684b      	ldr	r3, [r1, #4]
   80498:	021b      	lsls	r3, r3, #8
   8049a:	f403 7340 	and.w	r3, r3, #768	; 0x300
   8049e:	f443 5280 	orr.w	r2, r3, #4096	; 0x1000
   804a2:	7c0b      	ldrb	r3, [r1, #16]
   804a4:	041b      	lsls	r3, r3, #16
   804a6:	f403 03fe 	and.w	r3, r3, #8323072	; 0x7f0000
   804aa:	4313      	orrs	r3, r2
   804ac:	606b      	str	r3, [r5, #4]
   804ae:	60e8      	str	r0, [r5, #12]
   804b0:	4608      	mov	r0, r1
   804b2:	6849      	ldr	r1, [r1, #4]
   804b4:	4b27      	ldr	r3, [pc, #156]	; (80554 <I2C_master_read+0xd0>)
   804b6:	4798      	blx	r3
   804b8:	60e8      	str	r0, [r5, #12]
   804ba:	2c01      	cmp	r4, #1
   804bc:	d104      	bne.n	804c8 <I2C_master_read+0x44>
   804be:	2303      	movs	r3, #3
   804c0:	602b      	str	r3, [r5, #0]
   804c2:	f04f 0e01 	mov.w	lr, #1
   804c6:	e033      	b.n	80530 <I2C_master_read+0xac>
   804c8:	2301      	movs	r3, #1
   804ca:	602b      	str	r3, [r5, #0]
   804cc:	f04f 0e00 	mov.w	lr, #0
   804d0:	e02e      	b.n	80530 <I2C_master_read+0xac>
   804d2:	460a      	mov	r2, r1
   804d4:	6a2b      	ldr	r3, [r5, #32]
   804d6:	f413 7f80 	tst.w	r3, #256	; 0x100
   804da:	d120      	bne.n	8051e <I2C_master_read+0x9a>
   804dc:	1e51      	subs	r1, r2, #1
   804de:	b30a      	cbz	r2, 80524 <I2C_master_read+0xa0>
   804e0:	2c01      	cmp	r4, #1
   804e2:	d106      	bne.n	804f2 <I2C_master_read+0x6e>
   804e4:	f1be 0f00 	cmp.w	lr, #0
   804e8:	d12f      	bne.n	8054a <I2C_master_read+0xc6>
   804ea:	f8c5 8000 	str.w	r8, [r5]
   804ee:	46e6      	mov	lr, ip
   804f0:	e02b      	b.n	8054a <I2C_master_read+0xc6>
   804f2:	f013 0f02 	tst.w	r3, #2
   804f6:	d005      	beq.n	80504 <I2C_master_read+0x80>
   804f8:	6b2b      	ldr	r3, [r5, #48]	; 0x30
   804fa:	7033      	strb	r3, [r6, #0]
   804fc:	3c01      	subs	r4, #1
   804fe:	3601      	adds	r6, #1
   80500:	463a      	mov	r2, r7
   80502:	e000      	b.n	80506 <I2C_master_read+0x82>
   80504:	460a      	mov	r2, r1
   80506:	2c00      	cmp	r4, #0
   80508:	d1e4      	bne.n	804d4 <I2C_master_read+0x50>
   8050a:	6a2b      	ldr	r3, [r5, #32]
   8050c:	f013 0f01 	tst.w	r3, #1
   80510:	d0fb      	beq.n	8050a <I2C_master_read+0x86>
   80512:	6a2b      	ldr	r3, [r5, #32]
   80514:	e8bd 81f0 	ldmia.w	sp!, {r4, r5, r6, r7, r8, pc}
   80518:	2001      	movs	r0, #1
   8051a:	e8bd 81f0 	ldmia.w	sp!, {r4, r5, r6, r7, r8, pc}
   8051e:	2005      	movs	r0, #5
   80520:	e8bd 81f0 	ldmia.w	sp!, {r4, r5, r6, r7, r8, pc}
   80524:	2009      	movs	r0, #9
   80526:	e8bd 81f0 	ldmia.w	sp!, {r4, r5, r6, r7, r8, pc}
   8052a:	2005      	movs	r0, #5
   8052c:	e8bd 81f0 	ldmia.w	sp!, {r4, r5, r6, r7, r8, pc}
   80530:	6a2b      	ldr	r3, [r5, #32]
   80532:	f413 7080 	ands.w	r0, r3, #256	; 0x100
   80536:	d1f8      	bne.n	8052a <I2C_master_read+0xa6>
   80538:	f247 512f 	movw	r1, #29999	; 0x752f
   8053c:	f247 5730 	movw	r7, #30000	; 0x7530
   80540:	f04f 0802 	mov.w	r8, #2
   80544:	f04f 0c01 	mov.w	ip, #1
   80548:	e7ca      	b.n	804e0 <I2C_master_read+0x5c>
   8054a:	f013 0f02 	tst.w	r3, #2
   8054e:	d0c0      	beq.n	804d2 <I2C_master_read+0x4e>
   80550:	e7d2      	b.n	804f8 <I2C_master_read+0x74>
   80552:	bf00      	nop
   80554:	00080461 	.word	0x00080461

00080558 <get_pos>:
   80558:	b082      	sub	sp, #8
   8055a:	4a06      	ldr	r2, [pc, #24]	; (80574 <get_pos+0x1c>)
   8055c:	7a53      	ldrb	r3, [r2, #9]
   8055e:	7a12      	ldrb	r2, [r2, #8]
   80560:	2000      	movs	r0, #0
   80562:	0052      	lsls	r2, r2, #1
   80564:	f362 000f 	bfi	r0, r2, #0, #16
   80568:	005b      	lsls	r3, r3, #1
   8056a:	f363 401f 	bfi	r0, r3, #16, #16
   8056e:	b002      	add	sp, #8
   80570:	4770      	bx	lr
   80572:	bf00      	nop
   80574:	20070a40 	.word	0x20070a40

00080578 <get_box>:
   80578:	b082      	sub	sp, #8
   8057a:	4801      	ldr	r0, [pc, #4]	; (80580 <get_box+0x8>)
   8057c:	b002      	add	sp, #8
   8057e:	4770      	bx	lr
   80580:	0190012c 	.word	0x0190012c

00080584 <get_ball>:
   80584:	b082      	sub	sp, #8
   80586:	4a06      	ldr	r2, [pc, #24]	; (805a0 <get_ball+0x1c>)
   80588:	7953      	ldrb	r3, [r2, #5]
   8058a:	7912      	ldrb	r2, [r2, #4]
   8058c:	2000      	movs	r0, #0
   8058e:	0052      	lsls	r2, r2, #1
   80590:	f362 000f 	bfi	r0, r2, #0, #16
   80594:	005b      	lsls	r3, r3, #1
   80596:	f363 401f 	bfi	r0, r3, #16, #16
   8059a:	b002      	add	sp, #8
   8059c:	4770      	bx	lr
   8059e:	bf00      	nop
   805a0:	20070a40 	.word	0x20070a40

000805a4 <get_cube>:
   805a4:	b082      	sub	sp, #8
   805a6:	4a06      	ldr	r2, [pc, #24]	; (805c0 <get_cube+0x1c>)
   805a8:	78d3      	ldrb	r3, [r2, #3]
   805aa:	7892      	ldrb	r2, [r2, #2]
   805ac:	2000      	movs	r0, #0
   805ae:	0052      	lsls	r2, r2, #1
   805b0:	f362 000f 	bfi	r0, r2, #0, #16
   805b4:	005b      	lsls	r3, r3, #1
   805b6:	f363 401f 	bfi	r0, r3, #16, #16
   805ba:	b002      	add	sp, #8
   805bc:	4770      	bx	lr
   805be:	bf00      	nop
   805c0:	20070a40 	.word	0x20070a40

000805c4 <update_positions>:
   805c4:	b508      	push	{r3, lr}
   805c6:	4802      	ldr	r0, [pc, #8]	; (805d0 <update_positions+0xc>)
   805c8:	4902      	ldr	r1, [pc, #8]	; (805d4 <update_positions+0x10>)
   805ca:	4b03      	ldr	r3, [pc, #12]	; (805d8 <update_positions+0x14>)
   805cc:	4798      	blx	r3
   805ce:	bd08      	pop	{r3, pc}
   805d0:	40090000 	.word	0x40090000
   805d4:	20070138 	.word	0x20070138
   805d8:	00080485 	.word	0x00080485

000805dc <_read>:
   805dc:	b9a8      	cbnz	r0, 8060a <_read+0x2e>
   805de:	e92d 41f0 	stmdb	sp!, {r4, r5, r6, r7, r8, lr}
   805e2:	460c      	mov	r4, r1
   805e4:	4690      	mov	r8, r2
   805e6:	2a00      	cmp	r2, #0
   805e8:	dd0a      	ble.n	80600 <_read+0x24>
   805ea:	188f      	adds	r7, r1, r2
   805ec:	4e08      	ldr	r6, [pc, #32]	; (80610 <_read+0x34>)
   805ee:	4d09      	ldr	r5, [pc, #36]	; (80614 <_read+0x38>)
   805f0:	6830      	ldr	r0, [r6, #0]
   805f2:	4621      	mov	r1, r4
   805f4:	682b      	ldr	r3, [r5, #0]
   805f6:	4798      	blx	r3
   805f8:	3401      	adds	r4, #1
   805fa:	42bc      	cmp	r4, r7
   805fc:	d1f8      	bne.n	805f0 <_read+0x14>
   805fe:	e001      	b.n	80604 <_read+0x28>
   80600:	f04f 0800 	mov.w	r8, #0
   80604:	4640      	mov	r0, r8
   80606:	e8bd 81f0 	ldmia.w	sp!, {r4, r5, r6, r7, r8, pc}
   8060a:	f04f 30ff 	mov.w	r0, #4294967295
   8060e:	4770      	bx	lr
   80610:	2007ad70 	.word	0x2007ad70
   80614:	2007ad14 	.word	0x2007ad14

00080618 <pwm_clocks_generate>:
   80618:	b4f0      	push	{r4, r5, r6, r7}
   8061a:	b08c      	sub	sp, #48	; 0x30
   8061c:	4607      	mov	r7, r0
   8061e:	460e      	mov	r6, r1
   80620:	ac01      	add	r4, sp, #4
   80622:	4d11      	ldr	r5, [pc, #68]	; (80668 <pwm_clocks_generate+0x50>)
   80624:	cd0f      	ldmia	r5!, {r0, r1, r2, r3}
   80626:	c40f      	stmia	r4!, {r0, r1, r2, r3}
   80628:	cd0f      	ldmia	r5!, {r0, r1, r2, r3}
   8062a:	c40f      	stmia	r4!, {r0, r1, r2, r3}
   8062c:	e895 0007 	ldmia.w	r5, {r0, r1, r2}
   80630:	e884 0007 	stmia.w	r4, {r0, r1, r2}
   80634:	aa01      	add	r2, sp, #4
   80636:	2000      	movs	r0, #0
   80638:	f852 3b04 	ldr.w	r3, [r2], #4
   8063c:	fbb6 f3f3 	udiv	r3, r6, r3
   80640:	fbb3 f3f7 	udiv	r3, r3, r7
   80644:	f5b3 7f80 	cmp.w	r3, #256	; 0x100
   80648:	d905      	bls.n	80656 <pwm_clocks_generate+0x3e>
   8064a:	3001      	adds	r0, #1
   8064c:	280b      	cmp	r0, #11
   8064e:	d1f3      	bne.n	80638 <pwm_clocks_generate+0x20>
   80650:	f64f 70ff 	movw	r0, #65535	; 0xffff
   80654:	e005      	b.n	80662 <pwm_clocks_generate+0x4a>
   80656:	280a      	cmp	r0, #10
   80658:	bf94      	ite	ls
   8065a:	ea43 2000 	orrls.w	r0, r3, r0, lsl #8
   8065e:	f64f 70ff 	movwhi	r0, #65535	; 0xffff
   80662:	b00c      	add	sp, #48	; 0x30
   80664:	bcf0      	pop	{r4, r5, r6, r7}
   80666:	4770      	bx	lr
   80668:	00087ba0 	.word	0x00087ba0

0008066c <pwm_init>:
   8066c:	b570      	push	{r4, r5, r6, lr}
   8066e:	4606      	mov	r6, r0
   80670:	460c      	mov	r4, r1
   80672:	6808      	ldr	r0, [r1, #0]
   80674:	b140      	cbz	r0, 80688 <pwm_init+0x1c>
   80676:	6889      	ldr	r1, [r1, #8]
   80678:	4b0e      	ldr	r3, [pc, #56]	; (806b4 <pwm_init+0x48>)
   8067a:	4798      	blx	r3
   8067c:	4605      	mov	r5, r0
   8067e:	f64f 73ff 	movw	r3, #65535	; 0xffff
   80682:	4298      	cmp	r0, r3
   80684:	d101      	bne.n	8068a <pwm_init+0x1e>
   80686:	e00e      	b.n	806a6 <pwm_init+0x3a>
   80688:	2500      	movs	r5, #0
   8068a:	6860      	ldr	r0, [r4, #4]
   8068c:	b140      	cbz	r0, 806a0 <pwm_init+0x34>
   8068e:	68a1      	ldr	r1, [r4, #8]
   80690:	4b08      	ldr	r3, [pc, #32]	; (806b4 <pwm_init+0x48>)
   80692:	4798      	blx	r3
   80694:	f64f 73ff 	movw	r3, #65535	; 0xffff
   80698:	4298      	cmp	r0, r3
   8069a:	d007      	beq.n	806ac <pwm_init+0x40>
   8069c:	ea45 4500 	orr.w	r5, r5, r0, lsl #16
   806a0:	6035      	str	r5, [r6, #0]
   806a2:	2000      	movs	r0, #0
   806a4:	bd70      	pop	{r4, r5, r6, pc}
   806a6:	f64f 70ff 	movw	r0, #65535	; 0xffff
   806aa:	bd70      	pop	{r4, r5, r6, pc}
   806ac:	f64f 70ff 	movw	r0, #65535	; 0xffff
   806b0:	bd70      	pop	{r4, r5, r6, pc}
   806b2:	bf00      	nop
   806b4:	00080619 	.word	0x00080619

000806b8 <pwm_channel_init>:
   806b8:	b470      	push	{r4, r5, r6}
   806ba:	680b      	ldr	r3, [r1, #0]
   806bc:	8a8a      	ldrh	r2, [r1, #20]
   806be:	684c      	ldr	r4, [r1, #4]
   806c0:	f004 040f 	and.w	r4, r4, #15
   806c4:	4322      	orrs	r2, r4
   806c6:	890c      	ldrh	r4, [r1, #8]
   806c8:	4322      	orrs	r2, r4
   806ca:	7a8c      	ldrb	r4, [r1, #10]
   806cc:	ea42 2244 	orr.w	r2, r2, r4, lsl #9
   806d0:	7d8c      	ldrb	r4, [r1, #22]
   806d2:	ea42 4204 	orr.w	r2, r2, r4, lsl #16
   806d6:	7dcc      	ldrb	r4, [r1, #23]
   806d8:	ea42 4244 	orr.w	r2, r2, r4, lsl #17
   806dc:	7e0c      	ldrb	r4, [r1, #24]
   806de:	ea42 4284 	orr.w	r2, r2, r4, lsl #18
   806e2:	eb00 1443 	add.w	r4, r0, r3, lsl #5
   806e6:	f8c4 2200 	str.w	r2, [r4, #512]	; 0x200
   806ea:	68ca      	ldr	r2, [r1, #12]
   806ec:	f8c4 2204 	str.w	r2, [r4, #516]	; 0x204
   806f0:	690a      	ldr	r2, [r1, #16]
   806f2:	f8c4 220c 	str.w	r2, [r4, #524]	; 0x20c
   806f6:	7d8a      	ldrb	r2, [r1, #22]
   806f8:	b13a      	cbz	r2, 8070a <pwm_channel_init+0x52>
   806fa:	8b8c      	ldrh	r4, [r1, #28]
   806fc:	8b4a      	ldrh	r2, [r1, #26]
   806fe:	ea42 4204 	orr.w	r2, r2, r4, lsl #16
   80702:	eb00 1443 	add.w	r4, r0, r3, lsl #5
   80706:	f8c4 2218 	str.w	r2, [r4, #536]	; 0x218
   8070a:	6c84      	ldr	r4, [r0, #72]	; 0x48
   8070c:	f04f 1201 	mov.w	r2, #65537	; 0x10001
   80710:	409a      	lsls	r2, r3
   80712:	43d2      	mvns	r2, r2
   80714:	ea02 0504 	and.w	r5, r2, r4
   80718:	7fcc      	ldrb	r4, [r1, #31]
   8071a:	fa04 f603 	lsl.w	r6, r4, r3
   8071e:	7f8c      	ldrb	r4, [r1, #30]
   80720:	409c      	lsls	r4, r3
   80722:	ea44 4406 	orr.w	r4, r4, r6, lsl #16
   80726:	432c      	orrs	r4, r5
   80728:	6484      	str	r4, [r0, #72]	; 0x48
   8072a:	6c44      	ldr	r4, [r0, #68]	; 0x44
   8072c:	4014      	ands	r4, r2
   8072e:	f891 2021 	ldrb.w	r2, [r1, #33]	; 0x21
   80732:	fa02 f503 	lsl.w	r5, r2, r3
   80736:	f891 2020 	ldrb.w	r2, [r1, #32]
   8073a:	409a      	lsls	r2, r3
   8073c:	ea42 4205 	orr.w	r2, r2, r5, lsl #16
   80740:	4322      	orrs	r2, r4
   80742:	6442      	str	r2, [r0, #68]	; 0x44
   80744:	2201      	movs	r2, #1
   80746:	409a      	lsls	r2, r3
   80748:	f891 4022 	ldrb.w	r4, [r1, #34]	; 0x22
   8074c:	b11c      	cbz	r4, 80756 <pwm_channel_init+0x9e>
   8074e:	6a04      	ldr	r4, [r0, #32]
   80750:	4314      	orrs	r4, r2
   80752:	6204      	str	r4, [r0, #32]
   80754:	e003      	b.n	8075e <pwm_channel_init+0xa6>
   80756:	6a04      	ldr	r4, [r0, #32]
   80758:	ea24 0402 	bic.w	r4, r4, r2
   8075c:	6204      	str	r4, [r0, #32]
   8075e:	f891 4024 	ldrb.w	r4, [r1, #36]	; 0x24
   80762:	2c01      	cmp	r4, #1
   80764:	6e84      	ldr	r4, [r0, #104]	; 0x68
   80766:	bf0c      	ite	eq
   80768:	4314      	orreq	r4, r2
   8076a:	4394      	bicne	r4, r2
   8076c:	6684      	str	r4, [r0, #104]	; 0x68
   8076e:	f891 4025 	ldrb.w	r4, [r1, #37]	; 0x25
   80772:	2c01      	cmp	r4, #1
   80774:	6e84      	ldr	r4, [r0, #104]	; 0x68
   80776:	bf0c      	ite	eq
   80778:	ea44 4202 	orreq.w	r2, r4, r2, lsl #16
   8077c:	ea24 4202 	bicne.w	r2, r4, r2, lsl #16
   80780:	6682      	str	r2, [r0, #104]	; 0x68
   80782:	2b03      	cmp	r3, #3
   80784:	d80b      	bhi.n	8079e <pwm_channel_init+0xe6>
   80786:	6ec4      	ldr	r4, [r0, #108]	; 0x6c
   80788:	00dd      	lsls	r5, r3, #3
   8078a:	22ff      	movs	r2, #255	; 0xff
   8078c:	40aa      	lsls	r2, r5
   8078e:	ea24 0202 	bic.w	r2, r4, r2
   80792:	f891 3023 	ldrb.w	r3, [r1, #35]	; 0x23
   80796:	40ab      	lsls	r3, r5
   80798:	4313      	orrs	r3, r2
   8079a:	66c3      	str	r3, [r0, #108]	; 0x6c
   8079c:	e00c      	b.n	807b8 <pwm_channel_init+0x100>
   8079e:	3b04      	subs	r3, #4
   807a0:	6f02      	ldr	r2, [r0, #112]	; 0x70
   807a2:	00db      	lsls	r3, r3, #3
   807a4:	24ff      	movs	r4, #255	; 0xff
   807a6:	409c      	lsls	r4, r3
   807a8:	ea22 0404 	bic.w	r4, r2, r4
   807ac:	f891 2023 	ldrb.w	r2, [r1, #35]	; 0x23
   807b0:	fa02 f303 	lsl.w	r3, r2, r3
   807b4:	4323      	orrs	r3, r4
   807b6:	6703      	str	r3, [r0, #112]	; 0x70
   807b8:	2000      	movs	r0, #0
   807ba:	bc70      	pop	{r4, r5, r6}
   807bc:	4770      	bx	lr
   807be:	bf00      	nop

000807c0 <pwm_channel_update_duty>:
   807c0:	b410      	push	{r4}
   807c2:	680c      	ldr	r4, [r1, #0]
   807c4:	690b      	ldr	r3, [r1, #16]
   807c6:	4293      	cmp	r3, r2
   807c8:	d306      	bcc.n	807d8 <pwm_channel_update_duty+0x18>
   807ca:	60ca      	str	r2, [r1, #12]
   807cc:	eb00 1044 	add.w	r0, r0, r4, lsl #5
   807d0:	f8c0 2208 	str.w	r2, [r0, #520]	; 0x208
   807d4:	2000      	movs	r0, #0
   807d6:	e001      	b.n	807dc <pwm_channel_update_duty+0x1c>
   807d8:	f64f 70ff 	movw	r0, #65535	; 0xffff
   807dc:	f85d 4b04 	ldr.w	r4, [sp], #4
   807e0:	4770      	bx	lr
   807e2:	bf00      	nop

000807e4 <pwm_channel_enable>:
   807e4:	2301      	movs	r3, #1
   807e6:	408b      	lsls	r3, r1
   807e8:	6043      	str	r3, [r0, #4]
   807ea:	4770      	bx	lr

000807ec <pwm_channel_disable>:
   807ec:	2301      	movs	r3, #1
   807ee:	408b      	lsls	r3, r1
   807f0:	6083      	str	r3, [r0, #8]
   807f2:	4770      	bx	lr

000807f4 <tc_init>:
   807f4:	b410      	push	{r4}
   807f6:	0189      	lsls	r1, r1, #6
   807f8:	1843      	adds	r3, r0, r1
   807fa:	2402      	movs	r4, #2
   807fc:	5044      	str	r4, [r0, r1]
   807fe:	f04f 31ff 	mov.w	r1, #4294967295
   80802:	6299      	str	r1, [r3, #40]	; 0x28
   80804:	6a19      	ldr	r1, [r3, #32]
   80806:	605a      	str	r2, [r3, #4]
   80808:	f85d 4b04 	ldr.w	r4, [sp], #4
   8080c:	4770      	bx	lr
   8080e:	bf00      	nop

00080810 <tc_set_block_mode>:
   80810:	f8c0 10c4 	str.w	r1, [r0, #196]	; 0xc4
   80814:	4770      	bx	lr
   80816:	bf00      	nop

00080818 <tc_start>:
   80818:	0189      	lsls	r1, r1, #6
   8081a:	2305      	movs	r3, #5
   8081c:	5043      	str	r3, [r0, r1]
   8081e:	4770      	bx	lr

00080820 <tc_stop>:
   80820:	0189      	lsls	r1, r1, #6
   80822:	2302      	movs	r3, #2
   80824:	5043      	str	r3, [r0, r1]
   80826:	4770      	bx	lr

00080828 <tc_read_cv>:
   80828:	eb00 1181 	add.w	r1, r0, r1, lsl #6
   8082c:	6908      	ldr	r0, [r1, #16]
   8082e:	4770      	bx	lr

00080830 <tc_write_rc>:
   80830:	eb00 1181 	add.w	r1, r0, r1, lsl #6
   80834:	61ca      	str	r2, [r1, #28]
   80836:	4770      	bx	lr

00080838 <tc_enable_interrupt>:
   80838:	eb00 1181 	add.w	r1, r0, r1, lsl #6
   8083c:	624a      	str	r2, [r1, #36]	; 0x24
   8083e:	4770      	bx	lr

00080840 <tc_get_status>:
   80840:	eb00 1181 	add.w	r1, r0, r1, lsl #6
   80844:	6a08      	ldr	r0, [r1, #32]
   80846:	4770      	bx	lr

00080848 <vListInitialise>:
   80848:	f100 0308 	add.w	r3, r0, #8
   8084c:	6043      	str	r3, [r0, #4]
   8084e:	f04f 32ff 	mov.w	r2, #4294967295
   80852:	6082      	str	r2, [r0, #8]
   80854:	60c3      	str	r3, [r0, #12]
   80856:	6103      	str	r3, [r0, #16]
   80858:	2300      	movs	r3, #0
   8085a:	6003      	str	r3, [r0, #0]
   8085c:	4770      	bx	lr
   8085e:	bf00      	nop

00080860 <vListInitialiseItem>:
   80860:	2300      	movs	r3, #0
   80862:	6103      	str	r3, [r0, #16]
   80864:	4770      	bx	lr
   80866:	bf00      	nop

00080868 <vListInsertEnd>:
   80868:	6843      	ldr	r3, [r0, #4]
   8086a:	685a      	ldr	r2, [r3, #4]
   8086c:	604a      	str	r2, [r1, #4]
   8086e:	6842      	ldr	r2, [r0, #4]
   80870:	608a      	str	r2, [r1, #8]
   80872:	685a      	ldr	r2, [r3, #4]
   80874:	6091      	str	r1, [r2, #8]
   80876:	6059      	str	r1, [r3, #4]
   80878:	6041      	str	r1, [r0, #4]
   8087a:	6108      	str	r0, [r1, #16]
   8087c:	6803      	ldr	r3, [r0, #0]
   8087e:	3301      	adds	r3, #1
   80880:	6003      	str	r3, [r0, #0]
   80882:	4770      	bx	lr

00080884 <vListInsert>:
   80884:	b410      	push	{r4}
   80886:	680c      	ldr	r4, [r1, #0]
   80888:	f1b4 3fff 	cmp.w	r4, #4294967295
   8088c:	d101      	bne.n	80892 <vListInsert+0xe>
   8088e:	6903      	ldr	r3, [r0, #16]
   80890:	e00a      	b.n	808a8 <vListInsert+0x24>
   80892:	f100 0308 	add.w	r3, r0, #8
   80896:	68c2      	ldr	r2, [r0, #12]
   80898:	6812      	ldr	r2, [r2, #0]
   8089a:	4294      	cmp	r4, r2
   8089c:	d304      	bcc.n	808a8 <vListInsert+0x24>
   8089e:	685b      	ldr	r3, [r3, #4]
   808a0:	685a      	ldr	r2, [r3, #4]
   808a2:	6812      	ldr	r2, [r2, #0]
   808a4:	4294      	cmp	r4, r2
   808a6:	d2fa      	bcs.n	8089e <vListInsert+0x1a>
   808a8:	685a      	ldr	r2, [r3, #4]
   808aa:	604a      	str	r2, [r1, #4]
   808ac:	6091      	str	r1, [r2, #8]
   808ae:	608b      	str	r3, [r1, #8]
   808b0:	6059      	str	r1, [r3, #4]
   808b2:	6108      	str	r0, [r1, #16]
   808b4:	6803      	ldr	r3, [r0, #0]
   808b6:	3301      	adds	r3, #1
   808b8:	6003      	str	r3, [r0, #0]
   808ba:	f85d 4b04 	ldr.w	r4, [sp], #4
   808be:	4770      	bx	lr

000808c0 <uxListRemove>:
   808c0:	6843      	ldr	r3, [r0, #4]
   808c2:	6882      	ldr	r2, [r0, #8]
   808c4:	609a      	str	r2, [r3, #8]
   808c6:	6883      	ldr	r3, [r0, #8]
   808c8:	6842      	ldr	r2, [r0, #4]
   808ca:	605a      	str	r2, [r3, #4]
   808cc:	6903      	ldr	r3, [r0, #16]
   808ce:	685a      	ldr	r2, [r3, #4]
   808d0:	4282      	cmp	r2, r0
   808d2:	bf04      	itt	eq
   808d4:	6882      	ldreq	r2, [r0, #8]
   808d6:	605a      	streq	r2, [r3, #4]
   808d8:	2200      	movs	r2, #0
   808da:	6102      	str	r2, [r0, #16]
   808dc:	681a      	ldr	r2, [r3, #0]
   808de:	3a01      	subs	r2, #1
   808e0:	601a      	str	r2, [r3, #0]
   808e2:	6818      	ldr	r0, [r3, #0]
   808e4:	4770      	bx	lr
   808e6:	bf00      	nop

000808e8 <prvPortStartFirstTask>:
   808e8:	4803      	ldr	r0, [pc, #12]	; (808f8 <prvPortStartFirstTask+0x10>)
   808ea:	6800      	ldr	r0, [r0, #0]
   808ec:	6800      	ldr	r0, [r0, #0]
   808ee:	f380 8808 	msr	MSP, r0
   808f2:	b662      	cpsie	i
   808f4:	df00      	svc	0
   808f6:	bf00      	nop
   808f8:	e000ed08 	.word	0xe000ed08

000808fc <pxPortInitialiseStack>:
   808fc:	f04f 7380 	mov.w	r3, #16777216	; 0x1000000
   80900:	f840 3c04 	str.w	r3, [r0, #-4]
   80904:	f840 1c08 	str.w	r1, [r0, #-8]
   80908:	2300      	movs	r3, #0
   8090a:	f840 3c0c 	str.w	r3, [r0, #-12]
   8090e:	f840 2c20 	str.w	r2, [r0, #-32]
   80912:	3840      	subs	r0, #64	; 0x40
   80914:	4770      	bx	lr
   80916:	bf00      	nop

00080918 <SVC_Handler>:
   80918:	4b06      	ldr	r3, [pc, #24]	; (80934 <pxCurrentTCBConst2>)
   8091a:	6819      	ldr	r1, [r3, #0]
   8091c:	6808      	ldr	r0, [r1, #0]
   8091e:	e8b0 0ff0 	ldmia.w	r0!, {r4, r5, r6, r7, r8, r9, sl, fp}
   80922:	f380 8809 	msr	PSP, r0
   80926:	f04f 0000 	mov.w	r0, #0
   8092a:	f380 8811 	msr	BASEPRI, r0
   8092e:	f04e 0e0d 	orr.w	lr, lr, #13
   80932:	4770      	bx	lr

00080934 <pxCurrentTCBConst2>:
   80934:	2007ab28 	.word	0x2007ab28

00080938 <vPortYieldFromISR>:
   80938:	f04f 5280 	mov.w	r2, #268435456	; 0x10000000
   8093c:	4b01      	ldr	r3, [pc, #4]	; (80944 <vPortYieldFromISR+0xc>)
   8093e:	601a      	str	r2, [r3, #0]
   80940:	4770      	bx	lr
   80942:	bf00      	nop
   80944:	e000ed04 	.word	0xe000ed04

00080948 <ulPortSetInterruptMask>:
   80948:	f3ef 8011 	mrs	r0, BASEPRI
   8094c:	f04f 01a0 	mov.w	r1, #160	; 0xa0
   80950:	f381 8811 	msr	BASEPRI, r1
   80954:	4770      	bx	lr
   80956:	2000      	movs	r0, #0

00080958 <vPortEnterCritical>:
   80958:	b508      	push	{r3, lr}
   8095a:	4b03      	ldr	r3, [pc, #12]	; (80968 <vPortEnterCritical+0x10>)
   8095c:	4798      	blx	r3
   8095e:	4a03      	ldr	r2, [pc, #12]	; (8096c <vPortEnterCritical+0x14>)
   80960:	6813      	ldr	r3, [r2, #0]
   80962:	3301      	adds	r3, #1
   80964:	6013      	str	r3, [r2, #0]
   80966:	bd08      	pop	{r3, pc}
   80968:	00080949 	.word	0x00080949
   8096c:	2007014c 	.word	0x2007014c

00080970 <vPortClearInterruptMask>:
   80970:	f380 8811 	msr	BASEPRI, r0
   80974:	4770      	bx	lr
   80976:	bf00      	nop

00080978 <vPortExitCritical>:
   80978:	b508      	push	{r3, lr}
   8097a:	4a04      	ldr	r2, [pc, #16]	; (8098c <vPortExitCritical+0x14>)
   8097c:	6813      	ldr	r3, [r2, #0]
   8097e:	3b01      	subs	r3, #1
   80980:	6013      	str	r3, [r2, #0]
   80982:	b913      	cbnz	r3, 8098a <vPortExitCritical+0x12>
   80984:	2000      	movs	r0, #0
   80986:	4b02      	ldr	r3, [pc, #8]	; (80990 <vPortExitCritical+0x18>)
   80988:	4798      	blx	r3
   8098a:	bd08      	pop	{r3, pc}
   8098c:	2007014c 	.word	0x2007014c
   80990:	00080971 	.word	0x00080971

00080994 <PendSV_Handler>:
   80994:	f3ef 8009 	mrs	r0, PSP
   80998:	4b0c      	ldr	r3, [pc, #48]	; (809cc <pxCurrentTCBConst>)
   8099a:	681a      	ldr	r2, [r3, #0]
   8099c:	e920 0ff0 	stmdb	r0!, {r4, r5, r6, r7, r8, r9, sl, fp}
   809a0:	6010      	str	r0, [r2, #0]
   809a2:	e92d 4008 	stmdb	sp!, {r3, lr}
   809a6:	f04f 00a0 	mov.w	r0, #160	; 0xa0
   809aa:	f380 8811 	msr	BASEPRI, r0
   809ae:	f000 fed7 	bl	81760 <vTaskSwitchContext>
   809b2:	f04f 0000 	mov.w	r0, #0
   809b6:	f380 8811 	msr	BASEPRI, r0
   809ba:	e8bd 4008 	ldmia.w	sp!, {r3, lr}
   809be:	6819      	ldr	r1, [r3, #0]
   809c0:	6808      	ldr	r0, [r1, #0]
   809c2:	e8b0 0ff0 	ldmia.w	r0!, {r4, r5, r6, r7, r8, r9, sl, fp}
   809c6:	f380 8809 	msr	PSP, r0
   809ca:	4770      	bx	lr

000809cc <pxCurrentTCBConst>:
   809cc:	2007ab28 	.word	0x2007ab28

000809d0 <SysTick_Handler>:
   809d0:	b508      	push	{r3, lr}
   809d2:	f04f 5280 	mov.w	r2, #268435456	; 0x10000000
   809d6:	4b05      	ldr	r3, [pc, #20]	; (809ec <SysTick_Handler+0x1c>)
   809d8:	601a      	str	r2, [r3, #0]
   809da:	4b05      	ldr	r3, [pc, #20]	; (809f0 <SysTick_Handler+0x20>)
   809dc:	4798      	blx	r3
   809de:	4b05      	ldr	r3, [pc, #20]	; (809f4 <SysTick_Handler+0x24>)
   809e0:	4798      	blx	r3
   809e2:	2000      	movs	r0, #0
   809e4:	4b04      	ldr	r3, [pc, #16]	; (809f8 <SysTick_Handler+0x28>)
   809e6:	4798      	blx	r3
   809e8:	bd08      	pop	{r3, pc}
   809ea:	bf00      	nop
   809ec:	e000ed04 	.word	0xe000ed04
   809f0:	00080949 	.word	0x00080949
   809f4:	000813e1 	.word	0x000813e1
   809f8:	00080971 	.word	0x00080971

000809fc <vPortSetupTimerInterrupt>:
   809fc:	4a03      	ldr	r2, [pc, #12]	; (80a0c <vPortSetupTimerInterrupt+0x10>)
   809fe:	4b04      	ldr	r3, [pc, #16]	; (80a10 <vPortSetupTimerInterrupt+0x14>)
   80a00:	601a      	str	r2, [r3, #0]
   80a02:	2207      	movs	r2, #7
   80a04:	3b04      	subs	r3, #4
   80a06:	601a      	str	r2, [r3, #0]
   80a08:	4770      	bx	lr
   80a0a:	bf00      	nop
   80a0c:	0001481f 	.word	0x0001481f
   80a10:	e000e014 	.word	0xe000e014

00080a14 <xPortStartScheduler>:
   80a14:	b510      	push	{r4, lr}
   80a16:	4b09      	ldr	r3, [pc, #36]	; (80a3c <xPortStartScheduler+0x28>)
   80a18:	681a      	ldr	r2, [r3, #0]
   80a1a:	f442 0270 	orr.w	r2, r2, #15728640	; 0xf00000
   80a1e:	601a      	str	r2, [r3, #0]
   80a20:	681a      	ldr	r2, [r3, #0]
   80a22:	f042 4270 	orr.w	r2, r2, #4026531840	; 0xf0000000
   80a26:	601a      	str	r2, [r3, #0]
   80a28:	4b05      	ldr	r3, [pc, #20]	; (80a40 <xPortStartScheduler+0x2c>)
   80a2a:	4798      	blx	r3
   80a2c:	2400      	movs	r4, #0
   80a2e:	4b05      	ldr	r3, [pc, #20]	; (80a44 <xPortStartScheduler+0x30>)
   80a30:	601c      	str	r4, [r3, #0]
   80a32:	4b05      	ldr	r3, [pc, #20]	; (80a48 <xPortStartScheduler+0x34>)
   80a34:	4798      	blx	r3
   80a36:	4620      	mov	r0, r4
   80a38:	bd10      	pop	{r4, pc}
   80a3a:	bf00      	nop
   80a3c:	e000ed20 	.word	0xe000ed20
   80a40:	000809fd 	.word	0x000809fd
   80a44:	2007014c 	.word	0x2007014c
   80a48:	000808e9 	.word	0x000808e9

00080a4c <prvInsertBlockIntoFreeList>:
   80a4c:	4a13      	ldr	r2, [pc, #76]	; (80a9c <prvInsertBlockIntoFreeList+0x50>)
   80a4e:	e000      	b.n	80a52 <prvInsertBlockIntoFreeList+0x6>
   80a50:	461a      	mov	r2, r3
   80a52:	6813      	ldr	r3, [r2, #0]
   80a54:	4283      	cmp	r3, r0
   80a56:	d3fb      	bcc.n	80a50 <prvInsertBlockIntoFreeList+0x4>
   80a58:	b430      	push	{r4, r5}
   80a5a:	4611      	mov	r1, r2
   80a5c:	6854      	ldr	r4, [r2, #4]
   80a5e:	1915      	adds	r5, r2, r4
   80a60:	4285      	cmp	r5, r0
   80a62:	d103      	bne.n	80a6c <prvInsertBlockIntoFreeList+0x20>
   80a64:	6868      	ldr	r0, [r5, #4]
   80a66:	4404      	add	r4, r0
   80a68:	6054      	str	r4, [r2, #4]
   80a6a:	4610      	mov	r0, r2
   80a6c:	6842      	ldr	r2, [r0, #4]
   80a6e:	1884      	adds	r4, r0, r2
   80a70:	429c      	cmp	r4, r3
   80a72:	d10c      	bne.n	80a8e <prvInsertBlockIntoFreeList+0x42>
   80a74:	4b0a      	ldr	r3, [pc, #40]	; (80aa0 <prvInsertBlockIntoFreeList+0x54>)
   80a76:	681b      	ldr	r3, [r3, #0]
   80a78:	429c      	cmp	r4, r3
   80a7a:	d006      	beq.n	80a8a <prvInsertBlockIntoFreeList+0x3e>
   80a7c:	6863      	ldr	r3, [r4, #4]
   80a7e:	441a      	add	r2, r3
   80a80:	6042      	str	r2, [r0, #4]
   80a82:	680b      	ldr	r3, [r1, #0]
   80a84:	681b      	ldr	r3, [r3, #0]
   80a86:	6003      	str	r3, [r0, #0]
   80a88:	e002      	b.n	80a90 <prvInsertBlockIntoFreeList+0x44>
   80a8a:	6004      	str	r4, [r0, #0]
   80a8c:	e000      	b.n	80a90 <prvInsertBlockIntoFreeList+0x44>
   80a8e:	6003      	str	r3, [r0, #0]
   80a90:	4281      	cmp	r1, r0
   80a92:	bf18      	it	ne
   80a94:	6008      	strne	r0, [r1, #0]
   80a96:	bc30      	pop	{r4, r5}
   80a98:	4770      	bx	lr
   80a9a:	bf00      	nop
   80a9c:	2007aa54 	.word	0x2007aa54
   80aa0:	2007aa50 	.word	0x2007aa50

00080aa4 <pvPortMalloc>:
   80aa4:	b538      	push	{r3, r4, r5, lr}
   80aa6:	4604      	mov	r4, r0
   80aa8:	4b29      	ldr	r3, [pc, #164]	; (80b50 <pvPortMalloc+0xac>)
   80aaa:	4798      	blx	r3
   80aac:	4b29      	ldr	r3, [pc, #164]	; (80b54 <pvPortMalloc+0xb0>)
   80aae:	681b      	ldr	r3, [r3, #0]
   80ab0:	b99b      	cbnz	r3, 80ada <pvPortMalloc+0x36>
   80ab2:	4a29      	ldr	r2, [pc, #164]	; (80b58 <pvPortMalloc+0xb4>)
   80ab4:	4b29      	ldr	r3, [pc, #164]	; (80b5c <pvPortMalloc+0xb8>)
   80ab6:	6013      	str	r3, [r2, #0]
   80ab8:	2100      	movs	r1, #0
   80aba:	6051      	str	r1, [r2, #4]
   80abc:	f649 72f0 	movw	r2, #40944	; 0x9ff0
   80ac0:	1898      	adds	r0, r3, r2
   80ac2:	4d24      	ldr	r5, [pc, #144]	; (80b54 <pvPortMalloc+0xb0>)
   80ac4:	6028      	str	r0, [r5, #0]
   80ac6:	f649 75f4 	movw	r5, #40948	; 0x9ff4
   80aca:	5159      	str	r1, [r3, r5]
   80acc:	5099      	str	r1, [r3, r2]
   80ace:	605a      	str	r2, [r3, #4]
   80ad0:	6018      	str	r0, [r3, #0]
   80ad2:	4a23      	ldr	r2, [pc, #140]	; (80b60 <pvPortMalloc+0xbc>)
   80ad4:	6813      	ldr	r3, [r2, #0]
   80ad6:	3b10      	subs	r3, #16
   80ad8:	6013      	str	r3, [r2, #0]
   80ada:	2c00      	cmp	r4, #0
   80adc:	d02e      	beq.n	80b3c <pvPortMalloc+0x98>
   80ade:	f104 0210 	add.w	r2, r4, #16
   80ae2:	f012 0f07 	tst.w	r2, #7
   80ae6:	bf1c      	itt	ne
   80ae8:	f022 0207 	bicne.w	r2, r2, #7
   80aec:	3208      	addne	r2, #8
   80aee:	1e51      	subs	r1, r2, #1
   80af0:	f649 73fe 	movw	r3, #40958	; 0x9ffe
   80af4:	4299      	cmp	r1, r3
   80af6:	d823      	bhi.n	80b40 <pvPortMalloc+0x9c>
   80af8:	4917      	ldr	r1, [pc, #92]	; (80b58 <pvPortMalloc+0xb4>)
   80afa:	680c      	ldr	r4, [r1, #0]
   80afc:	e001      	b.n	80b02 <pvPortMalloc+0x5e>
   80afe:	4621      	mov	r1, r4
   80b00:	461c      	mov	r4, r3
   80b02:	6863      	ldr	r3, [r4, #4]
   80b04:	429a      	cmp	r2, r3
   80b06:	d902      	bls.n	80b0e <pvPortMalloc+0x6a>
   80b08:	6823      	ldr	r3, [r4, #0]
   80b0a:	2b00      	cmp	r3, #0
   80b0c:	d1f7      	bne.n	80afe <pvPortMalloc+0x5a>
   80b0e:	4b11      	ldr	r3, [pc, #68]	; (80b54 <pvPortMalloc+0xb0>)
   80b10:	681b      	ldr	r3, [r3, #0]
   80b12:	429c      	cmp	r4, r3
   80b14:	d016      	beq.n	80b44 <pvPortMalloc+0xa0>
   80b16:	680d      	ldr	r5, [r1, #0]
   80b18:	3510      	adds	r5, #16
   80b1a:	6823      	ldr	r3, [r4, #0]
   80b1c:	600b      	str	r3, [r1, #0]
   80b1e:	6863      	ldr	r3, [r4, #4]
   80b20:	1a9b      	subs	r3, r3, r2
   80b22:	2b20      	cmp	r3, #32
   80b24:	d904      	bls.n	80b30 <pvPortMalloc+0x8c>
   80b26:	18a0      	adds	r0, r4, r2
   80b28:	6043      	str	r3, [r0, #4]
   80b2a:	6062      	str	r2, [r4, #4]
   80b2c:	4b0d      	ldr	r3, [pc, #52]	; (80b64 <pvPortMalloc+0xc0>)
   80b2e:	4798      	blx	r3
   80b30:	4a0b      	ldr	r2, [pc, #44]	; (80b60 <pvPortMalloc+0xbc>)
   80b32:	6813      	ldr	r3, [r2, #0]
   80b34:	6861      	ldr	r1, [r4, #4]
   80b36:	1a5b      	subs	r3, r3, r1
   80b38:	6013      	str	r3, [r2, #0]
   80b3a:	e004      	b.n	80b46 <pvPortMalloc+0xa2>
   80b3c:	2500      	movs	r5, #0
   80b3e:	e002      	b.n	80b46 <pvPortMalloc+0xa2>
   80b40:	2500      	movs	r5, #0
   80b42:	e000      	b.n	80b46 <pvPortMalloc+0xa2>
   80b44:	2500      	movs	r5, #0
   80b46:	4b08      	ldr	r3, [pc, #32]	; (80b68 <pvPortMalloc+0xc4>)
   80b48:	4798      	blx	r3
   80b4a:	4628      	mov	r0, r5
   80b4c:	bd38      	pop	{r3, r4, r5, pc}
   80b4e:	bf00      	nop
   80b50:	000813b1 	.word	0x000813b1
   80b54:	2007aa50 	.word	0x2007aa50
   80b58:	2007aa54 	.word	0x2007aa54
   80b5c:	20070a50 	.word	0x20070a50
   80b60:	20070150 	.word	0x20070150
   80b64:	00080a4d 	.word	0x00080a4d
   80b68:	00081501 	.word	0x00081501

00080b6c <vPortFree>:
   80b6c:	b180      	cbz	r0, 80b90 <vPortFree+0x24>
   80b6e:	b510      	push	{r4, lr}
   80b70:	4604      	mov	r4, r0
   80b72:	4b08      	ldr	r3, [pc, #32]	; (80b94 <vPortFree+0x28>)
   80b74:	4798      	blx	r3
   80b76:	4a08      	ldr	r2, [pc, #32]	; (80b98 <vPortFree+0x2c>)
   80b78:	6811      	ldr	r1, [r2, #0]
   80b7a:	f854 3c0c 	ldr.w	r3, [r4, #-12]
   80b7e:	440b      	add	r3, r1
   80b80:	6013      	str	r3, [r2, #0]
   80b82:	f1a4 0010 	sub.w	r0, r4, #16
   80b86:	4b05      	ldr	r3, [pc, #20]	; (80b9c <vPortFree+0x30>)
   80b88:	4798      	blx	r3
   80b8a:	4b05      	ldr	r3, [pc, #20]	; (80ba0 <vPortFree+0x34>)
   80b8c:	4798      	blx	r3
   80b8e:	bd10      	pop	{r4, pc}
   80b90:	4770      	bx	lr
   80b92:	bf00      	nop
   80b94:	000813b1 	.word	0x000813b1
   80b98:	20070150 	.word	0x20070150
   80b9c:	00080a4d 	.word	0x00080a4d
   80ba0:	00081501 	.word	0x00081501

00080ba4 <prvCopyDataToQueue>:
   80ba4:	b510      	push	{r4, lr}
   80ba6:	4604      	mov	r4, r0
   80ba8:	6c03      	ldr	r3, [r0, #64]	; 0x40
   80baa:	b93b      	cbnz	r3, 80bbc <prvCopyDataToQueue+0x18>
   80bac:	6803      	ldr	r3, [r0, #0]
   80bae:	bb1b      	cbnz	r3, 80bf8 <prvCopyDataToQueue+0x54>
   80bb0:	6840      	ldr	r0, [r0, #4]
   80bb2:	4b13      	ldr	r3, [pc, #76]	; (80c00 <prvCopyDataToQueue+0x5c>)
   80bb4:	4798      	blx	r3
   80bb6:	2300      	movs	r3, #0
   80bb8:	6063      	str	r3, [r4, #4]
   80bba:	e01d      	b.n	80bf8 <prvCopyDataToQueue+0x54>
   80bbc:	b96a      	cbnz	r2, 80bda <prvCopyDataToQueue+0x36>
   80bbe:	6880      	ldr	r0, [r0, #8]
   80bc0:	461a      	mov	r2, r3
   80bc2:	4b10      	ldr	r3, [pc, #64]	; (80c04 <prvCopyDataToQueue+0x60>)
   80bc4:	4798      	blx	r3
   80bc6:	68a2      	ldr	r2, [r4, #8]
   80bc8:	6c23      	ldr	r3, [r4, #64]	; 0x40
   80bca:	4413      	add	r3, r2
   80bcc:	60a3      	str	r3, [r4, #8]
   80bce:	6862      	ldr	r2, [r4, #4]
   80bd0:	4293      	cmp	r3, r2
   80bd2:	d311      	bcc.n	80bf8 <prvCopyDataToQueue+0x54>
   80bd4:	6823      	ldr	r3, [r4, #0]
   80bd6:	60a3      	str	r3, [r4, #8]
   80bd8:	e00e      	b.n	80bf8 <prvCopyDataToQueue+0x54>
   80bda:	68c0      	ldr	r0, [r0, #12]
   80bdc:	461a      	mov	r2, r3
   80bde:	4b09      	ldr	r3, [pc, #36]	; (80c04 <prvCopyDataToQueue+0x60>)
   80be0:	4798      	blx	r3
   80be2:	6c23      	ldr	r3, [r4, #64]	; 0x40
   80be4:	425b      	negs	r3, r3
   80be6:	68e2      	ldr	r2, [r4, #12]
   80be8:	441a      	add	r2, r3
   80bea:	60e2      	str	r2, [r4, #12]
   80bec:	6821      	ldr	r1, [r4, #0]
   80bee:	428a      	cmp	r2, r1
   80bf0:	d202      	bcs.n	80bf8 <prvCopyDataToQueue+0x54>
   80bf2:	6862      	ldr	r2, [r4, #4]
   80bf4:	4413      	add	r3, r2
   80bf6:	60e3      	str	r3, [r4, #12]
   80bf8:	6ba3      	ldr	r3, [r4, #56]	; 0x38
   80bfa:	3301      	adds	r3, #1
   80bfc:	63a3      	str	r3, [r4, #56]	; 0x38
   80bfe:	bd10      	pop	{r4, pc}
   80c00:	00081a91 	.word	0x00081a91
   80c04:	00084c51 	.word	0x00084c51

00080c08 <prvCopyDataFromQueue>:
   80c08:	b538      	push	{r3, r4, r5, lr}
   80c0a:	4603      	mov	r3, r0
   80c0c:	6800      	ldr	r0, [r0, #0]
   80c0e:	b158      	cbz	r0, 80c28 <prvCopyDataFromQueue+0x20>
   80c10:	6c1a      	ldr	r2, [r3, #64]	; 0x40
   80c12:	68dc      	ldr	r4, [r3, #12]
   80c14:	4414      	add	r4, r2
   80c16:	60dc      	str	r4, [r3, #12]
   80c18:	685d      	ldr	r5, [r3, #4]
   80c1a:	42ac      	cmp	r4, r5
   80c1c:	bf28      	it	cs
   80c1e:	60d8      	strcs	r0, [r3, #12]
   80c20:	4608      	mov	r0, r1
   80c22:	68d9      	ldr	r1, [r3, #12]
   80c24:	4b01      	ldr	r3, [pc, #4]	; (80c2c <prvCopyDataFromQueue+0x24>)
   80c26:	4798      	blx	r3
   80c28:	bd38      	pop	{r3, r4, r5, pc}
   80c2a:	bf00      	nop
   80c2c:	00084c51 	.word	0x00084c51

00080c30 <prvUnlockQueue>:
   80c30:	b5f8      	push	{r3, r4, r5, r6, r7, lr}
   80c32:	4604      	mov	r4, r0
   80c34:	4b1e      	ldr	r3, [pc, #120]	; (80cb0 <prvUnlockQueue+0x80>)
   80c36:	4798      	blx	r3
   80c38:	6ca3      	ldr	r3, [r4, #72]	; 0x48
   80c3a:	2b00      	cmp	r3, #0
   80c3c:	dd13      	ble.n	80c66 <prvUnlockQueue+0x36>
   80c3e:	6a63      	ldr	r3, [r4, #36]	; 0x24
   80c40:	b91b      	cbnz	r3, 80c4a <prvUnlockQueue+0x1a>
   80c42:	e010      	b.n	80c66 <prvUnlockQueue+0x36>
   80c44:	6a63      	ldr	r3, [r4, #36]	; 0x24
   80c46:	b923      	cbnz	r3, 80c52 <prvUnlockQueue+0x22>
   80c48:	e00d      	b.n	80c66 <prvUnlockQueue+0x36>
   80c4a:	f104 0624 	add.w	r6, r4, #36	; 0x24
   80c4e:	4d19      	ldr	r5, [pc, #100]	; (80cb4 <prvUnlockQueue+0x84>)
   80c50:	4f19      	ldr	r7, [pc, #100]	; (80cb8 <prvUnlockQueue+0x88>)
   80c52:	4630      	mov	r0, r6
   80c54:	47a8      	blx	r5
   80c56:	b100      	cbz	r0, 80c5a <prvUnlockQueue+0x2a>
   80c58:	47b8      	blx	r7
   80c5a:	6ca3      	ldr	r3, [r4, #72]	; 0x48
   80c5c:	3b01      	subs	r3, #1
   80c5e:	64a3      	str	r3, [r4, #72]	; 0x48
   80c60:	6ca3      	ldr	r3, [r4, #72]	; 0x48
   80c62:	2b00      	cmp	r3, #0
   80c64:	dcee      	bgt.n	80c44 <prvUnlockQueue+0x14>
   80c66:	f04f 33ff 	mov.w	r3, #4294967295
   80c6a:	64a3      	str	r3, [r4, #72]	; 0x48
   80c6c:	4b13      	ldr	r3, [pc, #76]	; (80cbc <prvUnlockQueue+0x8c>)
   80c6e:	4798      	blx	r3
   80c70:	4b0f      	ldr	r3, [pc, #60]	; (80cb0 <prvUnlockQueue+0x80>)
   80c72:	4798      	blx	r3
   80c74:	6c63      	ldr	r3, [r4, #68]	; 0x44
   80c76:	2b00      	cmp	r3, #0
   80c78:	dd13      	ble.n	80ca2 <prvUnlockQueue+0x72>
   80c7a:	6923      	ldr	r3, [r4, #16]
   80c7c:	b91b      	cbnz	r3, 80c86 <prvUnlockQueue+0x56>
   80c7e:	e010      	b.n	80ca2 <prvUnlockQueue+0x72>
   80c80:	6923      	ldr	r3, [r4, #16]
   80c82:	b923      	cbnz	r3, 80c8e <prvUnlockQueue+0x5e>
   80c84:	e00d      	b.n	80ca2 <prvUnlockQueue+0x72>
   80c86:	f104 0610 	add.w	r6, r4, #16
   80c8a:	4d0a      	ldr	r5, [pc, #40]	; (80cb4 <prvUnlockQueue+0x84>)
   80c8c:	4f0a      	ldr	r7, [pc, #40]	; (80cb8 <prvUnlockQueue+0x88>)
   80c8e:	4630      	mov	r0, r6
   80c90:	47a8      	blx	r5
   80c92:	b100      	cbz	r0, 80c96 <prvUnlockQueue+0x66>
   80c94:	47b8      	blx	r7
   80c96:	6c63      	ldr	r3, [r4, #68]	; 0x44
   80c98:	3b01      	subs	r3, #1
   80c9a:	6463      	str	r3, [r4, #68]	; 0x44
   80c9c:	6c63      	ldr	r3, [r4, #68]	; 0x44
   80c9e:	2b00      	cmp	r3, #0
   80ca0:	dcee      	bgt.n	80c80 <prvUnlockQueue+0x50>
   80ca2:	f04f 33ff 	mov.w	r3, #4294967295
   80ca6:	6463      	str	r3, [r4, #68]	; 0x44
   80ca8:	4b04      	ldr	r3, [pc, #16]	; (80cbc <prvUnlockQueue+0x8c>)
   80caa:	4798      	blx	r3
   80cac:	bdf8      	pop	{r3, r4, r5, r6, r7, pc}
   80cae:	bf00      	nop
   80cb0:	00080959 	.word	0x00080959
   80cb4:	000818a9 	.word	0x000818a9
   80cb8:	000819d9 	.word	0x000819d9
   80cbc:	00080979 	.word	0x00080979

00080cc0 <xQueueGenericReset>:
   80cc0:	b538      	push	{r3, r4, r5, lr}
   80cc2:	b918      	cbnz	r0, 80ccc <xQueueGenericReset+0xc>
   80cc4:	4b17      	ldr	r3, [pc, #92]	; (80d24 <xQueueGenericReset+0x64>)
   80cc6:	4798      	blx	r3
   80cc8:	bf00      	nop
   80cca:	e7fd      	b.n	80cc8 <xQueueGenericReset+0x8>
   80ccc:	460d      	mov	r5, r1
   80cce:	4604      	mov	r4, r0
   80cd0:	4b15      	ldr	r3, [pc, #84]	; (80d28 <xQueueGenericReset+0x68>)
   80cd2:	4798      	blx	r3
   80cd4:	6822      	ldr	r2, [r4, #0]
   80cd6:	6c21      	ldr	r1, [r4, #64]	; 0x40
   80cd8:	6be3      	ldr	r3, [r4, #60]	; 0x3c
   80cda:	fb03 f301 	mul.w	r3, r3, r1
   80cde:	18d0      	adds	r0, r2, r3
   80ce0:	6060      	str	r0, [r4, #4]
   80ce2:	2000      	movs	r0, #0
   80ce4:	63a0      	str	r0, [r4, #56]	; 0x38
   80ce6:	60a2      	str	r2, [r4, #8]
   80ce8:	1a5b      	subs	r3, r3, r1
   80cea:	4413      	add	r3, r2
   80cec:	60e3      	str	r3, [r4, #12]
   80cee:	f04f 33ff 	mov.w	r3, #4294967295
   80cf2:	6463      	str	r3, [r4, #68]	; 0x44
   80cf4:	64a3      	str	r3, [r4, #72]	; 0x48
   80cf6:	b955      	cbnz	r5, 80d0e <xQueueGenericReset+0x4e>
   80cf8:	6923      	ldr	r3, [r4, #16]
   80cfa:	b17b      	cbz	r3, 80d1c <xQueueGenericReset+0x5c>
   80cfc:	f104 0010 	add.w	r0, r4, #16
   80d00:	4b0a      	ldr	r3, [pc, #40]	; (80d2c <xQueueGenericReset+0x6c>)
   80d02:	4798      	blx	r3
   80d04:	2801      	cmp	r0, #1
   80d06:	d109      	bne.n	80d1c <xQueueGenericReset+0x5c>
   80d08:	4b09      	ldr	r3, [pc, #36]	; (80d30 <xQueueGenericReset+0x70>)
   80d0a:	4798      	blx	r3
   80d0c:	e006      	b.n	80d1c <xQueueGenericReset+0x5c>
   80d0e:	f104 0010 	add.w	r0, r4, #16
   80d12:	4d08      	ldr	r5, [pc, #32]	; (80d34 <xQueueGenericReset+0x74>)
   80d14:	47a8      	blx	r5
   80d16:	f104 0024 	add.w	r0, r4, #36	; 0x24
   80d1a:	47a8      	blx	r5
   80d1c:	4b06      	ldr	r3, [pc, #24]	; (80d38 <xQueueGenericReset+0x78>)
   80d1e:	4798      	blx	r3
   80d20:	2001      	movs	r0, #1
   80d22:	bd38      	pop	{r3, r4, r5, pc}
   80d24:	00080949 	.word	0x00080949
   80d28:	00080959 	.word	0x00080959
   80d2c:	000818a9 	.word	0x000818a9
   80d30:	00080939 	.word	0x00080939
   80d34:	00080849 	.word	0x00080849
   80d38:	00080979 	.word	0x00080979

00080d3c <xQueueGenericCreate>:
   80d3c:	b5f8      	push	{r3, r4, r5, r6, r7, lr}
   80d3e:	b1a0      	cbz	r0, 80d6a <xQueueGenericCreate+0x2e>
   80d40:	460d      	mov	r5, r1
   80d42:	4617      	mov	r7, r2
   80d44:	4606      	mov	r6, r0
   80d46:	2050      	movs	r0, #80	; 0x50
   80d48:	4b0e      	ldr	r3, [pc, #56]	; (80d84 <xQueueGenericCreate+0x48>)
   80d4a:	4798      	blx	r3
   80d4c:	4604      	mov	r4, r0
   80d4e:	b160      	cbz	r0, 80d6a <xQueueGenericCreate+0x2e>
   80d50:	fb05 f006 	mul.w	r0, r5, r6
   80d54:	3001      	adds	r0, #1
   80d56:	4b0b      	ldr	r3, [pc, #44]	; (80d84 <xQueueGenericCreate+0x48>)
   80d58:	4798      	blx	r3
   80d5a:	6020      	str	r0, [r4, #0]
   80d5c:	b940      	cbnz	r0, 80d70 <xQueueGenericCreate+0x34>
   80d5e:	4620      	mov	r0, r4
   80d60:	4b09      	ldr	r3, [pc, #36]	; (80d88 <xQueueGenericCreate+0x4c>)
   80d62:	4798      	blx	r3
   80d64:	e001      	b.n	80d6a <xQueueGenericCreate+0x2e>
   80d66:	bf00      	nop
   80d68:	e7fd      	b.n	80d66 <xQueueGenericCreate+0x2a>
   80d6a:	4b08      	ldr	r3, [pc, #32]	; (80d8c <xQueueGenericCreate+0x50>)
   80d6c:	4798      	blx	r3
   80d6e:	e7fa      	b.n	80d66 <xQueueGenericCreate+0x2a>
   80d70:	63e6      	str	r6, [r4, #60]	; 0x3c
   80d72:	6425      	str	r5, [r4, #64]	; 0x40
   80d74:	4620      	mov	r0, r4
   80d76:	2101      	movs	r1, #1
   80d78:	4b05      	ldr	r3, [pc, #20]	; (80d90 <xQueueGenericCreate+0x54>)
   80d7a:	4798      	blx	r3
   80d7c:	f884 704d 	strb.w	r7, [r4, #77]	; 0x4d
   80d80:	4620      	mov	r0, r4
   80d82:	bdf8      	pop	{r3, r4, r5, r6, r7, pc}
   80d84:	00080aa5 	.word	0x00080aa5
   80d88:	00080b6d 	.word	0x00080b6d
   80d8c:	00080949 	.word	0x00080949
   80d90:	00080cc1 	.word	0x00080cc1

00080d94 <xQueueGenericSend>:
   80d94:	e92d 4ff0 	stmdb	sp!, {r4, r5, r6, r7, r8, r9, sl, fp, lr}
   80d98:	b085      	sub	sp, #20
   80d9a:	9201      	str	r2, [sp, #4]
   80d9c:	9300      	str	r3, [sp, #0]
   80d9e:	b918      	cbnz	r0, 80da8 <xQueueGenericSend+0x14>
   80da0:	4b38      	ldr	r3, [pc, #224]	; (80e84 <xQueueGenericSend+0xf0>)
   80da2:	4798      	blx	r3
   80da4:	bf00      	nop
   80da6:	e7fd      	b.n	80da4 <xQueueGenericSend+0x10>
   80da8:	468a      	mov	sl, r1
   80daa:	4604      	mov	r4, r0
   80dac:	b929      	cbnz	r1, 80dba <xQueueGenericSend+0x26>
   80dae:	6c03      	ldr	r3, [r0, #64]	; 0x40
   80db0:	b12b      	cbz	r3, 80dbe <xQueueGenericSend+0x2a>
   80db2:	4b34      	ldr	r3, [pc, #208]	; (80e84 <xQueueGenericSend+0xf0>)
   80db4:	4798      	blx	r3
   80db6:	bf00      	nop
   80db8:	e7fd      	b.n	80db6 <xQueueGenericSend+0x22>
   80dba:	2700      	movs	r7, #0
   80dbc:	e000      	b.n	80dc0 <xQueueGenericSend+0x2c>
   80dbe:	2700      	movs	r7, #0
   80dc0:	4e31      	ldr	r6, [pc, #196]	; (80e88 <xQueueGenericSend+0xf4>)
   80dc2:	f8df b0ec 	ldr.w	fp, [pc, #236]	; 80eb0 <xQueueGenericSend+0x11c>
   80dc6:	4d31      	ldr	r5, [pc, #196]	; (80e8c <xQueueGenericSend+0xf8>)
   80dc8:	47b0      	blx	r6
   80dca:	6ba2      	ldr	r2, [r4, #56]	; 0x38
   80dcc:	6be3      	ldr	r3, [r4, #60]	; 0x3c
   80dce:	429a      	cmp	r2, r3
   80dd0:	d212      	bcs.n	80df8 <xQueueGenericSend+0x64>
   80dd2:	4620      	mov	r0, r4
   80dd4:	4651      	mov	r1, sl
   80dd6:	9a00      	ldr	r2, [sp, #0]
   80dd8:	4b2d      	ldr	r3, [pc, #180]	; (80e90 <xQueueGenericSend+0xfc>)
   80dda:	4798      	blx	r3
   80ddc:	6a63      	ldr	r3, [r4, #36]	; 0x24
   80dde:	b13b      	cbz	r3, 80df0 <xQueueGenericSend+0x5c>
   80de0:	f104 0024 	add.w	r0, r4, #36	; 0x24
   80de4:	4b2b      	ldr	r3, [pc, #172]	; (80e94 <xQueueGenericSend+0x100>)
   80de6:	4798      	blx	r3
   80de8:	2801      	cmp	r0, #1
   80dea:	d101      	bne.n	80df0 <xQueueGenericSend+0x5c>
   80dec:	4b2a      	ldr	r3, [pc, #168]	; (80e98 <xQueueGenericSend+0x104>)
   80dee:	4798      	blx	r3
   80df0:	4b26      	ldr	r3, [pc, #152]	; (80e8c <xQueueGenericSend+0xf8>)
   80df2:	4798      	blx	r3
   80df4:	2001      	movs	r0, #1
   80df6:	e042      	b.n	80e7e <xQueueGenericSend+0xea>
   80df8:	9b01      	ldr	r3, [sp, #4]
   80dfa:	b91b      	cbnz	r3, 80e04 <xQueueGenericSend+0x70>
   80dfc:	4b23      	ldr	r3, [pc, #140]	; (80e8c <xQueueGenericSend+0xf8>)
   80dfe:	4798      	blx	r3
   80e00:	2000      	movs	r0, #0
   80e02:	e03c      	b.n	80e7e <xQueueGenericSend+0xea>
   80e04:	b917      	cbnz	r7, 80e0c <xQueueGenericSend+0x78>
   80e06:	a802      	add	r0, sp, #8
   80e08:	47d8      	blx	fp
   80e0a:	2701      	movs	r7, #1
   80e0c:	47a8      	blx	r5
   80e0e:	4b23      	ldr	r3, [pc, #140]	; (80e9c <xQueueGenericSend+0x108>)
   80e10:	4798      	blx	r3
   80e12:	47b0      	blx	r6
   80e14:	6c63      	ldr	r3, [r4, #68]	; 0x44
   80e16:	f1b3 3fff 	cmp.w	r3, #4294967295
   80e1a:	bf04      	itt	eq
   80e1c:	2300      	moveq	r3, #0
   80e1e:	6463      	streq	r3, [r4, #68]	; 0x44
   80e20:	6ca3      	ldr	r3, [r4, #72]	; 0x48
   80e22:	f1b3 3fff 	cmp.w	r3, #4294967295
   80e26:	bf04      	itt	eq
   80e28:	2300      	moveq	r3, #0
   80e2a:	64a3      	streq	r3, [r4, #72]	; 0x48
   80e2c:	47a8      	blx	r5
   80e2e:	a802      	add	r0, sp, #8
   80e30:	a901      	add	r1, sp, #4
   80e32:	4b1b      	ldr	r3, [pc, #108]	; (80ea0 <xQueueGenericSend+0x10c>)
   80e34:	4798      	blx	r3
   80e36:	b9e0      	cbnz	r0, 80e72 <xQueueGenericSend+0xde>
   80e38:	47b0      	blx	r6
   80e3a:	f8d4 9038 	ldr.w	r9, [r4, #56]	; 0x38
   80e3e:	f8d4 803c 	ldr.w	r8, [r4, #60]	; 0x3c
   80e42:	47a8      	blx	r5
   80e44:	45c1      	cmp	r9, r8
   80e46:	d10e      	bne.n	80e66 <xQueueGenericSend+0xd2>
   80e48:	f104 0010 	add.w	r0, r4, #16
   80e4c:	9901      	ldr	r1, [sp, #4]
   80e4e:	4b15      	ldr	r3, [pc, #84]	; (80ea4 <xQueueGenericSend+0x110>)
   80e50:	4798      	blx	r3
   80e52:	4620      	mov	r0, r4
   80e54:	4b14      	ldr	r3, [pc, #80]	; (80ea8 <xQueueGenericSend+0x114>)
   80e56:	4798      	blx	r3
   80e58:	4b14      	ldr	r3, [pc, #80]	; (80eac <xQueueGenericSend+0x118>)
   80e5a:	4798      	blx	r3
   80e5c:	2800      	cmp	r0, #0
   80e5e:	d1b3      	bne.n	80dc8 <xQueueGenericSend+0x34>
   80e60:	4b0d      	ldr	r3, [pc, #52]	; (80e98 <xQueueGenericSend+0x104>)
   80e62:	4798      	blx	r3
   80e64:	e7b0      	b.n	80dc8 <xQueueGenericSend+0x34>
   80e66:	4620      	mov	r0, r4
   80e68:	4b0f      	ldr	r3, [pc, #60]	; (80ea8 <xQueueGenericSend+0x114>)
   80e6a:	4798      	blx	r3
   80e6c:	4b0f      	ldr	r3, [pc, #60]	; (80eac <xQueueGenericSend+0x118>)
   80e6e:	4798      	blx	r3
   80e70:	e7aa      	b.n	80dc8 <xQueueGenericSend+0x34>
   80e72:	4620      	mov	r0, r4
   80e74:	4b0c      	ldr	r3, [pc, #48]	; (80ea8 <xQueueGenericSend+0x114>)
   80e76:	4798      	blx	r3
   80e78:	4b0c      	ldr	r3, [pc, #48]	; (80eac <xQueueGenericSend+0x118>)
   80e7a:	4798      	blx	r3
   80e7c:	2000      	movs	r0, #0
   80e7e:	b005      	add	sp, #20
   80e80:	e8bd 8ff0 	ldmia.w	sp!, {r4, r5, r6, r7, r8, r9, sl, fp, pc}
   80e84:	00080949 	.word	0x00080949
   80e88:	00080959 	.word	0x00080959
   80e8c:	00080979 	.word	0x00080979
   80e90:	00080ba5 	.word	0x00080ba5
   80e94:	000818a9 	.word	0x000818a9
   80e98:	00080939 	.word	0x00080939
   80e9c:	000813b1 	.word	0x000813b1
   80ea0:	00081955 	.word	0x00081955
   80ea4:	00081805 	.word	0x00081805
   80ea8:	00080c31 	.word	0x00080c31
   80eac:	00081501 	.word	0x00081501
   80eb0:	0008192d 	.word	0x0008192d

00080eb4 <xQueueGenericSendFromISR>:
   80eb4:	e92d 41f0 	stmdb	sp!, {r4, r5, r6, r7, r8, lr}
   80eb8:	b918      	cbnz	r0, 80ec2 <xQueueGenericSendFromISR+0xe>
   80eba:	4b1e      	ldr	r3, [pc, #120]	; (80f34 <xQueueGenericSendFromISR+0x80>)
   80ebc:	4798      	blx	r3
   80ebe:	bf00      	nop
   80ec0:	e7fd      	b.n	80ebe <xQueueGenericSendFromISR+0xa>
   80ec2:	460e      	mov	r6, r1
   80ec4:	4615      	mov	r5, r2
   80ec6:	4698      	mov	r8, r3
   80ec8:	4604      	mov	r4, r0
   80eca:	b929      	cbnz	r1, 80ed8 <xQueueGenericSendFromISR+0x24>
   80ecc:	6c03      	ldr	r3, [r0, #64]	; 0x40
   80ece:	b11b      	cbz	r3, 80ed8 <xQueueGenericSendFromISR+0x24>
   80ed0:	4b18      	ldr	r3, [pc, #96]	; (80f34 <xQueueGenericSendFromISR+0x80>)
   80ed2:	4798      	blx	r3
   80ed4:	bf00      	nop
   80ed6:	e7fd      	b.n	80ed4 <xQueueGenericSendFromISR+0x20>
   80ed8:	4b16      	ldr	r3, [pc, #88]	; (80f34 <xQueueGenericSendFromISR+0x80>)
   80eda:	4798      	blx	r3
   80edc:	4607      	mov	r7, r0
   80ede:	6ba2      	ldr	r2, [r4, #56]	; 0x38
   80ee0:	6be3      	ldr	r3, [r4, #60]	; 0x3c
   80ee2:	429a      	cmp	r2, r3
   80ee4:	d218      	bcs.n	80f18 <xQueueGenericSendFromISR+0x64>
   80ee6:	4620      	mov	r0, r4
   80ee8:	4631      	mov	r1, r6
   80eea:	4642      	mov	r2, r8
   80eec:	4b12      	ldr	r3, [pc, #72]	; (80f38 <xQueueGenericSendFromISR+0x84>)
   80eee:	4798      	blx	r3
   80ef0:	6ca3      	ldr	r3, [r4, #72]	; 0x48
   80ef2:	f1b3 3fff 	cmp.w	r3, #4294967295
   80ef6:	d10a      	bne.n	80f0e <xQueueGenericSendFromISR+0x5a>
   80ef8:	6a63      	ldr	r3, [r4, #36]	; 0x24
   80efa:	b17b      	cbz	r3, 80f1c <xQueueGenericSendFromISR+0x68>
   80efc:	f104 0024 	add.w	r0, r4, #36	; 0x24
   80f00:	4b0e      	ldr	r3, [pc, #56]	; (80f3c <xQueueGenericSendFromISR+0x88>)
   80f02:	4798      	blx	r3
   80f04:	b160      	cbz	r0, 80f20 <xQueueGenericSendFromISR+0x6c>
   80f06:	b16d      	cbz	r5, 80f24 <xQueueGenericSendFromISR+0x70>
   80f08:	2401      	movs	r4, #1
   80f0a:	602c      	str	r4, [r5, #0]
   80f0c:	e00b      	b.n	80f26 <xQueueGenericSendFromISR+0x72>
   80f0e:	6ca3      	ldr	r3, [r4, #72]	; 0x48
   80f10:	3301      	adds	r3, #1
   80f12:	64a3      	str	r3, [r4, #72]	; 0x48
   80f14:	2401      	movs	r4, #1
   80f16:	e006      	b.n	80f26 <xQueueGenericSendFromISR+0x72>
   80f18:	2400      	movs	r4, #0
   80f1a:	e004      	b.n	80f26 <xQueueGenericSendFromISR+0x72>
   80f1c:	2401      	movs	r4, #1
   80f1e:	e002      	b.n	80f26 <xQueueGenericSendFromISR+0x72>
   80f20:	2401      	movs	r4, #1
   80f22:	e000      	b.n	80f26 <xQueueGenericSendFromISR+0x72>
   80f24:	2401      	movs	r4, #1
   80f26:	4638      	mov	r0, r7
   80f28:	4b05      	ldr	r3, [pc, #20]	; (80f40 <xQueueGenericSendFromISR+0x8c>)
   80f2a:	4798      	blx	r3
   80f2c:	4620      	mov	r0, r4
   80f2e:	e8bd 81f0 	ldmia.w	sp!, {r4, r5, r6, r7, r8, pc}
   80f32:	bf00      	nop
   80f34:	00080949 	.word	0x00080949
   80f38:	00080ba5 	.word	0x00080ba5
   80f3c:	000818a9 	.word	0x000818a9
   80f40:	00080971 	.word	0x00080971

00080f44 <xQueueGenericReceive>:
   80f44:	e92d 4ff0 	stmdb	sp!, {r4, r5, r6, r7, r8, r9, sl, fp, lr}
   80f48:	b085      	sub	sp, #20
   80f4a:	9201      	str	r2, [sp, #4]
   80f4c:	b918      	cbnz	r0, 80f56 <xQueueGenericReceive+0x12>
   80f4e:	4b46      	ldr	r3, [pc, #280]	; (81068 <xQueueGenericReceive+0x124>)
   80f50:	4798      	blx	r3
   80f52:	bf00      	nop
   80f54:	e7fd      	b.n	80f52 <xQueueGenericReceive+0xe>
   80f56:	4689      	mov	r9, r1
   80f58:	469a      	mov	sl, r3
   80f5a:	4604      	mov	r4, r0
   80f5c:	b929      	cbnz	r1, 80f6a <xQueueGenericReceive+0x26>
   80f5e:	6c03      	ldr	r3, [r0, #64]	; 0x40
   80f60:	b12b      	cbz	r3, 80f6e <xQueueGenericReceive+0x2a>
   80f62:	4b41      	ldr	r3, [pc, #260]	; (81068 <xQueueGenericReceive+0x124>)
   80f64:	4798      	blx	r3
   80f66:	bf00      	nop
   80f68:	e7fd      	b.n	80f66 <xQueueGenericReceive+0x22>
   80f6a:	2700      	movs	r7, #0
   80f6c:	e000      	b.n	80f70 <xQueueGenericReceive+0x2c>
   80f6e:	2700      	movs	r7, #0
   80f70:	4e3e      	ldr	r6, [pc, #248]	; (8106c <xQueueGenericReceive+0x128>)
   80f72:	f8df b128 	ldr.w	fp, [pc, #296]	; 8109c <xQueueGenericReceive+0x158>
   80f76:	4d3e      	ldr	r5, [pc, #248]	; (81070 <xQueueGenericReceive+0x12c>)
   80f78:	47b0      	blx	r6
   80f7a:	6ba3      	ldr	r3, [r4, #56]	; 0x38
   80f7c:	b343      	cbz	r3, 80fd0 <xQueueGenericReceive+0x8c>
   80f7e:	68e5      	ldr	r5, [r4, #12]
   80f80:	4620      	mov	r0, r4
   80f82:	4649      	mov	r1, r9
   80f84:	4b3b      	ldr	r3, [pc, #236]	; (81074 <xQueueGenericReceive+0x130>)
   80f86:	4798      	blx	r3
   80f88:	f1ba 0f00 	cmp.w	sl, #0
   80f8c:	d112      	bne.n	80fb4 <xQueueGenericReceive+0x70>
   80f8e:	6ba3      	ldr	r3, [r4, #56]	; 0x38
   80f90:	3b01      	subs	r3, #1
   80f92:	63a3      	str	r3, [r4, #56]	; 0x38
   80f94:	6823      	ldr	r3, [r4, #0]
   80f96:	b913      	cbnz	r3, 80f9e <xQueueGenericReceive+0x5a>
   80f98:	4b37      	ldr	r3, [pc, #220]	; (81078 <xQueueGenericReceive+0x134>)
   80f9a:	4798      	blx	r3
   80f9c:	6060      	str	r0, [r4, #4]
   80f9e:	6923      	ldr	r3, [r4, #16]
   80fa0:	b193      	cbz	r3, 80fc8 <xQueueGenericReceive+0x84>
   80fa2:	f104 0010 	add.w	r0, r4, #16
   80fa6:	4b35      	ldr	r3, [pc, #212]	; (8107c <xQueueGenericReceive+0x138>)
   80fa8:	4798      	blx	r3
   80faa:	2801      	cmp	r0, #1
   80fac:	d10c      	bne.n	80fc8 <xQueueGenericReceive+0x84>
   80fae:	4b34      	ldr	r3, [pc, #208]	; (81080 <xQueueGenericReceive+0x13c>)
   80fb0:	4798      	blx	r3
   80fb2:	e009      	b.n	80fc8 <xQueueGenericReceive+0x84>
   80fb4:	60e5      	str	r5, [r4, #12]
   80fb6:	6a63      	ldr	r3, [r4, #36]	; 0x24
   80fb8:	b133      	cbz	r3, 80fc8 <xQueueGenericReceive+0x84>
   80fba:	f104 0024 	add.w	r0, r4, #36	; 0x24
   80fbe:	4b2f      	ldr	r3, [pc, #188]	; (8107c <xQueueGenericReceive+0x138>)
   80fc0:	4798      	blx	r3
   80fc2:	b108      	cbz	r0, 80fc8 <xQueueGenericReceive+0x84>
   80fc4:	4b2e      	ldr	r3, [pc, #184]	; (81080 <xQueueGenericReceive+0x13c>)
   80fc6:	4798      	blx	r3
   80fc8:	4b29      	ldr	r3, [pc, #164]	; (81070 <xQueueGenericReceive+0x12c>)
   80fca:	4798      	blx	r3
   80fcc:	2001      	movs	r0, #1
   80fce:	e048      	b.n	81062 <xQueueGenericReceive+0x11e>
   80fd0:	9b01      	ldr	r3, [sp, #4]
   80fd2:	b91b      	cbnz	r3, 80fdc <xQueueGenericReceive+0x98>
   80fd4:	4b26      	ldr	r3, [pc, #152]	; (81070 <xQueueGenericReceive+0x12c>)
   80fd6:	4798      	blx	r3
   80fd8:	2000      	movs	r0, #0
   80fda:	e042      	b.n	81062 <xQueueGenericReceive+0x11e>
   80fdc:	b917      	cbnz	r7, 80fe4 <xQueueGenericReceive+0xa0>
   80fde:	a802      	add	r0, sp, #8
   80fe0:	47d8      	blx	fp
   80fe2:	2701      	movs	r7, #1
   80fe4:	47a8      	blx	r5
   80fe6:	4b27      	ldr	r3, [pc, #156]	; (81084 <xQueueGenericReceive+0x140>)
   80fe8:	4798      	blx	r3
   80fea:	47b0      	blx	r6
   80fec:	6c63      	ldr	r3, [r4, #68]	; 0x44
   80fee:	f1b3 3fff 	cmp.w	r3, #4294967295
   80ff2:	bf04      	itt	eq
   80ff4:	2300      	moveq	r3, #0
   80ff6:	6463      	streq	r3, [r4, #68]	; 0x44
   80ff8:	6ca3      	ldr	r3, [r4, #72]	; 0x48
   80ffa:	f1b3 3fff 	cmp.w	r3, #4294967295
   80ffe:	bf04      	itt	eq
   81000:	2300      	moveq	r3, #0
   81002:	64a3      	streq	r3, [r4, #72]	; 0x48
   81004:	47a8      	blx	r5
   81006:	a802      	add	r0, sp, #8
   81008:	a901      	add	r1, sp, #4
   8100a:	4b1f      	ldr	r3, [pc, #124]	; (81088 <xQueueGenericReceive+0x144>)
   8100c:	4798      	blx	r3
   8100e:	bb10      	cbnz	r0, 81056 <xQueueGenericReceive+0x112>
   81010:	47b0      	blx	r6
   81012:	f8d4 8038 	ldr.w	r8, [r4, #56]	; 0x38
   81016:	47a8      	blx	r5
   81018:	f1b8 0f00 	cmp.w	r8, #0
   8101c:	d115      	bne.n	8104a <xQueueGenericReceive+0x106>
   8101e:	6823      	ldr	r3, [r4, #0]
   81020:	b923      	cbnz	r3, 8102c <xQueueGenericReceive+0xe8>
   81022:	47b0      	blx	r6
   81024:	6860      	ldr	r0, [r4, #4]
   81026:	4b19      	ldr	r3, [pc, #100]	; (8108c <xQueueGenericReceive+0x148>)
   81028:	4798      	blx	r3
   8102a:	47a8      	blx	r5
   8102c:	f104 0024 	add.w	r0, r4, #36	; 0x24
   81030:	9901      	ldr	r1, [sp, #4]
   81032:	4b17      	ldr	r3, [pc, #92]	; (81090 <xQueueGenericReceive+0x14c>)
   81034:	4798      	blx	r3
   81036:	4620      	mov	r0, r4
   81038:	4b16      	ldr	r3, [pc, #88]	; (81094 <xQueueGenericReceive+0x150>)
   8103a:	4798      	blx	r3
   8103c:	4b16      	ldr	r3, [pc, #88]	; (81098 <xQueueGenericReceive+0x154>)
   8103e:	4798      	blx	r3
   81040:	2800      	cmp	r0, #0
   81042:	d199      	bne.n	80f78 <xQueueGenericReceive+0x34>
   81044:	4b0e      	ldr	r3, [pc, #56]	; (81080 <xQueueGenericReceive+0x13c>)
   81046:	4798      	blx	r3
   81048:	e796      	b.n	80f78 <xQueueGenericReceive+0x34>
   8104a:	4620      	mov	r0, r4
   8104c:	4b11      	ldr	r3, [pc, #68]	; (81094 <xQueueGenericReceive+0x150>)
   8104e:	4798      	blx	r3
   81050:	4b11      	ldr	r3, [pc, #68]	; (81098 <xQueueGenericReceive+0x154>)
   81052:	4798      	blx	r3
   81054:	e790      	b.n	80f78 <xQueueGenericReceive+0x34>
   81056:	4620      	mov	r0, r4
   81058:	4b0e      	ldr	r3, [pc, #56]	; (81094 <xQueueGenericReceive+0x150>)
   8105a:	4798      	blx	r3
   8105c:	4b0e      	ldr	r3, [pc, #56]	; (81098 <xQueueGenericReceive+0x154>)
   8105e:	4798      	blx	r3
   81060:	2000      	movs	r0, #0
   81062:	b005      	add	sp, #20
   81064:	e8bd 8ff0 	ldmia.w	sp!, {r4, r5, r6, r7, r8, r9, sl, fp, pc}
   81068:	00080949 	.word	0x00080949
   8106c:	00080959 	.word	0x00080959
   81070:	00080979 	.word	0x00080979
   81074:	00080c09 	.word	0x00080c09
   81078:	000819e5 	.word	0x000819e5
   8107c:	000818a9 	.word	0x000818a9
   81080:	00080939 	.word	0x00080939
   81084:	000813b1 	.word	0x000813b1
   81088:	00081955 	.word	0x00081955
   8108c:	00081a11 	.word	0x00081a11
   81090:	00081805 	.word	0x00081805
   81094:	00080c31 	.word	0x00080c31
   81098:	00081501 	.word	0x00081501
   8109c:	0008192d 	.word	0x0008192d

000810a0 <vQueueWaitForMessageRestricted>:
   810a0:	b538      	push	{r3, r4, r5, lr}
   810a2:	4604      	mov	r4, r0
   810a4:	460d      	mov	r5, r1
   810a6:	4b0d      	ldr	r3, [pc, #52]	; (810dc <vQueueWaitForMessageRestricted+0x3c>)
   810a8:	4798      	blx	r3
   810aa:	6c63      	ldr	r3, [r4, #68]	; 0x44
   810ac:	f1b3 3fff 	cmp.w	r3, #4294967295
   810b0:	bf04      	itt	eq
   810b2:	2300      	moveq	r3, #0
   810b4:	6463      	streq	r3, [r4, #68]	; 0x44
   810b6:	6ca3      	ldr	r3, [r4, #72]	; 0x48
   810b8:	f1b3 3fff 	cmp.w	r3, #4294967295
   810bc:	bf04      	itt	eq
   810be:	2300      	moveq	r3, #0
   810c0:	64a3      	streq	r3, [r4, #72]	; 0x48
   810c2:	4b07      	ldr	r3, [pc, #28]	; (810e0 <vQueueWaitForMessageRestricted+0x40>)
   810c4:	4798      	blx	r3
   810c6:	6ba3      	ldr	r3, [r4, #56]	; 0x38
   810c8:	b923      	cbnz	r3, 810d4 <vQueueWaitForMessageRestricted+0x34>
   810ca:	f104 0024 	add.w	r0, r4, #36	; 0x24
   810ce:	4629      	mov	r1, r5
   810d0:	4b04      	ldr	r3, [pc, #16]	; (810e4 <vQueueWaitForMessageRestricted+0x44>)
   810d2:	4798      	blx	r3
   810d4:	4620      	mov	r0, r4
   810d6:	4b04      	ldr	r3, [pc, #16]	; (810e8 <vQueueWaitForMessageRestricted+0x48>)
   810d8:	4798      	blx	r3
   810da:	bd38      	pop	{r3, r4, r5, pc}
   810dc:	00080959 	.word	0x00080959
   810e0:	00080979 	.word	0x00080979
   810e4:	00081865 	.word	0x00081865
   810e8:	00080c31 	.word	0x00080c31

000810ec <prvAddCurrentTaskToDelayedList>:
   810ec:	b510      	push	{r4, lr}
   810ee:	4604      	mov	r4, r0
   810f0:	4b0e      	ldr	r3, [pc, #56]	; (8112c <prvAddCurrentTaskToDelayedList+0x40>)
   810f2:	681b      	ldr	r3, [r3, #0]
   810f4:	6058      	str	r0, [r3, #4]
   810f6:	4b0e      	ldr	r3, [pc, #56]	; (81130 <prvAddCurrentTaskToDelayedList+0x44>)
   810f8:	681b      	ldr	r3, [r3, #0]
   810fa:	4298      	cmp	r0, r3
   810fc:	d207      	bcs.n	8110e <prvAddCurrentTaskToDelayedList+0x22>
   810fe:	4b0d      	ldr	r3, [pc, #52]	; (81134 <prvAddCurrentTaskToDelayedList+0x48>)
   81100:	6818      	ldr	r0, [r3, #0]
   81102:	4b0a      	ldr	r3, [pc, #40]	; (8112c <prvAddCurrentTaskToDelayedList+0x40>)
   81104:	6819      	ldr	r1, [r3, #0]
   81106:	3104      	adds	r1, #4
   81108:	4b0b      	ldr	r3, [pc, #44]	; (81138 <prvAddCurrentTaskToDelayedList+0x4c>)
   8110a:	4798      	blx	r3
   8110c:	bd10      	pop	{r4, pc}
   8110e:	4b0b      	ldr	r3, [pc, #44]	; (8113c <prvAddCurrentTaskToDelayedList+0x50>)
   81110:	6818      	ldr	r0, [r3, #0]
   81112:	4b06      	ldr	r3, [pc, #24]	; (8112c <prvAddCurrentTaskToDelayedList+0x40>)
   81114:	6819      	ldr	r1, [r3, #0]
   81116:	3104      	adds	r1, #4
   81118:	4b07      	ldr	r3, [pc, #28]	; (81138 <prvAddCurrentTaskToDelayedList+0x4c>)
   8111a:	4798      	blx	r3
   8111c:	4b08      	ldr	r3, [pc, #32]	; (81140 <prvAddCurrentTaskToDelayedList+0x54>)
   8111e:	681b      	ldr	r3, [r3, #0]
   81120:	429c      	cmp	r4, r3
   81122:	bf3c      	itt	cc
   81124:	4b06      	ldrcc	r3, [pc, #24]	; (81140 <prvAddCurrentTaskToDelayedList+0x54>)
   81126:	601c      	strcc	r4, [r3, #0]
   81128:	bd10      	pop	{r4, pc}
   8112a:	bf00      	nop
   8112c:	2007ab28 	.word	0x2007ab28
   81130:	2007ab44 	.word	0x2007ab44
   81134:	2007ab48 	.word	0x2007ab48
   81138:	00080885 	.word	0x00080885
   8113c:	2007aa74 	.word	0x2007aa74
   81140:	20070154 	.word	0x20070154

00081144 <xTaskGenericCreate>:
   81144:	e92d 4ff0 	stmdb	sp!, {r4, r5, r6, r7, r8, r9, sl, fp, lr}
   81148:	b083      	sub	sp, #12
   8114a:	9f0c      	ldr	r7, [sp, #48]	; 0x30
   8114c:	f8dd 8034 	ldr.w	r8, [sp, #52]	; 0x34
   81150:	9e0e      	ldr	r6, [sp, #56]	; 0x38
   81152:	9001      	str	r0, [sp, #4]
   81154:	b918      	cbnz	r0, 8115e <xTaskGenericCreate+0x1a>
   81156:	4b62      	ldr	r3, [pc, #392]	; (812e0 <xTaskGenericCreate+0x19c>)
   81158:	4798      	blx	r3
   8115a:	bf00      	nop
   8115c:	e7fd      	b.n	8115a <xTaskGenericCreate+0x16>
   8115e:	4689      	mov	r9, r1
   81160:	4615      	mov	r5, r2
   81162:	469b      	mov	fp, r3
   81164:	2f04      	cmp	r7, #4
   81166:	d903      	bls.n	81170 <xTaskGenericCreate+0x2c>
   81168:	4b5d      	ldr	r3, [pc, #372]	; (812e0 <xTaskGenericCreate+0x19c>)
   8116a:	4798      	blx	r3
   8116c:	bf00      	nop
   8116e:	e7fd      	b.n	8116c <xTaskGenericCreate+0x28>
   81170:	204c      	movs	r0, #76	; 0x4c
   81172:	4b5c      	ldr	r3, [pc, #368]	; (812e4 <xTaskGenericCreate+0x1a0>)
   81174:	4798      	blx	r3
   81176:	4604      	mov	r4, r0
   81178:	2800      	cmp	r0, #0
   8117a:	f000 80ab 	beq.w	812d4 <xTaskGenericCreate+0x190>
   8117e:	2e00      	cmp	r6, #0
   81180:	f040 80a5 	bne.w	812ce <xTaskGenericCreate+0x18a>
   81184:	00a8      	lsls	r0, r5, #2
   81186:	4b57      	ldr	r3, [pc, #348]	; (812e4 <xTaskGenericCreate+0x1a0>)
   81188:	4798      	blx	r3
   8118a:	6320      	str	r0, [r4, #48]	; 0x30
   8118c:	b918      	cbnz	r0, 81196 <xTaskGenericCreate+0x52>
   8118e:	4620      	mov	r0, r4
   81190:	4b55      	ldr	r3, [pc, #340]	; (812e8 <xTaskGenericCreate+0x1a4>)
   81192:	4798      	blx	r3
   81194:	e09e      	b.n	812d4 <xTaskGenericCreate+0x190>
   81196:	21a5      	movs	r1, #165	; 0xa5
   81198:	00aa      	lsls	r2, r5, #2
   8119a:	4b54      	ldr	r3, [pc, #336]	; (812ec <xTaskGenericCreate+0x1a8>)
   8119c:	4798      	blx	r3
   8119e:	f105 4580 	add.w	r5, r5, #1073741824	; 0x40000000
   811a2:	3d01      	subs	r5, #1
   811a4:	6b23      	ldr	r3, [r4, #48]	; 0x30
   811a6:	eb03 0385 	add.w	r3, r3, r5, lsl #2
   811aa:	f023 0507 	bic.w	r5, r3, #7
   811ae:	f104 0034 	add.w	r0, r4, #52	; 0x34
   811b2:	4649      	mov	r1, r9
   811b4:	220a      	movs	r2, #10
   811b6:	4b4e      	ldr	r3, [pc, #312]	; (812f0 <xTaskGenericCreate+0x1ac>)
   811b8:	4798      	blx	r3
   811ba:	2300      	movs	r3, #0
   811bc:	f884 303d 	strb.w	r3, [r4, #61]	; 0x3d
   811c0:	463e      	mov	r6, r7
   811c2:	2f04      	cmp	r7, #4
   811c4:	bf28      	it	cs
   811c6:	2604      	movcs	r6, #4
   811c8:	62e6      	str	r6, [r4, #44]	; 0x2c
   811ca:	64a6      	str	r6, [r4, #72]	; 0x48
   811cc:	f104 0904 	add.w	r9, r4, #4
   811d0:	4648      	mov	r0, r9
   811d2:	f8df a16c 	ldr.w	sl, [pc, #364]	; 81340 <xTaskGenericCreate+0x1fc>
   811d6:	47d0      	blx	sl
   811d8:	f104 0018 	add.w	r0, r4, #24
   811dc:	47d0      	blx	sl
   811de:	6124      	str	r4, [r4, #16]
   811e0:	f1c6 0605 	rsb	r6, r6, #5
   811e4:	61a6      	str	r6, [r4, #24]
   811e6:	6264      	str	r4, [r4, #36]	; 0x24
   811e8:	4628      	mov	r0, r5
   811ea:	9901      	ldr	r1, [sp, #4]
   811ec:	465a      	mov	r2, fp
   811ee:	4b41      	ldr	r3, [pc, #260]	; (812f4 <xTaskGenericCreate+0x1b0>)
   811f0:	4798      	blx	r3
   811f2:	6020      	str	r0, [r4, #0]
   811f4:	f010 0f07 	tst.w	r0, #7
   811f8:	d003      	beq.n	81202 <xTaskGenericCreate+0xbe>
   811fa:	4b39      	ldr	r3, [pc, #228]	; (812e0 <xTaskGenericCreate+0x19c>)
   811fc:	4798      	blx	r3
   811fe:	bf00      	nop
   81200:	e7fd      	b.n	811fe <xTaskGenericCreate+0xba>
   81202:	f1b8 0f00 	cmp.w	r8, #0
   81206:	d001      	beq.n	8120c <xTaskGenericCreate+0xc8>
   81208:	f8c8 4000 	str.w	r4, [r8]
   8120c:	4b3a      	ldr	r3, [pc, #232]	; (812f8 <xTaskGenericCreate+0x1b4>)
   8120e:	4798      	blx	r3
   81210:	4a3a      	ldr	r2, [pc, #232]	; (812fc <xTaskGenericCreate+0x1b8>)
   81212:	6813      	ldr	r3, [r2, #0]
   81214:	3301      	adds	r3, #1
   81216:	6013      	str	r3, [r2, #0]
   81218:	4b39      	ldr	r3, [pc, #228]	; (81300 <xTaskGenericCreate+0x1bc>)
   8121a:	681b      	ldr	r3, [r3, #0]
   8121c:	bb0b      	cbnz	r3, 81262 <xTaskGenericCreate+0x11e>
   8121e:	4b38      	ldr	r3, [pc, #224]	; (81300 <xTaskGenericCreate+0x1bc>)
   81220:	601c      	str	r4, [r3, #0]
   81222:	6813      	ldr	r3, [r2, #0]
   81224:	2b01      	cmp	r3, #1
   81226:	d126      	bne.n	81276 <xTaskGenericCreate+0x132>
   81228:	4d36      	ldr	r5, [pc, #216]	; (81304 <xTaskGenericCreate+0x1c0>)
   8122a:	f105 0864 	add.w	r8, r5, #100	; 0x64
   8122e:	4e36      	ldr	r6, [pc, #216]	; (81308 <xTaskGenericCreate+0x1c4>)
   81230:	4628      	mov	r0, r5
   81232:	47b0      	blx	r6
   81234:	3514      	adds	r5, #20
   81236:	4545      	cmp	r5, r8
   81238:	d1fa      	bne.n	81230 <xTaskGenericCreate+0xec>
   8123a:	f8df 8108 	ldr.w	r8, [pc, #264]	; 81344 <xTaskGenericCreate+0x200>
   8123e:	4640      	mov	r0, r8
   81240:	4d31      	ldr	r5, [pc, #196]	; (81308 <xTaskGenericCreate+0x1c4>)
   81242:	47a8      	blx	r5
   81244:	4e31      	ldr	r6, [pc, #196]	; (8130c <xTaskGenericCreate+0x1c8>)
   81246:	4630      	mov	r0, r6
   81248:	47a8      	blx	r5
   8124a:	4831      	ldr	r0, [pc, #196]	; (81310 <xTaskGenericCreate+0x1cc>)
   8124c:	47a8      	blx	r5
   8124e:	4831      	ldr	r0, [pc, #196]	; (81314 <xTaskGenericCreate+0x1d0>)
   81250:	47a8      	blx	r5
   81252:	4831      	ldr	r0, [pc, #196]	; (81318 <xTaskGenericCreate+0x1d4>)
   81254:	47a8      	blx	r5
   81256:	4b31      	ldr	r3, [pc, #196]	; (8131c <xTaskGenericCreate+0x1d8>)
   81258:	f8c3 8000 	str.w	r8, [r3]
   8125c:	4b30      	ldr	r3, [pc, #192]	; (81320 <xTaskGenericCreate+0x1dc>)
   8125e:	601e      	str	r6, [r3, #0]
   81260:	e009      	b.n	81276 <xTaskGenericCreate+0x132>
   81262:	4b30      	ldr	r3, [pc, #192]	; (81324 <xTaskGenericCreate+0x1e0>)
   81264:	681b      	ldr	r3, [r3, #0]
   81266:	b933      	cbnz	r3, 81276 <xTaskGenericCreate+0x132>
   81268:	4b25      	ldr	r3, [pc, #148]	; (81300 <xTaskGenericCreate+0x1bc>)
   8126a:	681b      	ldr	r3, [r3, #0]
   8126c:	6adb      	ldr	r3, [r3, #44]	; 0x2c
   8126e:	429f      	cmp	r7, r3
   81270:	bf24      	itt	cs
   81272:	4b23      	ldrcs	r3, [pc, #140]	; (81300 <xTaskGenericCreate+0x1bc>)
   81274:	601c      	strcs	r4, [r3, #0]
   81276:	6ae0      	ldr	r0, [r4, #44]	; 0x2c
   81278:	4b2b      	ldr	r3, [pc, #172]	; (81328 <xTaskGenericCreate+0x1e4>)
   8127a:	681b      	ldr	r3, [r3, #0]
   8127c:	4298      	cmp	r0, r3
   8127e:	bf84      	itt	hi
   81280:	4b29      	ldrhi	r3, [pc, #164]	; (81328 <xTaskGenericCreate+0x1e4>)
   81282:	6018      	strhi	r0, [r3, #0]
   81284:	4a29      	ldr	r2, [pc, #164]	; (8132c <xTaskGenericCreate+0x1e8>)
   81286:	6813      	ldr	r3, [r2, #0]
   81288:	6423      	str	r3, [r4, #64]	; 0x40
   8128a:	3301      	adds	r3, #1
   8128c:	6013      	str	r3, [r2, #0]
   8128e:	4b28      	ldr	r3, [pc, #160]	; (81330 <xTaskGenericCreate+0x1ec>)
   81290:	681b      	ldr	r3, [r3, #0]
   81292:	4298      	cmp	r0, r3
   81294:	bf84      	itt	hi
   81296:	4b26      	ldrhi	r3, [pc, #152]	; (81330 <xTaskGenericCreate+0x1ec>)
   81298:	6018      	strhi	r0, [r3, #0]
   8129a:	eb00 0080 	add.w	r0, r0, r0, lsl #2
   8129e:	4b19      	ldr	r3, [pc, #100]	; (81304 <xTaskGenericCreate+0x1c0>)
   812a0:	eb03 0080 	add.w	r0, r3, r0, lsl #2
   812a4:	4649      	mov	r1, r9
   812a6:	4b23      	ldr	r3, [pc, #140]	; (81334 <xTaskGenericCreate+0x1f0>)
   812a8:	4798      	blx	r3
   812aa:	4b23      	ldr	r3, [pc, #140]	; (81338 <xTaskGenericCreate+0x1f4>)
   812ac:	4798      	blx	r3
   812ae:	4b1d      	ldr	r3, [pc, #116]	; (81324 <xTaskGenericCreate+0x1e0>)
   812b0:	681b      	ldr	r3, [r3, #0]
   812b2:	b143      	cbz	r3, 812c6 <xTaskGenericCreate+0x182>
   812b4:	4b12      	ldr	r3, [pc, #72]	; (81300 <xTaskGenericCreate+0x1bc>)
   812b6:	681b      	ldr	r3, [r3, #0]
   812b8:	6adb      	ldr	r3, [r3, #44]	; 0x2c
   812ba:	429f      	cmp	r7, r3
   812bc:	d905      	bls.n	812ca <xTaskGenericCreate+0x186>
   812be:	4b1f      	ldr	r3, [pc, #124]	; (8133c <xTaskGenericCreate+0x1f8>)
   812c0:	4798      	blx	r3
   812c2:	2001      	movs	r0, #1
   812c4:	e008      	b.n	812d8 <xTaskGenericCreate+0x194>
   812c6:	2001      	movs	r0, #1
   812c8:	e006      	b.n	812d8 <xTaskGenericCreate+0x194>
   812ca:	2001      	movs	r0, #1
   812cc:	e004      	b.n	812d8 <xTaskGenericCreate+0x194>
   812ce:	6306      	str	r6, [r0, #48]	; 0x30
   812d0:	4630      	mov	r0, r6
   812d2:	e760      	b.n	81196 <xTaskGenericCreate+0x52>
   812d4:	f04f 30ff 	mov.w	r0, #4294967295
   812d8:	b003      	add	sp, #12
   812da:	e8bd 8ff0 	ldmia.w	sp!, {r4, r5, r6, r7, r8, r9, sl, fp, pc}
   812de:	bf00      	nop
   812e0:	00080949 	.word	0x00080949
   812e4:	00080aa5 	.word	0x00080aa5
   812e8:	00080b6d 	.word	0x00080b6d
   812ec:	00084d3d 	.word	0x00084d3d
   812f0:	00084f3d 	.word	0x00084f3d
   812f4:	000808fd 	.word	0x000808fd
   812f8:	00080959 	.word	0x00080959
   812fc:	2007ab50 	.word	0x2007ab50
   81300:	2007ab28 	.word	0x2007ab28
   81304:	2007aaac 	.word	0x2007aaac
   81308:	00080849 	.word	0x00080849
   8130c:	2007aa94 	.word	0x2007aa94
   81310:	2007ab2c 	.word	0x2007ab2c
   81314:	2007ab10 	.word	0x2007ab10
   81318:	2007aa60 	.word	0x2007aa60
   8131c:	2007aa74 	.word	0x2007aa74
   81320:	2007ab48 	.word	0x2007ab48
   81324:	2007aa78 	.word	0x2007aa78
   81328:	2007ab58 	.word	0x2007ab58
   8132c:	2007ab4c 	.word	0x2007ab4c
   81330:	2007aaa8 	.word	0x2007aaa8
   81334:	00080869 	.word	0x00080869
   81338:	00080979 	.word	0x00080979
   8133c:	00080939 	.word	0x00080939
   81340:	00080861 	.word	0x00080861
   81344:	2007aa80 	.word	0x2007aa80

00081348 <vTaskStartScheduler>:
   81348:	b510      	push	{r4, lr}
   8134a:	b084      	sub	sp, #16
   8134c:	2300      	movs	r3, #0
   8134e:	9300      	str	r3, [sp, #0]
   81350:	9301      	str	r3, [sp, #4]
   81352:	9302      	str	r3, [sp, #8]
   81354:	9303      	str	r3, [sp, #12]
   81356:	480e      	ldr	r0, [pc, #56]	; (81390 <vTaskStartScheduler+0x48>)
   81358:	490e      	ldr	r1, [pc, #56]	; (81394 <vTaskStartScheduler+0x4c>)
   8135a:	2282      	movs	r2, #130	; 0x82
   8135c:	4c0e      	ldr	r4, [pc, #56]	; (81398 <vTaskStartScheduler+0x50>)
   8135e:	47a0      	blx	r4
   81360:	2801      	cmp	r0, #1
   81362:	d10e      	bne.n	81382 <vTaskStartScheduler+0x3a>
   81364:	4b0d      	ldr	r3, [pc, #52]	; (8139c <vTaskStartScheduler+0x54>)
   81366:	4798      	blx	r3
   81368:	2801      	cmp	r0, #1
   8136a:	d10a      	bne.n	81382 <vTaskStartScheduler+0x3a>
   8136c:	4b0c      	ldr	r3, [pc, #48]	; (813a0 <vTaskStartScheduler+0x58>)
   8136e:	4798      	blx	r3
   81370:	2201      	movs	r2, #1
   81372:	4b0c      	ldr	r3, [pc, #48]	; (813a4 <vTaskStartScheduler+0x5c>)
   81374:	601a      	str	r2, [r3, #0]
   81376:	2200      	movs	r2, #0
   81378:	4b0b      	ldr	r3, [pc, #44]	; (813a8 <vTaskStartScheduler+0x60>)
   8137a:	601a      	str	r2, [r3, #0]
   8137c:	4b0b      	ldr	r3, [pc, #44]	; (813ac <vTaskStartScheduler+0x64>)
   8137e:	4798      	blx	r3
   81380:	e004      	b.n	8138c <vTaskStartScheduler+0x44>
   81382:	b918      	cbnz	r0, 8138c <vTaskStartScheduler+0x44>
   81384:	4b06      	ldr	r3, [pc, #24]	; (813a0 <vTaskStartScheduler+0x58>)
   81386:	4798      	blx	r3
   81388:	bf00      	nop
   8138a:	e7fd      	b.n	81388 <vTaskStartScheduler+0x40>
   8138c:	b004      	add	sp, #16
   8138e:	bd10      	pop	{r4, pc}
   81390:	000816dd 	.word	0x000816dd
   81394:	00087be0 	.word	0x00087be0
   81398:	00081145 	.word	0x00081145
   8139c:	00081b89 	.word	0x00081b89
   813a0:	00080949 	.word	0x00080949
   813a4:	2007aa78 	.word	0x2007aa78
   813a8:	2007ab44 	.word	0x2007ab44
   813ac:	00080a15 	.word	0x00080a15

000813b0 <vTaskSuspendAll>:
   813b0:	4a02      	ldr	r2, [pc, #8]	; (813bc <vTaskSuspendAll+0xc>)
   813b2:	6813      	ldr	r3, [r2, #0]
   813b4:	3301      	adds	r3, #1
   813b6:	6013      	str	r3, [r2, #0]
   813b8:	4770      	bx	lr
   813ba:	bf00      	nop
   813bc:	2007ab40 	.word	0x2007ab40

000813c0 <xTaskGetTickCount>:
   813c0:	b510      	push	{r4, lr}
   813c2:	4b04      	ldr	r3, [pc, #16]	; (813d4 <xTaskGetTickCount+0x14>)
   813c4:	4798      	blx	r3
   813c6:	4b04      	ldr	r3, [pc, #16]	; (813d8 <xTaskGetTickCount+0x18>)
   813c8:	681c      	ldr	r4, [r3, #0]
   813ca:	4b04      	ldr	r3, [pc, #16]	; (813dc <xTaskGetTickCount+0x1c>)
   813cc:	4798      	blx	r3
   813ce:	4620      	mov	r0, r4
   813d0:	bd10      	pop	{r4, pc}
   813d2:	bf00      	nop
   813d4:	00080959 	.word	0x00080959
   813d8:	2007ab44 	.word	0x2007ab44
   813dc:	00080979 	.word	0x00080979

000813e0 <vTaskIncrementTick>:
   813e0:	e92d 41f0 	stmdb	sp!, {r4, r5, r6, r7, r8, lr}
   813e4:	4b3a      	ldr	r3, [pc, #232]	; (814d0 <vTaskIncrementTick+0xf0>)
   813e6:	681b      	ldr	r3, [r3, #0]
   813e8:	2b00      	cmp	r3, #0
   813ea:	d16b      	bne.n	814c4 <vTaskIncrementTick+0xe4>
   813ec:	4b39      	ldr	r3, [pc, #228]	; (814d4 <vTaskIncrementTick+0xf4>)
   813ee:	681a      	ldr	r2, [r3, #0]
   813f0:	3201      	adds	r2, #1
   813f2:	601a      	str	r2, [r3, #0]
   813f4:	681b      	ldr	r3, [r3, #0]
   813f6:	bb03      	cbnz	r3, 8143a <vTaskIncrementTick+0x5a>
   813f8:	4b37      	ldr	r3, [pc, #220]	; (814d8 <vTaskIncrementTick+0xf8>)
   813fa:	681b      	ldr	r3, [r3, #0]
   813fc:	681b      	ldr	r3, [r3, #0]
   813fe:	b11b      	cbz	r3, 81408 <vTaskIncrementTick+0x28>
   81400:	4b36      	ldr	r3, [pc, #216]	; (814dc <vTaskIncrementTick+0xfc>)
   81402:	4798      	blx	r3
   81404:	bf00      	nop
   81406:	e7fd      	b.n	81404 <vTaskIncrementTick+0x24>
   81408:	4b33      	ldr	r3, [pc, #204]	; (814d8 <vTaskIncrementTick+0xf8>)
   8140a:	6819      	ldr	r1, [r3, #0]
   8140c:	4a34      	ldr	r2, [pc, #208]	; (814e0 <vTaskIncrementTick+0x100>)
   8140e:	6810      	ldr	r0, [r2, #0]
   81410:	6018      	str	r0, [r3, #0]
   81412:	6011      	str	r1, [r2, #0]
   81414:	4933      	ldr	r1, [pc, #204]	; (814e4 <vTaskIncrementTick+0x104>)
   81416:	680a      	ldr	r2, [r1, #0]
   81418:	3201      	adds	r2, #1
   8141a:	600a      	str	r2, [r1, #0]
   8141c:	681b      	ldr	r3, [r3, #0]
   8141e:	681b      	ldr	r3, [r3, #0]
   81420:	b923      	cbnz	r3, 8142c <vTaskIncrementTick+0x4c>
   81422:	f04f 32ff 	mov.w	r2, #4294967295
   81426:	4b30      	ldr	r3, [pc, #192]	; (814e8 <vTaskIncrementTick+0x108>)
   81428:	601a      	str	r2, [r3, #0]
   8142a:	e006      	b.n	8143a <vTaskIncrementTick+0x5a>
   8142c:	4b2a      	ldr	r3, [pc, #168]	; (814d8 <vTaskIncrementTick+0xf8>)
   8142e:	681b      	ldr	r3, [r3, #0]
   81430:	68db      	ldr	r3, [r3, #12]
   81432:	68db      	ldr	r3, [r3, #12]
   81434:	685a      	ldr	r2, [r3, #4]
   81436:	4b2c      	ldr	r3, [pc, #176]	; (814e8 <vTaskIncrementTick+0x108>)
   81438:	601a      	str	r2, [r3, #0]
   8143a:	4b26      	ldr	r3, [pc, #152]	; (814d4 <vTaskIncrementTick+0xf4>)
   8143c:	681a      	ldr	r2, [r3, #0]
   8143e:	4b2a      	ldr	r3, [pc, #168]	; (814e8 <vTaskIncrementTick+0x108>)
   81440:	681b      	ldr	r3, [r3, #0]
   81442:	429a      	cmp	r2, r3
   81444:	d342      	bcc.n	814cc <vTaskIncrementTick+0xec>
   81446:	4b24      	ldr	r3, [pc, #144]	; (814d8 <vTaskIncrementTick+0xf8>)
   81448:	681b      	ldr	r3, [r3, #0]
   8144a:	681b      	ldr	r3, [r3, #0]
   8144c:	b16b      	cbz	r3, 8146a <vTaskIncrementTick+0x8a>
   8144e:	4b22      	ldr	r3, [pc, #136]	; (814d8 <vTaskIncrementTick+0xf8>)
   81450:	681b      	ldr	r3, [r3, #0]
   81452:	68db      	ldr	r3, [r3, #12]
   81454:	68dc      	ldr	r4, [r3, #12]
   81456:	6863      	ldr	r3, [r4, #4]
   81458:	4a1e      	ldr	r2, [pc, #120]	; (814d4 <vTaskIncrementTick+0xf4>)
   8145a:	6812      	ldr	r2, [r2, #0]
   8145c:	4293      	cmp	r3, r2
   8145e:	d813      	bhi.n	81488 <vTaskIncrementTick+0xa8>
   81460:	4e22      	ldr	r6, [pc, #136]	; (814ec <vTaskIncrementTick+0x10c>)
   81462:	4f23      	ldr	r7, [pc, #140]	; (814f0 <vTaskIncrementTick+0x110>)
   81464:	f8df 8094 	ldr.w	r8, [pc, #148]	; 814fc <vTaskIncrementTick+0x11c>
   81468:	e012      	b.n	81490 <vTaskIncrementTick+0xb0>
   8146a:	f04f 32ff 	mov.w	r2, #4294967295
   8146e:	4b1e      	ldr	r3, [pc, #120]	; (814e8 <vTaskIncrementTick+0x108>)
   81470:	601a      	str	r2, [r3, #0]
   81472:	e8bd 81f0 	ldmia.w	sp!, {r4, r5, r6, r7, r8, pc}
   81476:	4b18      	ldr	r3, [pc, #96]	; (814d8 <vTaskIncrementTick+0xf8>)
   81478:	681b      	ldr	r3, [r3, #0]
   8147a:	68db      	ldr	r3, [r3, #12]
   8147c:	68dc      	ldr	r4, [r3, #12]
   8147e:	6863      	ldr	r3, [r4, #4]
   81480:	4a14      	ldr	r2, [pc, #80]	; (814d4 <vTaskIncrementTick+0xf4>)
   81482:	6812      	ldr	r2, [r2, #0]
   81484:	4293      	cmp	r3, r2
   81486:	d903      	bls.n	81490 <vTaskIncrementTick+0xb0>
   81488:	4a17      	ldr	r2, [pc, #92]	; (814e8 <vTaskIncrementTick+0x108>)
   8148a:	6013      	str	r3, [r2, #0]
   8148c:	e8bd 81f0 	ldmia.w	sp!, {r4, r5, r6, r7, r8, pc}
   81490:	1d25      	adds	r5, r4, #4
   81492:	4628      	mov	r0, r5
   81494:	47b0      	blx	r6
   81496:	6aa3      	ldr	r3, [r4, #40]	; 0x28
   81498:	b113      	cbz	r3, 814a0 <vTaskIncrementTick+0xc0>
   8149a:	f104 0018 	add.w	r0, r4, #24
   8149e:	47b0      	blx	r6
   814a0:	6ae0      	ldr	r0, [r4, #44]	; 0x2c
   814a2:	683b      	ldr	r3, [r7, #0]
   814a4:	4298      	cmp	r0, r3
   814a6:	bf88      	it	hi
   814a8:	6038      	strhi	r0, [r7, #0]
   814aa:	eb00 0080 	add.w	r0, r0, r0, lsl #2
   814ae:	eb08 0080 	add.w	r0, r8, r0, lsl #2
   814b2:	4629      	mov	r1, r5
   814b4:	4b0f      	ldr	r3, [pc, #60]	; (814f4 <vTaskIncrementTick+0x114>)
   814b6:	4798      	blx	r3
   814b8:	4b07      	ldr	r3, [pc, #28]	; (814d8 <vTaskIncrementTick+0xf8>)
   814ba:	681b      	ldr	r3, [r3, #0]
   814bc:	681b      	ldr	r3, [r3, #0]
   814be:	2b00      	cmp	r3, #0
   814c0:	d1d9      	bne.n	81476 <vTaskIncrementTick+0x96>
   814c2:	e7d2      	b.n	8146a <vTaskIncrementTick+0x8a>
   814c4:	4a0c      	ldr	r2, [pc, #48]	; (814f8 <vTaskIncrementTick+0x118>)
   814c6:	6813      	ldr	r3, [r2, #0]
   814c8:	3301      	adds	r3, #1
   814ca:	6013      	str	r3, [r2, #0]
   814cc:	e8bd 81f0 	ldmia.w	sp!, {r4, r5, r6, r7, r8, pc}
   814d0:	2007ab40 	.word	0x2007ab40
   814d4:	2007ab44 	.word	0x2007ab44
   814d8:	2007aa74 	.word	0x2007aa74
   814dc:	00080949 	.word	0x00080949
   814e0:	2007ab48 	.word	0x2007ab48
   814e4:	2007ab24 	.word	0x2007ab24
   814e8:	20070154 	.word	0x20070154
   814ec:	000808c1 	.word	0x000808c1
   814f0:	2007aaa8 	.word	0x2007aaa8
   814f4:	00080869 	.word	0x00080869
   814f8:	2007aa5c 	.word	0x2007aa5c
   814fc:	2007aaac 	.word	0x2007aaac

00081500 <xTaskResumeAll>:
   81500:	e92d 43f8 	stmdb	sp!, {r3, r4, r5, r6, r7, r8, r9, lr}
   81504:	4b30      	ldr	r3, [pc, #192]	; (815c8 <xTaskResumeAll+0xc8>)
   81506:	681b      	ldr	r3, [r3, #0]
   81508:	b91b      	cbnz	r3, 81512 <xTaskResumeAll+0x12>
   8150a:	4b30      	ldr	r3, [pc, #192]	; (815cc <xTaskResumeAll+0xcc>)
   8150c:	4798      	blx	r3
   8150e:	bf00      	nop
   81510:	e7fd      	b.n	8150e <xTaskResumeAll+0xe>
   81512:	4b2f      	ldr	r3, [pc, #188]	; (815d0 <xTaskResumeAll+0xd0>)
   81514:	4798      	blx	r3
   81516:	4b2c      	ldr	r3, [pc, #176]	; (815c8 <xTaskResumeAll+0xc8>)
   81518:	681a      	ldr	r2, [r3, #0]
   8151a:	3a01      	subs	r2, #1
   8151c:	601a      	str	r2, [r3, #0]
   8151e:	681b      	ldr	r3, [r3, #0]
   81520:	2b00      	cmp	r3, #0
   81522:	d149      	bne.n	815b8 <xTaskResumeAll+0xb8>
   81524:	4b2b      	ldr	r3, [pc, #172]	; (815d4 <xTaskResumeAll+0xd4>)
   81526:	681b      	ldr	r3, [r3, #0]
   81528:	bb03      	cbnz	r3, 8156c <xTaskResumeAll+0x6c>
   8152a:	2400      	movs	r4, #0
   8152c:	e047      	b.n	815be <xTaskResumeAll+0xbe>
   8152e:	f8d8 300c 	ldr.w	r3, [r8, #12]
   81532:	68dc      	ldr	r4, [r3, #12]
   81534:	f104 0018 	add.w	r0, r4, #24
   81538:	47b8      	blx	r7
   8153a:	f104 0904 	add.w	r9, r4, #4
   8153e:	4648      	mov	r0, r9
   81540:	47b8      	blx	r7
   81542:	6ae0      	ldr	r0, [r4, #44]	; 0x2c
   81544:	6833      	ldr	r3, [r6, #0]
   81546:	4298      	cmp	r0, r3
   81548:	bf88      	it	hi
   8154a:	6030      	strhi	r0, [r6, #0]
   8154c:	eb00 0080 	add.w	r0, r0, r0, lsl #2
   81550:	4b21      	ldr	r3, [pc, #132]	; (815d8 <xTaskResumeAll+0xd8>)
   81552:	eb03 0080 	add.w	r0, r3, r0, lsl #2
   81556:	4649      	mov	r1, r9
   81558:	4b20      	ldr	r3, [pc, #128]	; (815dc <xTaskResumeAll+0xdc>)
   8155a:	4798      	blx	r3
   8155c:	4b20      	ldr	r3, [pc, #128]	; (815e0 <xTaskResumeAll+0xe0>)
   8155e:	681b      	ldr	r3, [r3, #0]
   81560:	6ae2      	ldr	r2, [r4, #44]	; 0x2c
   81562:	6adb      	ldr	r3, [r3, #44]	; 0x2c
   81564:	429a      	cmp	r2, r3
   81566:	bf28      	it	cs
   81568:	2501      	movcs	r5, #1
   8156a:	e004      	b.n	81576 <xTaskResumeAll+0x76>
   8156c:	2500      	movs	r5, #0
   8156e:	f8df 8090 	ldr.w	r8, [pc, #144]	; 81600 <xTaskResumeAll+0x100>
   81572:	4f1c      	ldr	r7, [pc, #112]	; (815e4 <xTaskResumeAll+0xe4>)
   81574:	4e1c      	ldr	r6, [pc, #112]	; (815e8 <xTaskResumeAll+0xe8>)
   81576:	f8d8 3000 	ldr.w	r3, [r8]
   8157a:	2b00      	cmp	r3, #0
   8157c:	d1d7      	bne.n	8152e <xTaskResumeAll+0x2e>
   8157e:	4b1b      	ldr	r3, [pc, #108]	; (815ec <xTaskResumeAll+0xec>)
   81580:	681b      	ldr	r3, [r3, #0]
   81582:	b163      	cbz	r3, 8159e <xTaskResumeAll+0x9e>
   81584:	4b19      	ldr	r3, [pc, #100]	; (815ec <xTaskResumeAll+0xec>)
   81586:	681b      	ldr	r3, [r3, #0]
   81588:	b17b      	cbz	r3, 815aa <xTaskResumeAll+0xaa>
   8158a:	4d19      	ldr	r5, [pc, #100]	; (815f0 <xTaskResumeAll+0xf0>)
   8158c:	4c17      	ldr	r4, [pc, #92]	; (815ec <xTaskResumeAll+0xec>)
   8158e:	47a8      	blx	r5
   81590:	6823      	ldr	r3, [r4, #0]
   81592:	3b01      	subs	r3, #1
   81594:	6023      	str	r3, [r4, #0]
   81596:	6823      	ldr	r3, [r4, #0]
   81598:	2b00      	cmp	r3, #0
   8159a:	d1f8      	bne.n	8158e <xTaskResumeAll+0x8e>
   8159c:	e005      	b.n	815aa <xTaskResumeAll+0xaa>
   8159e:	2d01      	cmp	r5, #1
   815a0:	d003      	beq.n	815aa <xTaskResumeAll+0xaa>
   815a2:	4b14      	ldr	r3, [pc, #80]	; (815f4 <xTaskResumeAll+0xf4>)
   815a4:	681b      	ldr	r3, [r3, #0]
   815a6:	2b01      	cmp	r3, #1
   815a8:	d108      	bne.n	815bc <xTaskResumeAll+0xbc>
   815aa:	2200      	movs	r2, #0
   815ac:	4b11      	ldr	r3, [pc, #68]	; (815f4 <xTaskResumeAll+0xf4>)
   815ae:	601a      	str	r2, [r3, #0]
   815b0:	4b11      	ldr	r3, [pc, #68]	; (815f8 <xTaskResumeAll+0xf8>)
   815b2:	4798      	blx	r3
   815b4:	2401      	movs	r4, #1
   815b6:	e002      	b.n	815be <xTaskResumeAll+0xbe>
   815b8:	2400      	movs	r4, #0
   815ba:	e000      	b.n	815be <xTaskResumeAll+0xbe>
   815bc:	2400      	movs	r4, #0
   815be:	4b0f      	ldr	r3, [pc, #60]	; (815fc <xTaskResumeAll+0xfc>)
   815c0:	4798      	blx	r3
   815c2:	4620      	mov	r0, r4
   815c4:	e8bd 83f8 	ldmia.w	sp!, {r3, r4, r5, r6, r7, r8, r9, pc}
   815c8:	2007ab40 	.word	0x2007ab40
   815cc:	00080949 	.word	0x00080949
   815d0:	00080959 	.word	0x00080959
   815d4:	2007ab50 	.word	0x2007ab50
   815d8:	2007aaac 	.word	0x2007aaac
   815dc:	00080869 	.word	0x00080869
   815e0:	2007ab28 	.word	0x2007ab28
   815e4:	000808c1 	.word	0x000808c1
   815e8:	2007aaa8 	.word	0x2007aaa8
   815ec:	2007aa5c 	.word	0x2007aa5c
   815f0:	000813e1 	.word	0x000813e1
   815f4:	2007ab54 	.word	0x2007ab54
   815f8:	00080939 	.word	0x00080939
   815fc:	00080979 	.word	0x00080979
   81600:	2007ab2c 	.word	0x2007ab2c

00081604 <vTaskDelayUntil>:
   81604:	b538      	push	{r3, r4, r5, lr}
   81606:	b918      	cbnz	r0, 81610 <vTaskDelayUntil+0xc>
   81608:	4b1a      	ldr	r3, [pc, #104]	; (81674 <vTaskDelayUntil+0x70>)
   8160a:	4798      	blx	r3
   8160c:	bf00      	nop
   8160e:	e7fd      	b.n	8160c <vTaskDelayUntil+0x8>
   81610:	460c      	mov	r4, r1
   81612:	4605      	mov	r5, r0
   81614:	b919      	cbnz	r1, 8161e <vTaskDelayUntil+0x1a>
   81616:	4b17      	ldr	r3, [pc, #92]	; (81674 <vTaskDelayUntil+0x70>)
   81618:	4798      	blx	r3
   8161a:	bf00      	nop
   8161c:	e7fd      	b.n	8161a <vTaskDelayUntil+0x16>
   8161e:	4b16      	ldr	r3, [pc, #88]	; (81678 <vTaskDelayUntil+0x74>)
   81620:	4798      	blx	r3
   81622:	682b      	ldr	r3, [r5, #0]
   81624:	441c      	add	r4, r3
   81626:	4a15      	ldr	r2, [pc, #84]	; (8167c <vTaskDelayUntil+0x78>)
   81628:	6812      	ldr	r2, [r2, #0]
   8162a:	4293      	cmp	r3, r2
   8162c:	d907      	bls.n	8163e <vTaskDelayUntil+0x3a>
   8162e:	42a3      	cmp	r3, r4
   81630:	d91c      	bls.n	8166c <vTaskDelayUntil+0x68>
   81632:	4b12      	ldr	r3, [pc, #72]	; (8167c <vTaskDelayUntil+0x78>)
   81634:	681b      	ldr	r3, [r3, #0]
   81636:	602c      	str	r4, [r5, #0]
   81638:	429c      	cmp	r4, r3
   8163a:	d90f      	bls.n	8165c <vTaskDelayUntil+0x58>
   8163c:	e006      	b.n	8164c <vTaskDelayUntil+0x48>
   8163e:	42a3      	cmp	r3, r4
   81640:	d812      	bhi.n	81668 <vTaskDelayUntil+0x64>
   81642:	4b0e      	ldr	r3, [pc, #56]	; (8167c <vTaskDelayUntil+0x78>)
   81644:	681b      	ldr	r3, [r3, #0]
   81646:	429c      	cmp	r4, r3
   81648:	d80e      	bhi.n	81668 <vTaskDelayUntil+0x64>
   8164a:	e00f      	b.n	8166c <vTaskDelayUntil+0x68>
   8164c:	4b0c      	ldr	r3, [pc, #48]	; (81680 <vTaskDelayUntil+0x7c>)
   8164e:	6818      	ldr	r0, [r3, #0]
   81650:	3004      	adds	r0, #4
   81652:	4b0c      	ldr	r3, [pc, #48]	; (81684 <vTaskDelayUntil+0x80>)
   81654:	4798      	blx	r3
   81656:	4620      	mov	r0, r4
   81658:	4b0b      	ldr	r3, [pc, #44]	; (81688 <vTaskDelayUntil+0x84>)
   8165a:	4798      	blx	r3
   8165c:	4b0b      	ldr	r3, [pc, #44]	; (8168c <vTaskDelayUntil+0x88>)
   8165e:	4798      	blx	r3
   81660:	b930      	cbnz	r0, 81670 <vTaskDelayUntil+0x6c>
   81662:	4b0b      	ldr	r3, [pc, #44]	; (81690 <vTaskDelayUntil+0x8c>)
   81664:	4798      	blx	r3
   81666:	bd38      	pop	{r3, r4, r5, pc}
   81668:	602c      	str	r4, [r5, #0]
   8166a:	e7ef      	b.n	8164c <vTaskDelayUntil+0x48>
   8166c:	602c      	str	r4, [r5, #0]
   8166e:	e7f5      	b.n	8165c <vTaskDelayUntil+0x58>
   81670:	bd38      	pop	{r3, r4, r5, pc}
   81672:	bf00      	nop
   81674:	00080949 	.word	0x00080949
   81678:	000813b1 	.word	0x000813b1
   8167c:	2007ab44 	.word	0x2007ab44
   81680:	2007ab28 	.word	0x2007ab28
   81684:	000808c1 	.word	0x000808c1
   81688:	000810ed 	.word	0x000810ed
   8168c:	00081501 	.word	0x00081501
   81690:	00080939 	.word	0x00080939

00081694 <vTaskDelay>:
   81694:	b510      	push	{r4, lr}
   81696:	b180      	cbz	r0, 816ba <vTaskDelay+0x26>
   81698:	4604      	mov	r4, r0
   8169a:	4b09      	ldr	r3, [pc, #36]	; (816c0 <vTaskDelay+0x2c>)
   8169c:	4798      	blx	r3
   8169e:	4b09      	ldr	r3, [pc, #36]	; (816c4 <vTaskDelay+0x30>)
   816a0:	681b      	ldr	r3, [r3, #0]
   816a2:	441c      	add	r4, r3
   816a4:	4b08      	ldr	r3, [pc, #32]	; (816c8 <vTaskDelay+0x34>)
   816a6:	6818      	ldr	r0, [r3, #0]
   816a8:	3004      	adds	r0, #4
   816aa:	4b08      	ldr	r3, [pc, #32]	; (816cc <vTaskDelay+0x38>)
   816ac:	4798      	blx	r3
   816ae:	4620      	mov	r0, r4
   816b0:	4b07      	ldr	r3, [pc, #28]	; (816d0 <vTaskDelay+0x3c>)
   816b2:	4798      	blx	r3
   816b4:	4b07      	ldr	r3, [pc, #28]	; (816d4 <vTaskDelay+0x40>)
   816b6:	4798      	blx	r3
   816b8:	b908      	cbnz	r0, 816be <vTaskDelay+0x2a>
   816ba:	4b07      	ldr	r3, [pc, #28]	; (816d8 <vTaskDelay+0x44>)
   816bc:	4798      	blx	r3
   816be:	bd10      	pop	{r4, pc}
   816c0:	000813b1 	.word	0x000813b1
   816c4:	2007ab44 	.word	0x2007ab44
   816c8:	2007ab28 	.word	0x2007ab28
   816cc:	000808c1 	.word	0x000808c1
   816d0:	000810ed 	.word	0x000810ed
   816d4:	00081501 	.word	0x00081501
   816d8:	00080939 	.word	0x00080939

000816dc <prvIdleTask>:
   816dc:	b580      	push	{r7, lr}
   816de:	4d15      	ldr	r5, [pc, #84]	; (81734 <prvIdleTask+0x58>)
   816e0:	4e15      	ldr	r6, [pc, #84]	; (81738 <prvIdleTask+0x5c>)
   816e2:	f8df 8074 	ldr.w	r8, [pc, #116]	; 81758 <prvIdleTask+0x7c>
   816e6:	4f15      	ldr	r7, [pc, #84]	; (8173c <prvIdleTask+0x60>)
   816e8:	e019      	b.n	8171e <prvIdleTask+0x42>
   816ea:	47c0      	blx	r8
   816ec:	6834      	ldr	r4, [r6, #0]
   816ee:	47b8      	blx	r7
   816f0:	b1ac      	cbz	r4, 8171e <prvIdleTask+0x42>
   816f2:	4b13      	ldr	r3, [pc, #76]	; (81740 <prvIdleTask+0x64>)
   816f4:	4798      	blx	r3
   816f6:	68f3      	ldr	r3, [r6, #12]
   816f8:	68dc      	ldr	r4, [r3, #12]
   816fa:	1d20      	adds	r0, r4, #4
   816fc:	4b11      	ldr	r3, [pc, #68]	; (81744 <prvIdleTask+0x68>)
   816fe:	4798      	blx	r3
   81700:	4a11      	ldr	r2, [pc, #68]	; (81748 <prvIdleTask+0x6c>)
   81702:	6813      	ldr	r3, [r2, #0]
   81704:	3b01      	subs	r3, #1
   81706:	6013      	str	r3, [r2, #0]
   81708:	682b      	ldr	r3, [r5, #0]
   8170a:	3b01      	subs	r3, #1
   8170c:	602b      	str	r3, [r5, #0]
   8170e:	4b0f      	ldr	r3, [pc, #60]	; (8174c <prvIdleTask+0x70>)
   81710:	4798      	blx	r3
   81712:	6b20      	ldr	r0, [r4, #48]	; 0x30
   81714:	f8df 9044 	ldr.w	r9, [pc, #68]	; 8175c <prvIdleTask+0x80>
   81718:	47c8      	blx	r9
   8171a:	4620      	mov	r0, r4
   8171c:	47c8      	blx	r9
   8171e:	682b      	ldr	r3, [r5, #0]
   81720:	2b00      	cmp	r3, #0
   81722:	d1e2      	bne.n	816ea <prvIdleTask+0xe>
   81724:	4b0a      	ldr	r3, [pc, #40]	; (81750 <prvIdleTask+0x74>)
   81726:	681b      	ldr	r3, [r3, #0]
   81728:	2b01      	cmp	r3, #1
   8172a:	d9f8      	bls.n	8171e <prvIdleTask+0x42>
   8172c:	4b09      	ldr	r3, [pc, #36]	; (81754 <prvIdleTask+0x78>)
   8172e:	4798      	blx	r3
   81730:	e7d7      	b.n	816e2 <prvIdleTask+0x6>
   81732:	bf00      	nop
   81734:	2007aa7c 	.word	0x2007aa7c
   81738:	2007ab10 	.word	0x2007ab10
   8173c:	00081501 	.word	0x00081501
   81740:	00080959 	.word	0x00080959
   81744:	000808c1 	.word	0x000808c1
   81748:	2007ab50 	.word	0x2007ab50
   8174c:	00080979 	.word	0x00080979
   81750:	2007aaac 	.word	0x2007aaac
   81754:	00080939 	.word	0x00080939
   81758:	000813b1 	.word	0x000813b1
   8175c:	00080b6d 	.word	0x00080b6d

00081760 <vTaskSwitchContext>:
   81760:	b510      	push	{r4, lr}
   81762:	4b22      	ldr	r3, [pc, #136]	; (817ec <vTaskSwitchContext+0x8c>)
   81764:	681b      	ldr	r3, [r3, #0]
   81766:	b96b      	cbnz	r3, 81784 <vTaskSwitchContext+0x24>
   81768:	4b21      	ldr	r3, [pc, #132]	; (817f0 <vTaskSwitchContext+0x90>)
   8176a:	681b      	ldr	r3, [r3, #0]
   8176c:	eb03 0383 	add.w	r3, r3, r3, lsl #2
   81770:	009b      	lsls	r3, r3, #2
   81772:	4a20      	ldr	r2, [pc, #128]	; (817f4 <vTaskSwitchContext+0x94>)
   81774:	58d3      	ldr	r3, [r2, r3]
   81776:	b9cb      	cbnz	r3, 817ac <vTaskSwitchContext+0x4c>
   81778:	4b1d      	ldr	r3, [pc, #116]	; (817f0 <vTaskSwitchContext+0x90>)
   8177a:	681b      	ldr	r3, [r3, #0]
   8177c:	b143      	cbz	r3, 81790 <vTaskSwitchContext+0x30>
   8177e:	4a1c      	ldr	r2, [pc, #112]	; (817f0 <vTaskSwitchContext+0x90>)
   81780:	491c      	ldr	r1, [pc, #112]	; (817f4 <vTaskSwitchContext+0x94>)
   81782:	e009      	b.n	81798 <vTaskSwitchContext+0x38>
   81784:	2201      	movs	r2, #1
   81786:	4b1c      	ldr	r3, [pc, #112]	; (817f8 <vTaskSwitchContext+0x98>)
   81788:	601a      	str	r2, [r3, #0]
   8178a:	bd10      	pop	{r4, pc}
   8178c:	6813      	ldr	r3, [r2, #0]
   8178e:	b91b      	cbnz	r3, 81798 <vTaskSwitchContext+0x38>
   81790:	4b1a      	ldr	r3, [pc, #104]	; (817fc <vTaskSwitchContext+0x9c>)
   81792:	4798      	blx	r3
   81794:	bf00      	nop
   81796:	e7fd      	b.n	81794 <vTaskSwitchContext+0x34>
   81798:	6813      	ldr	r3, [r2, #0]
   8179a:	3b01      	subs	r3, #1
   8179c:	6013      	str	r3, [r2, #0]
   8179e:	6813      	ldr	r3, [r2, #0]
   817a0:	eb03 0383 	add.w	r3, r3, r3, lsl #2
   817a4:	f851 3023 	ldr.w	r3, [r1, r3, lsl #2]
   817a8:	2b00      	cmp	r3, #0
   817aa:	d0ef      	beq.n	8178c <vTaskSwitchContext+0x2c>
   817ac:	4b10      	ldr	r3, [pc, #64]	; (817f0 <vTaskSwitchContext+0x90>)
   817ae:	681b      	ldr	r3, [r3, #0]
   817b0:	4a10      	ldr	r2, [pc, #64]	; (817f4 <vTaskSwitchContext+0x94>)
   817b2:	0099      	lsls	r1, r3, #2
   817b4:	18c8      	adds	r0, r1, r3
   817b6:	eb02 0080 	add.w	r0, r2, r0, lsl #2
   817ba:	6844      	ldr	r4, [r0, #4]
   817bc:	6864      	ldr	r4, [r4, #4]
   817be:	6044      	str	r4, [r0, #4]
   817c0:	4602      	mov	r2, r0
   817c2:	3208      	adds	r2, #8
   817c4:	4294      	cmp	r4, r2
   817c6:	d106      	bne.n	817d6 <vTaskSwitchContext+0x76>
   817c8:	6860      	ldr	r0, [r4, #4]
   817ca:	eb03 0183 	add.w	r1, r3, r3, lsl #2
   817ce:	4a09      	ldr	r2, [pc, #36]	; (817f4 <vTaskSwitchContext+0x94>)
   817d0:	eb02 0281 	add.w	r2, r2, r1, lsl #2
   817d4:	6050      	str	r0, [r2, #4]
   817d6:	eb03 0383 	add.w	r3, r3, r3, lsl #2
   817da:	4a06      	ldr	r2, [pc, #24]	; (817f4 <vTaskSwitchContext+0x94>)
   817dc:	eb02 0383 	add.w	r3, r2, r3, lsl #2
   817e0:	685b      	ldr	r3, [r3, #4]
   817e2:	68da      	ldr	r2, [r3, #12]
   817e4:	4b06      	ldr	r3, [pc, #24]	; (81800 <vTaskSwitchContext+0xa0>)
   817e6:	601a      	str	r2, [r3, #0]
   817e8:	bd10      	pop	{r4, pc}
   817ea:	bf00      	nop
   817ec:	2007ab40 	.word	0x2007ab40
   817f0:	2007aaa8 	.word	0x2007aaa8
   817f4:	2007aaac 	.word	0x2007aaac
   817f8:	2007ab54 	.word	0x2007ab54
   817fc:	00080949 	.word	0x00080949
   81800:	2007ab28 	.word	0x2007ab28

00081804 <vTaskPlaceOnEventList>:
   81804:	b538      	push	{r3, r4, r5, lr}
   81806:	b918      	cbnz	r0, 81810 <vTaskPlaceOnEventList+0xc>
   81808:	4b0e      	ldr	r3, [pc, #56]	; (81844 <vTaskPlaceOnEventList+0x40>)
   8180a:	4798      	blx	r3
   8180c:	bf00      	nop
   8180e:	e7fd      	b.n	8180c <vTaskPlaceOnEventList+0x8>
   81810:	460c      	mov	r4, r1
   81812:	4d0d      	ldr	r5, [pc, #52]	; (81848 <vTaskPlaceOnEventList+0x44>)
   81814:	6829      	ldr	r1, [r5, #0]
   81816:	3118      	adds	r1, #24
   81818:	4b0c      	ldr	r3, [pc, #48]	; (8184c <vTaskPlaceOnEventList+0x48>)
   8181a:	4798      	blx	r3
   8181c:	6828      	ldr	r0, [r5, #0]
   8181e:	3004      	adds	r0, #4
   81820:	4b0b      	ldr	r3, [pc, #44]	; (81850 <vTaskPlaceOnEventList+0x4c>)
   81822:	4798      	blx	r3
   81824:	f1b4 3fff 	cmp.w	r4, #4294967295
   81828:	d105      	bne.n	81836 <vTaskPlaceOnEventList+0x32>
   8182a:	6829      	ldr	r1, [r5, #0]
   8182c:	4809      	ldr	r0, [pc, #36]	; (81854 <vTaskPlaceOnEventList+0x50>)
   8182e:	3104      	adds	r1, #4
   81830:	4b09      	ldr	r3, [pc, #36]	; (81858 <vTaskPlaceOnEventList+0x54>)
   81832:	4798      	blx	r3
   81834:	bd38      	pop	{r3, r4, r5, pc}
   81836:	4b09      	ldr	r3, [pc, #36]	; (8185c <vTaskPlaceOnEventList+0x58>)
   81838:	6818      	ldr	r0, [r3, #0]
   8183a:	4420      	add	r0, r4
   8183c:	4b08      	ldr	r3, [pc, #32]	; (81860 <vTaskPlaceOnEventList+0x5c>)
   8183e:	4798      	blx	r3
   81840:	bd38      	pop	{r3, r4, r5, pc}
   81842:	bf00      	nop
   81844:	00080949 	.word	0x00080949
   81848:	2007ab28 	.word	0x2007ab28
   8184c:	00080885 	.word	0x00080885
   81850:	000808c1 	.word	0x000808c1
   81854:	2007aa60 	.word	0x2007aa60
   81858:	00080869 	.word	0x00080869
   8185c:	2007ab44 	.word	0x2007ab44
   81860:	000810ed 	.word	0x000810ed

00081864 <vTaskPlaceOnEventListRestricted>:
   81864:	b538      	push	{r3, r4, r5, lr}
   81866:	b918      	cbnz	r0, 81870 <vTaskPlaceOnEventListRestricted+0xc>
   81868:	4b09      	ldr	r3, [pc, #36]	; (81890 <vTaskPlaceOnEventListRestricted+0x2c>)
   8186a:	4798      	blx	r3
   8186c:	bf00      	nop
   8186e:	e7fd      	b.n	8186c <vTaskPlaceOnEventListRestricted+0x8>
   81870:	460d      	mov	r5, r1
   81872:	4c08      	ldr	r4, [pc, #32]	; (81894 <vTaskPlaceOnEventListRestricted+0x30>)
   81874:	6821      	ldr	r1, [r4, #0]
   81876:	3118      	adds	r1, #24
   81878:	4b07      	ldr	r3, [pc, #28]	; (81898 <vTaskPlaceOnEventListRestricted+0x34>)
   8187a:	4798      	blx	r3
   8187c:	6820      	ldr	r0, [r4, #0]
   8187e:	3004      	adds	r0, #4
   81880:	4b06      	ldr	r3, [pc, #24]	; (8189c <vTaskPlaceOnEventListRestricted+0x38>)
   81882:	4798      	blx	r3
   81884:	4b06      	ldr	r3, [pc, #24]	; (818a0 <vTaskPlaceOnEventListRestricted+0x3c>)
   81886:	6818      	ldr	r0, [r3, #0]
   81888:	4428      	add	r0, r5
   8188a:	4b06      	ldr	r3, [pc, #24]	; (818a4 <vTaskPlaceOnEventListRestricted+0x40>)
   8188c:	4798      	blx	r3
   8188e:	bd38      	pop	{r3, r4, r5, pc}
   81890:	00080949 	.word	0x00080949
   81894:	2007ab28 	.word	0x2007ab28
   81898:	00080869 	.word	0x00080869
   8189c:	000808c1 	.word	0x000808c1
   818a0:	2007ab44 	.word	0x2007ab44
   818a4:	000810ed 	.word	0x000810ed

000818a8 <xTaskRemoveFromEventList>:
   818a8:	b538      	push	{r3, r4, r5, lr}
   818aa:	68c3      	ldr	r3, [r0, #12]
   818ac:	68dc      	ldr	r4, [r3, #12]
   818ae:	b91c      	cbnz	r4, 818b8 <xTaskRemoveFromEventList+0x10>
   818b0:	4b16      	ldr	r3, [pc, #88]	; (8190c <xTaskRemoveFromEventList+0x64>)
   818b2:	4798      	blx	r3
   818b4:	bf00      	nop
   818b6:	e7fd      	b.n	818b4 <xTaskRemoveFromEventList+0xc>
   818b8:	f104 0518 	add.w	r5, r4, #24
   818bc:	4628      	mov	r0, r5
   818be:	4b14      	ldr	r3, [pc, #80]	; (81910 <xTaskRemoveFromEventList+0x68>)
   818c0:	4798      	blx	r3
   818c2:	4b14      	ldr	r3, [pc, #80]	; (81914 <xTaskRemoveFromEventList+0x6c>)
   818c4:	681b      	ldr	r3, [r3, #0]
   818c6:	b99b      	cbnz	r3, 818f0 <xTaskRemoveFromEventList+0x48>
   818c8:	1d25      	adds	r5, r4, #4
   818ca:	4628      	mov	r0, r5
   818cc:	4b10      	ldr	r3, [pc, #64]	; (81910 <xTaskRemoveFromEventList+0x68>)
   818ce:	4798      	blx	r3
   818d0:	6ae0      	ldr	r0, [r4, #44]	; 0x2c
   818d2:	4b11      	ldr	r3, [pc, #68]	; (81918 <xTaskRemoveFromEventList+0x70>)
   818d4:	681b      	ldr	r3, [r3, #0]
   818d6:	4298      	cmp	r0, r3
   818d8:	bf84      	itt	hi
   818da:	4b0f      	ldrhi	r3, [pc, #60]	; (81918 <xTaskRemoveFromEventList+0x70>)
   818dc:	6018      	strhi	r0, [r3, #0]
   818de:	eb00 0080 	add.w	r0, r0, r0, lsl #2
   818e2:	4b0e      	ldr	r3, [pc, #56]	; (8191c <xTaskRemoveFromEventList+0x74>)
   818e4:	eb03 0080 	add.w	r0, r3, r0, lsl #2
   818e8:	4629      	mov	r1, r5
   818ea:	4b0d      	ldr	r3, [pc, #52]	; (81920 <xTaskRemoveFromEventList+0x78>)
   818ec:	4798      	blx	r3
   818ee:	e003      	b.n	818f8 <xTaskRemoveFromEventList+0x50>
   818f0:	480c      	ldr	r0, [pc, #48]	; (81924 <xTaskRemoveFromEventList+0x7c>)
   818f2:	4629      	mov	r1, r5
   818f4:	4b0a      	ldr	r3, [pc, #40]	; (81920 <xTaskRemoveFromEventList+0x78>)
   818f6:	4798      	blx	r3
   818f8:	4b0b      	ldr	r3, [pc, #44]	; (81928 <xTaskRemoveFromEventList+0x80>)
   818fa:	681b      	ldr	r3, [r3, #0]
   818fc:	6ae0      	ldr	r0, [r4, #44]	; 0x2c
   818fe:	6adb      	ldr	r3, [r3, #44]	; 0x2c
   81900:	4298      	cmp	r0, r3
   81902:	bf34      	ite	cc
   81904:	2000      	movcc	r0, #0
   81906:	2001      	movcs	r0, #1
   81908:	bd38      	pop	{r3, r4, r5, pc}
   8190a:	bf00      	nop
   8190c:	00080949 	.word	0x00080949
   81910:	000808c1 	.word	0x000808c1
   81914:	2007ab40 	.word	0x2007ab40
   81918:	2007aaa8 	.word	0x2007aaa8
   8191c:	2007aaac 	.word	0x2007aaac
   81920:	00080869 	.word	0x00080869
   81924:	2007ab2c 	.word	0x2007ab2c
   81928:	2007ab28 	.word	0x2007ab28

0008192c <vTaskSetTimeOutState>:
   8192c:	b508      	push	{r3, lr}
   8192e:	b918      	cbnz	r0, 81938 <vTaskSetTimeOutState+0xc>
   81930:	4b05      	ldr	r3, [pc, #20]	; (81948 <vTaskSetTimeOutState+0x1c>)
   81932:	4798      	blx	r3
   81934:	bf00      	nop
   81936:	e7fd      	b.n	81934 <vTaskSetTimeOutState+0x8>
   81938:	4a04      	ldr	r2, [pc, #16]	; (8194c <vTaskSetTimeOutState+0x20>)
   8193a:	6812      	ldr	r2, [r2, #0]
   8193c:	6002      	str	r2, [r0, #0]
   8193e:	4a04      	ldr	r2, [pc, #16]	; (81950 <vTaskSetTimeOutState+0x24>)
   81940:	6812      	ldr	r2, [r2, #0]
   81942:	6042      	str	r2, [r0, #4]
   81944:	bd08      	pop	{r3, pc}
   81946:	bf00      	nop
   81948:	00080949 	.word	0x00080949
   8194c:	2007ab24 	.word	0x2007ab24
   81950:	2007ab44 	.word	0x2007ab44

00081954 <xTaskCheckForTimeOut>:
   81954:	b538      	push	{r3, r4, r5, lr}
   81956:	b918      	cbnz	r0, 81960 <xTaskCheckForTimeOut+0xc>
   81958:	4b19      	ldr	r3, [pc, #100]	; (819c0 <xTaskCheckForTimeOut+0x6c>)
   8195a:	4798      	blx	r3
   8195c:	bf00      	nop
   8195e:	e7fd      	b.n	8195c <xTaskCheckForTimeOut+0x8>
   81960:	460d      	mov	r5, r1
   81962:	4604      	mov	r4, r0
   81964:	b919      	cbnz	r1, 8196e <xTaskCheckForTimeOut+0x1a>
   81966:	4b16      	ldr	r3, [pc, #88]	; (819c0 <xTaskCheckForTimeOut+0x6c>)
   81968:	4798      	blx	r3
   8196a:	bf00      	nop
   8196c:	e7fd      	b.n	8196a <xTaskCheckForTimeOut+0x16>
   8196e:	4b15      	ldr	r3, [pc, #84]	; (819c4 <xTaskCheckForTimeOut+0x70>)
   81970:	4798      	blx	r3
   81972:	682b      	ldr	r3, [r5, #0]
   81974:	f1b3 3fff 	cmp.w	r3, #4294967295
   81978:	d018      	beq.n	819ac <xTaskCheckForTimeOut+0x58>
   8197a:	4a13      	ldr	r2, [pc, #76]	; (819c8 <xTaskCheckForTimeOut+0x74>)
   8197c:	6812      	ldr	r2, [r2, #0]
   8197e:	6821      	ldr	r1, [r4, #0]
   81980:	4291      	cmp	r1, r2
   81982:	d004      	beq.n	8198e <xTaskCheckForTimeOut+0x3a>
   81984:	4a11      	ldr	r2, [pc, #68]	; (819cc <xTaskCheckForTimeOut+0x78>)
   81986:	6812      	ldr	r2, [r2, #0]
   81988:	6861      	ldr	r1, [r4, #4]
   8198a:	4291      	cmp	r1, r2
   8198c:	d910      	bls.n	819b0 <xTaskCheckForTimeOut+0x5c>
   8198e:	4a0f      	ldr	r2, [pc, #60]	; (819cc <xTaskCheckForTimeOut+0x78>)
   81990:	6811      	ldr	r1, [r2, #0]
   81992:	6860      	ldr	r0, [r4, #4]
   81994:	1a09      	subs	r1, r1, r0
   81996:	428b      	cmp	r3, r1
   81998:	d90c      	bls.n	819b4 <xTaskCheckForTimeOut+0x60>
   8199a:	6812      	ldr	r2, [r2, #0]
   8199c:	1a12      	subs	r2, r2, r0
   8199e:	1a9b      	subs	r3, r3, r2
   819a0:	602b      	str	r3, [r5, #0]
   819a2:	4620      	mov	r0, r4
   819a4:	4b0a      	ldr	r3, [pc, #40]	; (819d0 <xTaskCheckForTimeOut+0x7c>)
   819a6:	4798      	blx	r3
   819a8:	2400      	movs	r4, #0
   819aa:	e004      	b.n	819b6 <xTaskCheckForTimeOut+0x62>
   819ac:	2400      	movs	r4, #0
   819ae:	e002      	b.n	819b6 <xTaskCheckForTimeOut+0x62>
   819b0:	2401      	movs	r4, #1
   819b2:	e000      	b.n	819b6 <xTaskCheckForTimeOut+0x62>
   819b4:	2401      	movs	r4, #1
   819b6:	4b07      	ldr	r3, [pc, #28]	; (819d4 <xTaskCheckForTimeOut+0x80>)
   819b8:	4798      	blx	r3
   819ba:	4620      	mov	r0, r4
   819bc:	bd38      	pop	{r3, r4, r5, pc}
   819be:	bf00      	nop
   819c0:	00080949 	.word	0x00080949
   819c4:	00080959 	.word	0x00080959
   819c8:	2007ab24 	.word	0x2007ab24
   819cc:	2007ab44 	.word	0x2007ab44
   819d0:	0008192d 	.word	0x0008192d
   819d4:	00080979 	.word	0x00080979

000819d8 <vTaskMissedYield>:
   819d8:	2201      	movs	r2, #1
   819da:	4b01      	ldr	r3, [pc, #4]	; (819e0 <vTaskMissedYield+0x8>)
   819dc:	601a      	str	r2, [r3, #0]
   819de:	4770      	bx	lr
   819e0:	2007ab54 	.word	0x2007ab54

000819e4 <xTaskGetCurrentTaskHandle>:
   819e4:	4b01      	ldr	r3, [pc, #4]	; (819ec <xTaskGetCurrentTaskHandle+0x8>)
   819e6:	6818      	ldr	r0, [r3, #0]
   819e8:	4770      	bx	lr
   819ea:	bf00      	nop
   819ec:	2007ab28 	.word	0x2007ab28

000819f0 <xTaskGetSchedulerState>:
   819f0:	4b05      	ldr	r3, [pc, #20]	; (81a08 <xTaskGetSchedulerState+0x18>)
   819f2:	681b      	ldr	r3, [r3, #0]
   819f4:	b133      	cbz	r3, 81a04 <xTaskGetSchedulerState+0x14>
   819f6:	4b05      	ldr	r3, [pc, #20]	; (81a0c <xTaskGetSchedulerState+0x1c>)
   819f8:	681b      	ldr	r3, [r3, #0]
   819fa:	2b00      	cmp	r3, #0
   819fc:	bf0c      	ite	eq
   819fe:	2001      	moveq	r0, #1
   81a00:	2002      	movne	r0, #2
   81a02:	4770      	bx	lr
   81a04:	2000      	movs	r0, #0
   81a06:	4770      	bx	lr
   81a08:	2007aa78 	.word	0x2007aa78
   81a0c:	2007ab40 	.word	0x2007ab40

00081a10 <vTaskPriorityInherit>:
   81a10:	2800      	cmp	r0, #0
   81a12:	d031      	beq.n	81a78 <vTaskPriorityInherit+0x68>
   81a14:	b538      	push	{r3, r4, r5, lr}
   81a16:	6ac3      	ldr	r3, [r0, #44]	; 0x2c
   81a18:	4918      	ldr	r1, [pc, #96]	; (81a7c <vTaskPriorityInherit+0x6c>)
   81a1a:	6809      	ldr	r1, [r1, #0]
   81a1c:	6ac9      	ldr	r1, [r1, #44]	; 0x2c
   81a1e:	428b      	cmp	r3, r1
   81a20:	d229      	bcs.n	81a76 <vTaskPriorityInherit+0x66>
   81a22:	4916      	ldr	r1, [pc, #88]	; (81a7c <vTaskPriorityInherit+0x6c>)
   81a24:	6809      	ldr	r1, [r1, #0]
   81a26:	6ac9      	ldr	r1, [r1, #44]	; 0x2c
   81a28:	f1c1 0105 	rsb	r1, r1, #5
   81a2c:	6181      	str	r1, [r0, #24]
   81a2e:	eb03 0383 	add.w	r3, r3, r3, lsl #2
   81a32:	4913      	ldr	r1, [pc, #76]	; (81a80 <vTaskPriorityInherit+0x70>)
   81a34:	eb01 0383 	add.w	r3, r1, r3, lsl #2
   81a38:	6941      	ldr	r1, [r0, #20]
   81a3a:	4299      	cmp	r1, r3
   81a3c:	d117      	bne.n	81a6e <vTaskPriorityInherit+0x5e>
   81a3e:	4605      	mov	r5, r0
   81a40:	1d04      	adds	r4, r0, #4
   81a42:	4620      	mov	r0, r4
   81a44:	4b0f      	ldr	r3, [pc, #60]	; (81a84 <vTaskPriorityInherit+0x74>)
   81a46:	4798      	blx	r3
   81a48:	4b0c      	ldr	r3, [pc, #48]	; (81a7c <vTaskPriorityInherit+0x6c>)
   81a4a:	681b      	ldr	r3, [r3, #0]
   81a4c:	6ad8      	ldr	r0, [r3, #44]	; 0x2c
   81a4e:	62e8      	str	r0, [r5, #44]	; 0x2c
   81a50:	4b0d      	ldr	r3, [pc, #52]	; (81a88 <vTaskPriorityInherit+0x78>)
   81a52:	681b      	ldr	r3, [r3, #0]
   81a54:	4298      	cmp	r0, r3
   81a56:	bf84      	itt	hi
   81a58:	4b0b      	ldrhi	r3, [pc, #44]	; (81a88 <vTaskPriorityInherit+0x78>)
   81a5a:	6018      	strhi	r0, [r3, #0]
   81a5c:	eb00 0080 	add.w	r0, r0, r0, lsl #2
   81a60:	4b07      	ldr	r3, [pc, #28]	; (81a80 <vTaskPriorityInherit+0x70>)
   81a62:	eb03 0080 	add.w	r0, r3, r0, lsl #2
   81a66:	4621      	mov	r1, r4
   81a68:	4b08      	ldr	r3, [pc, #32]	; (81a8c <vTaskPriorityInherit+0x7c>)
   81a6a:	4798      	blx	r3
   81a6c:	bd38      	pop	{r3, r4, r5, pc}
   81a6e:	4b03      	ldr	r3, [pc, #12]	; (81a7c <vTaskPriorityInherit+0x6c>)
   81a70:	681b      	ldr	r3, [r3, #0]
   81a72:	6adb      	ldr	r3, [r3, #44]	; 0x2c
   81a74:	62c3      	str	r3, [r0, #44]	; 0x2c
   81a76:	bd38      	pop	{r3, r4, r5, pc}
   81a78:	4770      	bx	lr
   81a7a:	bf00      	nop
   81a7c:	2007ab28 	.word	0x2007ab28
   81a80:	2007aaac 	.word	0x2007aaac
   81a84:	000808c1 	.word	0x000808c1
   81a88:	2007aaa8 	.word	0x2007aaa8
   81a8c:	00080869 	.word	0x00080869

00081a90 <vTaskPriorityDisinherit>:
   81a90:	b1e8      	cbz	r0, 81ace <vTaskPriorityDisinherit+0x3e>
   81a92:	b538      	push	{r3, r4, r5, lr}
   81a94:	6ac1      	ldr	r1, [r0, #44]	; 0x2c
   81a96:	6c82      	ldr	r2, [r0, #72]	; 0x48
   81a98:	4291      	cmp	r1, r2
   81a9a:	d017      	beq.n	81acc <vTaskPriorityDisinherit+0x3c>
   81a9c:	4604      	mov	r4, r0
   81a9e:	1d05      	adds	r5, r0, #4
   81aa0:	4628      	mov	r0, r5
   81aa2:	4b0b      	ldr	r3, [pc, #44]	; (81ad0 <vTaskPriorityDisinherit+0x40>)
   81aa4:	4798      	blx	r3
   81aa6:	6ca0      	ldr	r0, [r4, #72]	; 0x48
   81aa8:	62e0      	str	r0, [r4, #44]	; 0x2c
   81aaa:	f1c0 0305 	rsb	r3, r0, #5
   81aae:	61a3      	str	r3, [r4, #24]
   81ab0:	4b08      	ldr	r3, [pc, #32]	; (81ad4 <vTaskPriorityDisinherit+0x44>)
   81ab2:	681b      	ldr	r3, [r3, #0]
   81ab4:	4298      	cmp	r0, r3
   81ab6:	bf84      	itt	hi
   81ab8:	4b06      	ldrhi	r3, [pc, #24]	; (81ad4 <vTaskPriorityDisinherit+0x44>)
   81aba:	6018      	strhi	r0, [r3, #0]
   81abc:	eb00 0080 	add.w	r0, r0, r0, lsl #2
   81ac0:	4b05      	ldr	r3, [pc, #20]	; (81ad8 <vTaskPriorityDisinherit+0x48>)
   81ac2:	eb03 0080 	add.w	r0, r3, r0, lsl #2
   81ac6:	4629      	mov	r1, r5
   81ac8:	4b04      	ldr	r3, [pc, #16]	; (81adc <vTaskPriorityDisinherit+0x4c>)
   81aca:	4798      	blx	r3
   81acc:	bd38      	pop	{r3, r4, r5, pc}
   81ace:	4770      	bx	lr
   81ad0:	000808c1 	.word	0x000808c1
   81ad4:	2007aaa8 	.word	0x2007aaa8
   81ad8:	2007aaac 	.word	0x2007aaac
   81adc:	00080869 	.word	0x00080869

00081ae0 <prvInsertTimerInActiveList>:
   81ae0:	b510      	push	{r4, lr}
   81ae2:	4604      	mov	r4, r0
   81ae4:	6041      	str	r1, [r0, #4]
   81ae6:	6120      	str	r0, [r4, #16]
   81ae8:	4291      	cmp	r1, r2
   81aea:	d80a      	bhi.n	81b02 <prvInsertTimerInActiveList+0x22>
   81aec:	1ad2      	subs	r2, r2, r3
   81aee:	6983      	ldr	r3, [r0, #24]
   81af0:	429a      	cmp	r2, r3
   81af2:	d211      	bcs.n	81b18 <prvInsertTimerInActiveList+0x38>
   81af4:	4b0a      	ldr	r3, [pc, #40]	; (81b20 <prvInsertTimerInActiveList+0x40>)
   81af6:	6818      	ldr	r0, [r3, #0]
   81af8:	1d21      	adds	r1, r4, #4
   81afa:	4b0a      	ldr	r3, [pc, #40]	; (81b24 <prvInsertTimerInActiveList+0x44>)
   81afc:	4798      	blx	r3
   81afe:	2000      	movs	r0, #0
   81b00:	bd10      	pop	{r4, pc}
   81b02:	429a      	cmp	r2, r3
   81b04:	d201      	bcs.n	81b0a <prvInsertTimerInActiveList+0x2a>
   81b06:	4299      	cmp	r1, r3
   81b08:	d208      	bcs.n	81b1c <prvInsertTimerInActiveList+0x3c>
   81b0a:	4b07      	ldr	r3, [pc, #28]	; (81b28 <prvInsertTimerInActiveList+0x48>)
   81b0c:	6818      	ldr	r0, [r3, #0]
   81b0e:	1d21      	adds	r1, r4, #4
   81b10:	4b04      	ldr	r3, [pc, #16]	; (81b24 <prvInsertTimerInActiveList+0x44>)
   81b12:	4798      	blx	r3
   81b14:	2000      	movs	r0, #0
   81b16:	bd10      	pop	{r4, pc}
   81b18:	2001      	movs	r0, #1
   81b1a:	bd10      	pop	{r4, pc}
   81b1c:	2001      	movs	r0, #1
   81b1e:	bd10      	pop	{r4, pc}
   81b20:	2007ab90 	.word	0x2007ab90
   81b24:	00080885 	.word	0x00080885
   81b28:	2007ab5c 	.word	0x2007ab5c

00081b2c <prvCheckForValidListAndQueue>:
   81b2c:	b570      	push	{r4, r5, r6, lr}
   81b2e:	4b0d      	ldr	r3, [pc, #52]	; (81b64 <prvCheckForValidListAndQueue+0x38>)
   81b30:	4798      	blx	r3
   81b32:	4b0d      	ldr	r3, [pc, #52]	; (81b68 <prvCheckForValidListAndQueue+0x3c>)
   81b34:	681b      	ldr	r3, [r3, #0]
   81b36:	b98b      	cbnz	r3, 81b5c <prvCheckForValidListAndQueue+0x30>
   81b38:	4d0c      	ldr	r5, [pc, #48]	; (81b6c <prvCheckForValidListAndQueue+0x40>)
   81b3a:	4628      	mov	r0, r5
   81b3c:	4e0c      	ldr	r6, [pc, #48]	; (81b70 <prvCheckForValidListAndQueue+0x44>)
   81b3e:	47b0      	blx	r6
   81b40:	4c0c      	ldr	r4, [pc, #48]	; (81b74 <prvCheckForValidListAndQueue+0x48>)
   81b42:	4620      	mov	r0, r4
   81b44:	47b0      	blx	r6
   81b46:	4b0c      	ldr	r3, [pc, #48]	; (81b78 <prvCheckForValidListAndQueue+0x4c>)
   81b48:	601d      	str	r5, [r3, #0]
   81b4a:	4b0c      	ldr	r3, [pc, #48]	; (81b7c <prvCheckForValidListAndQueue+0x50>)
   81b4c:	601c      	str	r4, [r3, #0]
   81b4e:	2005      	movs	r0, #5
   81b50:	210c      	movs	r1, #12
   81b52:	2200      	movs	r2, #0
   81b54:	4b0a      	ldr	r3, [pc, #40]	; (81b80 <prvCheckForValidListAndQueue+0x54>)
   81b56:	4798      	blx	r3
   81b58:	4b03      	ldr	r3, [pc, #12]	; (81b68 <prvCheckForValidListAndQueue+0x3c>)
   81b5a:	6018      	str	r0, [r3, #0]
   81b5c:	4b09      	ldr	r3, [pc, #36]	; (81b84 <prvCheckForValidListAndQueue+0x58>)
   81b5e:	4798      	blx	r3
   81b60:	bd70      	pop	{r4, r5, r6, pc}
   81b62:	bf00      	nop
   81b64:	00080959 	.word	0x00080959
   81b68:	2007ab8c 	.word	0x2007ab8c
   81b6c:	2007ab60 	.word	0x2007ab60
   81b70:	00080849 	.word	0x00080849
   81b74:	2007ab74 	.word	0x2007ab74
   81b78:	2007ab5c 	.word	0x2007ab5c
   81b7c:	2007ab90 	.word	0x2007ab90
   81b80:	00080d3d 	.word	0x00080d3d
   81b84:	00080979 	.word	0x00080979

00081b88 <xTimerCreateTimerTask>:
   81b88:	b510      	push	{r4, lr}
   81b8a:	b084      	sub	sp, #16
   81b8c:	4b0b      	ldr	r3, [pc, #44]	; (81bbc <xTimerCreateTimerTask+0x34>)
   81b8e:	4798      	blx	r3
   81b90:	4b0b      	ldr	r3, [pc, #44]	; (81bc0 <xTimerCreateTimerTask+0x38>)
   81b92:	681b      	ldr	r3, [r3, #0]
   81b94:	b163      	cbz	r3, 81bb0 <xTimerCreateTimerTask+0x28>
   81b96:	2304      	movs	r3, #4
   81b98:	9300      	str	r3, [sp, #0]
   81b9a:	2300      	movs	r3, #0
   81b9c:	9301      	str	r3, [sp, #4]
   81b9e:	9302      	str	r3, [sp, #8]
   81ba0:	9303      	str	r3, [sp, #12]
   81ba2:	4808      	ldr	r0, [pc, #32]	; (81bc4 <xTimerCreateTimerTask+0x3c>)
   81ba4:	4908      	ldr	r1, [pc, #32]	; (81bc8 <xTimerCreateTimerTask+0x40>)
   81ba6:	f44f 7282 	mov.w	r2, #260	; 0x104
   81baa:	4c08      	ldr	r4, [pc, #32]	; (81bcc <xTimerCreateTimerTask+0x44>)
   81bac:	47a0      	blx	r4
   81bae:	b918      	cbnz	r0, 81bb8 <xTimerCreateTimerTask+0x30>
   81bb0:	4b07      	ldr	r3, [pc, #28]	; (81bd0 <xTimerCreateTimerTask+0x48>)
   81bb2:	4798      	blx	r3
   81bb4:	bf00      	nop
   81bb6:	e7fd      	b.n	81bb4 <xTimerCreateTimerTask+0x2c>
   81bb8:	b004      	add	sp, #16
   81bba:	bd10      	pop	{r4, pc}
   81bbc:	00081b2d 	.word	0x00081b2d
   81bc0:	2007ab8c 	.word	0x2007ab8c
   81bc4:	00081cdd 	.word	0x00081cdd
   81bc8:	00087bec 	.word	0x00087bec
   81bcc:	00081145 	.word	0x00081145
   81bd0:	00080949 	.word	0x00080949

00081bd4 <xTimerGenericCommand>:
   81bd4:	b530      	push	{r4, r5, lr}
   81bd6:	b085      	sub	sp, #20
   81bd8:	4c0f      	ldr	r4, [pc, #60]	; (81c18 <xTimerGenericCommand+0x44>)
   81bda:	6825      	ldr	r5, [r4, #0]
   81bdc:	b1c5      	cbz	r5, 81c10 <xTimerGenericCommand+0x3c>
   81bde:	9101      	str	r1, [sp, #4]
   81be0:	9202      	str	r2, [sp, #8]
   81be2:	9003      	str	r0, [sp, #12]
   81be4:	b96b      	cbnz	r3, 81c02 <xTimerGenericCommand+0x2e>
   81be6:	4b0d      	ldr	r3, [pc, #52]	; (81c1c <xTimerGenericCommand+0x48>)
   81be8:	4798      	blx	r3
   81bea:	2801      	cmp	r0, #1
   81bec:	4b0a      	ldr	r3, [pc, #40]	; (81c18 <xTimerGenericCommand+0x44>)
   81bee:	6818      	ldr	r0, [r3, #0]
   81bf0:	a901      	add	r1, sp, #4
   81bf2:	bf07      	ittee	eq
   81bf4:	9a08      	ldreq	r2, [sp, #32]
   81bf6:	2300      	moveq	r3, #0
   81bf8:	2200      	movne	r2, #0
   81bfa:	4613      	movne	r3, r2
   81bfc:	4c08      	ldr	r4, [pc, #32]	; (81c20 <xTimerGenericCommand+0x4c>)
   81bfe:	47a0      	blx	r4
   81c00:	e007      	b.n	81c12 <xTimerGenericCommand+0x3e>
   81c02:	4628      	mov	r0, r5
   81c04:	a901      	add	r1, sp, #4
   81c06:	461a      	mov	r2, r3
   81c08:	2300      	movs	r3, #0
   81c0a:	4c06      	ldr	r4, [pc, #24]	; (81c24 <xTimerGenericCommand+0x50>)
   81c0c:	47a0      	blx	r4
   81c0e:	e000      	b.n	81c12 <xTimerGenericCommand+0x3e>
   81c10:	2000      	movs	r0, #0
   81c12:	b005      	add	sp, #20
   81c14:	bd30      	pop	{r4, r5, pc}
   81c16:	bf00      	nop
   81c18:	2007ab8c 	.word	0x2007ab8c
   81c1c:	000819f1 	.word	0x000819f1
   81c20:	00080d95 	.word	0x00080d95
   81c24:	00080eb5 	.word	0x00080eb5

00081c28 <prvSampleTimeNow>:
   81c28:	e92d 47f0 	stmdb	sp!, {r4, r5, r6, r7, r8, r9, sl, lr}
   81c2c:	b082      	sub	sp, #8
   81c2e:	4681      	mov	r9, r0
   81c30:	4b22      	ldr	r3, [pc, #136]	; (81cbc <prvSampleTimeNow+0x94>)
   81c32:	4798      	blx	r3
   81c34:	4680      	mov	r8, r0
   81c36:	4b22      	ldr	r3, [pc, #136]	; (81cc0 <prvSampleTimeNow+0x98>)
   81c38:	681b      	ldr	r3, [r3, #0]
   81c3a:	4298      	cmp	r0, r3
   81c3c:	d234      	bcs.n	81ca8 <prvSampleTimeNow+0x80>
   81c3e:	e024      	b.n	81c8a <prvSampleTimeNow+0x62>
   81c40:	68da      	ldr	r2, [r3, #12]
   81c42:	f8d2 a000 	ldr.w	sl, [r2]
   81c46:	68db      	ldr	r3, [r3, #12]
   81c48:	68dc      	ldr	r4, [r3, #12]
   81c4a:	1d25      	adds	r5, r4, #4
   81c4c:	4628      	mov	r0, r5
   81c4e:	47b8      	blx	r7
   81c50:	6a63      	ldr	r3, [r4, #36]	; 0x24
   81c52:	4620      	mov	r0, r4
   81c54:	4798      	blx	r3
   81c56:	69e3      	ldr	r3, [r4, #28]
   81c58:	2b01      	cmp	r3, #1
   81c5a:	d118      	bne.n	81c8e <prvSampleTimeNow+0x66>
   81c5c:	69a3      	ldr	r3, [r4, #24]
   81c5e:	4453      	add	r3, sl
   81c60:	4553      	cmp	r3, sl
   81c62:	d906      	bls.n	81c72 <prvSampleTimeNow+0x4a>
   81c64:	6063      	str	r3, [r4, #4]
   81c66:	6124      	str	r4, [r4, #16]
   81c68:	6830      	ldr	r0, [r6, #0]
   81c6a:	4629      	mov	r1, r5
   81c6c:	4b15      	ldr	r3, [pc, #84]	; (81cc4 <prvSampleTimeNow+0x9c>)
   81c6e:	4798      	blx	r3
   81c70:	e00d      	b.n	81c8e <prvSampleTimeNow+0x66>
   81c72:	2300      	movs	r3, #0
   81c74:	9300      	str	r3, [sp, #0]
   81c76:	4620      	mov	r0, r4
   81c78:	4619      	mov	r1, r3
   81c7a:	4652      	mov	r2, sl
   81c7c:	4c12      	ldr	r4, [pc, #72]	; (81cc8 <prvSampleTimeNow+0xa0>)
   81c7e:	47a0      	blx	r4
   81c80:	b928      	cbnz	r0, 81c8e <prvSampleTimeNow+0x66>
   81c82:	4b12      	ldr	r3, [pc, #72]	; (81ccc <prvSampleTimeNow+0xa4>)
   81c84:	4798      	blx	r3
   81c86:	bf00      	nop
   81c88:	e7fd      	b.n	81c86 <prvSampleTimeNow+0x5e>
   81c8a:	4e11      	ldr	r6, [pc, #68]	; (81cd0 <prvSampleTimeNow+0xa8>)
   81c8c:	4f11      	ldr	r7, [pc, #68]	; (81cd4 <prvSampleTimeNow+0xac>)
   81c8e:	6833      	ldr	r3, [r6, #0]
   81c90:	681a      	ldr	r2, [r3, #0]
   81c92:	2a00      	cmp	r2, #0
   81c94:	d1d4      	bne.n	81c40 <prvSampleTimeNow+0x18>
   81c96:	4a10      	ldr	r2, [pc, #64]	; (81cd8 <prvSampleTimeNow+0xb0>)
   81c98:	6810      	ldr	r0, [r2, #0]
   81c9a:	490d      	ldr	r1, [pc, #52]	; (81cd0 <prvSampleTimeNow+0xa8>)
   81c9c:	6008      	str	r0, [r1, #0]
   81c9e:	6013      	str	r3, [r2, #0]
   81ca0:	2301      	movs	r3, #1
   81ca2:	f8c9 3000 	str.w	r3, [r9]
   81ca6:	e002      	b.n	81cae <prvSampleTimeNow+0x86>
   81ca8:	2300      	movs	r3, #0
   81caa:	f8c9 3000 	str.w	r3, [r9]
   81cae:	4b04      	ldr	r3, [pc, #16]	; (81cc0 <prvSampleTimeNow+0x98>)
   81cb0:	f8c3 8000 	str.w	r8, [r3]
   81cb4:	4640      	mov	r0, r8
   81cb6:	b002      	add	sp, #8
   81cb8:	e8bd 87f0 	ldmia.w	sp!, {r4, r5, r6, r7, r8, r9, sl, pc}
   81cbc:	000813c1 	.word	0x000813c1
   81cc0:	2007ab88 	.word	0x2007ab88
   81cc4:	00080885 	.word	0x00080885
   81cc8:	00081bd5 	.word	0x00081bd5
   81ccc:	00080949 	.word	0x00080949
   81cd0:	2007ab5c 	.word	0x2007ab5c
   81cd4:	000808c1 	.word	0x000808c1
   81cd8:	2007ab90 	.word	0x2007ab90

00081cdc <prvTimerTask>:
   81cdc:	e92d 43f0 	stmdb	sp!, {r4, r5, r6, r7, r8, r9, lr}
   81ce0:	b087      	sub	sp, #28
   81ce2:	4d4d      	ldr	r5, [pc, #308]	; (81e18 <prvTimerTask+0x13c>)
   81ce4:	f8df 8160 	ldr.w	r8, [pc, #352]	; 81e48 <prvTimerTask+0x16c>
   81ce8:	4b4c      	ldr	r3, [pc, #304]	; (81e1c <prvTimerTask+0x140>)
   81cea:	681b      	ldr	r3, [r3, #0]
   81cec:	681a      	ldr	r2, [r3, #0]
   81cee:	2a00      	cmp	r2, #0
   81cf0:	f000 8087 	beq.w	81e02 <prvTimerTask+0x126>
   81cf4:	68db      	ldr	r3, [r3, #12]
   81cf6:	681e      	ldr	r6, [r3, #0]
   81cf8:	4b49      	ldr	r3, [pc, #292]	; (81e20 <prvTimerTask+0x144>)
   81cfa:	4798      	blx	r3
   81cfc:	a803      	add	r0, sp, #12
   81cfe:	4b49      	ldr	r3, [pc, #292]	; (81e24 <prvTimerTask+0x148>)
   81d00:	4798      	blx	r3
   81d02:	4607      	mov	r7, r0
   81d04:	9b03      	ldr	r3, [sp, #12]
   81d06:	2b00      	cmp	r3, #0
   81d08:	d130      	bne.n	81d6c <prvTimerTask+0x90>
   81d0a:	4286      	cmp	r6, r0
   81d0c:	d824      	bhi.n	81d58 <prvTimerTask+0x7c>
   81d0e:	4b46      	ldr	r3, [pc, #280]	; (81e28 <prvTimerTask+0x14c>)
   81d10:	4798      	blx	r3
   81d12:	4b42      	ldr	r3, [pc, #264]	; (81e1c <prvTimerTask+0x140>)
   81d14:	681b      	ldr	r3, [r3, #0]
   81d16:	68db      	ldr	r3, [r3, #12]
   81d18:	68dc      	ldr	r4, [r3, #12]
   81d1a:	1d20      	adds	r0, r4, #4
   81d1c:	47c0      	blx	r8
   81d1e:	69e3      	ldr	r3, [r4, #28]
   81d20:	2b01      	cmp	r3, #1
   81d22:	d114      	bne.n	81d4e <prvTimerTask+0x72>
   81d24:	69a1      	ldr	r1, [r4, #24]
   81d26:	4620      	mov	r0, r4
   81d28:	4431      	add	r1, r6
   81d2a:	463a      	mov	r2, r7
   81d2c:	4633      	mov	r3, r6
   81d2e:	4f3f      	ldr	r7, [pc, #252]	; (81e2c <prvTimerTask+0x150>)
   81d30:	47b8      	blx	r7
   81d32:	2801      	cmp	r0, #1
   81d34:	d10b      	bne.n	81d4e <prvTimerTask+0x72>
   81d36:	2300      	movs	r3, #0
   81d38:	9300      	str	r3, [sp, #0]
   81d3a:	4620      	mov	r0, r4
   81d3c:	4619      	mov	r1, r3
   81d3e:	4632      	mov	r2, r6
   81d40:	4e3b      	ldr	r6, [pc, #236]	; (81e30 <prvTimerTask+0x154>)
   81d42:	47b0      	blx	r6
   81d44:	b918      	cbnz	r0, 81d4e <prvTimerTask+0x72>
   81d46:	4b3b      	ldr	r3, [pc, #236]	; (81e34 <prvTimerTask+0x158>)
   81d48:	4798      	blx	r3
   81d4a:	bf00      	nop
   81d4c:	e7fd      	b.n	81d4a <prvTimerTask+0x6e>
   81d4e:	6a63      	ldr	r3, [r4, #36]	; 0x24
   81d50:	4620      	mov	r0, r4
   81d52:	4798      	blx	r3
   81d54:	e00c      	b.n	81d70 <prvTimerTask+0x94>
   81d56:	2600      	movs	r6, #0
   81d58:	6828      	ldr	r0, [r5, #0]
   81d5a:	1bf1      	subs	r1, r6, r7
   81d5c:	4b36      	ldr	r3, [pc, #216]	; (81e38 <prvTimerTask+0x15c>)
   81d5e:	4798      	blx	r3
   81d60:	4b31      	ldr	r3, [pc, #196]	; (81e28 <prvTimerTask+0x14c>)
   81d62:	4798      	blx	r3
   81d64:	b920      	cbnz	r0, 81d70 <prvTimerTask+0x94>
   81d66:	4b35      	ldr	r3, [pc, #212]	; (81e3c <prvTimerTask+0x160>)
   81d68:	4798      	blx	r3
   81d6a:	e001      	b.n	81d70 <prvTimerTask+0x94>
   81d6c:	4b2e      	ldr	r3, [pc, #184]	; (81e28 <prvTimerTask+0x14c>)
   81d6e:	4798      	blx	r3
   81d70:	a802      	add	r0, sp, #8
   81d72:	4b2c      	ldr	r3, [pc, #176]	; (81e24 <prvTimerTask+0x148>)
   81d74:	4798      	blx	r3
   81d76:	4607      	mov	r7, r0
   81d78:	4e31      	ldr	r6, [pc, #196]	; (81e40 <prvTimerTask+0x164>)
   81d7a:	f8df 90b0 	ldr.w	r9, [pc, #176]	; 81e2c <prvTimerTask+0x150>
   81d7e:	e038      	b.n	81df2 <prvTimerTask+0x116>
   81d80:	9c05      	ldr	r4, [sp, #20]
   81d82:	b11c      	cbz	r4, 81d8c <prvTimerTask+0xb0>
   81d84:	6963      	ldr	r3, [r4, #20]
   81d86:	b10b      	cbz	r3, 81d8c <prvTimerTask+0xb0>
   81d88:	1d20      	adds	r0, r4, #4
   81d8a:	47c0      	blx	r8
   81d8c:	9b03      	ldr	r3, [sp, #12]
   81d8e:	2b02      	cmp	r3, #2
   81d90:	d01f      	beq.n	81dd2 <prvTimerTask+0xf6>
   81d92:	2b03      	cmp	r3, #3
   81d94:	d02a      	beq.n	81dec <prvTimerTask+0x110>
   81d96:	2b00      	cmp	r3, #0
   81d98:	d12b      	bne.n	81df2 <prvTimerTask+0x116>
   81d9a:	9b04      	ldr	r3, [sp, #16]
   81d9c:	69a1      	ldr	r1, [r4, #24]
   81d9e:	4620      	mov	r0, r4
   81da0:	4419      	add	r1, r3
   81da2:	463a      	mov	r2, r7
   81da4:	47c8      	blx	r9
   81da6:	2801      	cmp	r0, #1
   81da8:	d123      	bne.n	81df2 <prvTimerTask+0x116>
   81daa:	6a63      	ldr	r3, [r4, #36]	; 0x24
   81dac:	4620      	mov	r0, r4
   81dae:	4798      	blx	r3
   81db0:	69e3      	ldr	r3, [r4, #28]
   81db2:	2b01      	cmp	r3, #1
   81db4:	d11d      	bne.n	81df2 <prvTimerTask+0x116>
   81db6:	69a2      	ldr	r2, [r4, #24]
   81db8:	2300      	movs	r3, #0
   81dba:	9300      	str	r3, [sp, #0]
   81dbc:	4620      	mov	r0, r4
   81dbe:	4619      	mov	r1, r3
   81dc0:	9c04      	ldr	r4, [sp, #16]
   81dc2:	4422      	add	r2, r4
   81dc4:	4c1a      	ldr	r4, [pc, #104]	; (81e30 <prvTimerTask+0x154>)
   81dc6:	47a0      	blx	r4
   81dc8:	b998      	cbnz	r0, 81df2 <prvTimerTask+0x116>
   81dca:	4b1a      	ldr	r3, [pc, #104]	; (81e34 <prvTimerTask+0x158>)
   81dcc:	4798      	blx	r3
   81dce:	bf00      	nop
   81dd0:	e7fd      	b.n	81dce <prvTimerTask+0xf2>
   81dd2:	9904      	ldr	r1, [sp, #16]
   81dd4:	61a1      	str	r1, [r4, #24]
   81dd6:	b919      	cbnz	r1, 81de0 <prvTimerTask+0x104>
   81dd8:	4b16      	ldr	r3, [pc, #88]	; (81e34 <prvTimerTask+0x158>)
   81dda:	4798      	blx	r3
   81ddc:	bf00      	nop
   81dde:	e7fd      	b.n	81ddc <prvTimerTask+0x100>
   81de0:	4620      	mov	r0, r4
   81de2:	4439      	add	r1, r7
   81de4:	463a      	mov	r2, r7
   81de6:	463b      	mov	r3, r7
   81de8:	47c8      	blx	r9
   81dea:	e002      	b.n	81df2 <prvTimerTask+0x116>
   81dec:	4620      	mov	r0, r4
   81dee:	4b15      	ldr	r3, [pc, #84]	; (81e44 <prvTimerTask+0x168>)
   81df0:	4798      	blx	r3
   81df2:	6828      	ldr	r0, [r5, #0]
   81df4:	a903      	add	r1, sp, #12
   81df6:	2200      	movs	r2, #0
   81df8:	4613      	mov	r3, r2
   81dfa:	47b0      	blx	r6
   81dfc:	2800      	cmp	r0, #0
   81dfe:	d1bf      	bne.n	81d80 <prvTimerTask+0xa4>
   81e00:	e772      	b.n	81ce8 <prvTimerTask+0xc>
   81e02:	4b07      	ldr	r3, [pc, #28]	; (81e20 <prvTimerTask+0x144>)
   81e04:	4798      	blx	r3
   81e06:	a803      	add	r0, sp, #12
   81e08:	4b06      	ldr	r3, [pc, #24]	; (81e24 <prvTimerTask+0x148>)
   81e0a:	4798      	blx	r3
   81e0c:	4607      	mov	r7, r0
   81e0e:	9b03      	ldr	r3, [sp, #12]
   81e10:	2b00      	cmp	r3, #0
   81e12:	d0a0      	beq.n	81d56 <prvTimerTask+0x7a>
   81e14:	e7aa      	b.n	81d6c <prvTimerTask+0x90>
   81e16:	bf00      	nop
   81e18:	2007ab8c 	.word	0x2007ab8c
   81e1c:	2007ab5c 	.word	0x2007ab5c
   81e20:	000813b1 	.word	0x000813b1
   81e24:	00081c29 	.word	0x00081c29
   81e28:	00081501 	.word	0x00081501
   81e2c:	00081ae1 	.word	0x00081ae1
   81e30:	00081bd5 	.word	0x00081bd5
   81e34:	00080949 	.word	0x00080949
   81e38:	000810a1 	.word	0x000810a1
   81e3c:	00080939 	.word	0x00080939
   81e40:	00080f45 	.word	0x00080f45
   81e44:	00080b6d 	.word	0x00080b6d
   81e48:	000808c1 	.word	0x000808c1

00081e4c <initPin6>:
   81e4c:	b538      	push	{r3, r4, r5, lr}
   81e4e:	2058      	movs	r0, #88	; 0x58
   81e50:	f04f 5180 	mov.w	r1, #268435456	; 0x10000000
   81e54:	4b0b      	ldr	r3, [pc, #44]	; (81e84 <initPin6+0x38>)
   81e56:	4798      	blx	r3
   81e58:	490b      	ldr	r1, [pc, #44]	; (81e88 <initPin6+0x3c>)
   81e5a:	2407      	movs	r4, #7
   81e5c:	600c      	str	r4, [r1, #0]
   81e5e:	2300      	movs	r3, #0
   81e60:	810b      	strh	r3, [r1, #8]
   81e62:	728b      	strb	r3, [r1, #10]
   81e64:	220b      	movs	r2, #11
   81e66:	604a      	str	r2, [r1, #4]
   81e68:	f641 524c 	movw	r2, #7500	; 0x1d4c
   81e6c:	610a      	str	r2, [r1, #16]
   81e6e:	60cb      	str	r3, [r1, #12]
   81e70:	4d06      	ldr	r5, [pc, #24]	; (81e8c <initPin6+0x40>)
   81e72:	4628      	mov	r0, r5
   81e74:	4b06      	ldr	r3, [pc, #24]	; (81e90 <initPin6+0x44>)
   81e76:	4798      	blx	r3
   81e78:	4628      	mov	r0, r5
   81e7a:	4621      	mov	r1, r4
   81e7c:	4b05      	ldr	r3, [pc, #20]	; (81e94 <initPin6+0x48>)
   81e7e:	4798      	blx	r3
   81e80:	bd38      	pop	{r3, r4, r5, pc}
   81e82:	bf00      	nop
   81e84:	00083231 	.word	0x00083231
   81e88:	2007ad40 	.word	0x2007ad40
   81e8c:	40094000 	.word	0x40094000
   81e90:	000806b9 	.word	0x000806b9
   81e94:	000807e5 	.word	0x000807e5

00081e98 <initPin7>:
   81e98:	b538      	push	{r3, r4, r5, lr}
   81e9a:	2057      	movs	r0, #87	; 0x57
   81e9c:	f04f 5180 	mov.w	r1, #268435456	; 0x10000000
   81ea0:	4b0b      	ldr	r3, [pc, #44]	; (81ed0 <initPin7+0x38>)
   81ea2:	4798      	blx	r3
   81ea4:	490b      	ldr	r1, [pc, #44]	; (81ed4 <initPin7+0x3c>)
   81ea6:	2300      	movs	r3, #0
   81ea8:	810b      	strh	r3, [r1, #8]
   81eaa:	728b      	strb	r3, [r1, #10]
   81eac:	220b      	movs	r2, #11
   81eae:	604a      	str	r2, [r1, #4]
   81eb0:	f641 524c 	movw	r2, #7500	; 0x1d4c
   81eb4:	610a      	str	r2, [r1, #16]
   81eb6:	60cb      	str	r3, [r1, #12]
   81eb8:	2406      	movs	r4, #6
   81eba:	600c      	str	r4, [r1, #0]
   81ebc:	4d06      	ldr	r5, [pc, #24]	; (81ed8 <initPin7+0x40>)
   81ebe:	4628      	mov	r0, r5
   81ec0:	4b06      	ldr	r3, [pc, #24]	; (81edc <initPin7+0x44>)
   81ec2:	4798      	blx	r3
   81ec4:	4628      	mov	r0, r5
   81ec6:	4621      	mov	r1, r4
   81ec8:	4b05      	ldr	r3, [pc, #20]	; (81ee0 <initPin7+0x48>)
   81eca:	4798      	blx	r3
   81ecc:	bd38      	pop	{r3, r4, r5, pc}
   81ece:	bf00      	nop
   81ed0:	00083231 	.word	0x00083231
   81ed4:	2007ad18 	.word	0x2007ad18
   81ed8:	40094000 	.word	0x40094000
   81edc:	000806b9 	.word	0x000806b9
   81ee0:	000807e5 	.word	0x000807e5

00081ee4 <PWM_init>:
   81ee4:	b530      	push	{r4, r5, lr}
   81ee6:	b085      	sub	sp, #20
   81ee8:	2024      	movs	r0, #36	; 0x24
   81eea:	4b0d      	ldr	r3, [pc, #52]	; (81f20 <PWM_init+0x3c>)
   81eec:	4798      	blx	r3
   81eee:	4c0d      	ldr	r4, [pc, #52]	; (81f24 <PWM_init+0x40>)
   81ef0:	4620      	mov	r0, r4
   81ef2:	2107      	movs	r1, #7
   81ef4:	4d0c      	ldr	r5, [pc, #48]	; (81f28 <PWM_init+0x44>)
   81ef6:	47a8      	blx	r5
   81ef8:	4620      	mov	r0, r4
   81efa:	2106      	movs	r1, #6
   81efc:	47a8      	blx	r5
   81efe:	4b0b      	ldr	r3, [pc, #44]	; (81f2c <PWM_init+0x48>)
   81f00:	9301      	str	r3, [sp, #4]
   81f02:	2300      	movs	r3, #0
   81f04:	9302      	str	r3, [sp, #8]
   81f06:	4b0a      	ldr	r3, [pc, #40]	; (81f30 <PWM_init+0x4c>)
   81f08:	9303      	str	r3, [sp, #12]
   81f0a:	4620      	mov	r0, r4
   81f0c:	a901      	add	r1, sp, #4
   81f0e:	4b09      	ldr	r3, [pc, #36]	; (81f34 <PWM_init+0x50>)
   81f10:	4798      	blx	r3
   81f12:	4b09      	ldr	r3, [pc, #36]	; (81f38 <PWM_init+0x54>)
   81f14:	4798      	blx	r3
   81f16:	4b09      	ldr	r3, [pc, #36]	; (81f3c <PWM_init+0x58>)
   81f18:	4798      	blx	r3
   81f1a:	b005      	add	sp, #20
   81f1c:	bd30      	pop	{r4, r5, pc}
   81f1e:	bf00      	nop
   81f20:	0008359d 	.word	0x0008359d
   81f24:	40094000 	.word	0x40094000
   81f28:	000807ed 	.word	0x000807ed
   81f2c:	000f4240 	.word	0x000f4240
   81f30:	0501bd00 	.word	0x0501bd00
   81f34:	0008066d 	.word	0x0008066d
   81f38:	00081e4d 	.word	0x00081e4d
   81f3c:	00081e99 	.word	0x00081e99

00081f40 <pwm_pin_6>:
   81f40:	b508      	push	{r3, lr}
   81f42:	f5b0 7f48 	cmp.w	r0, #800	; 0x320
   81f46:	d306      	bcc.n	81f56 <pwm_pin_6+0x16>
   81f48:	f640 0398 	movw	r3, #2200	; 0x898
   81f4c:	4602      	mov	r2, r0
   81f4e:	4298      	cmp	r0, r3
   81f50:	bf28      	it	cs
   81f52:	461a      	movcs	r2, r3
   81f54:	e001      	b.n	81f5a <pwm_pin_6+0x1a>
   81f56:	f44f 7248 	mov.w	r2, #800	; 0x320
   81f5a:	4802      	ldr	r0, [pc, #8]	; (81f64 <pwm_pin_6+0x24>)
   81f5c:	4902      	ldr	r1, [pc, #8]	; (81f68 <pwm_pin_6+0x28>)
   81f5e:	4b03      	ldr	r3, [pc, #12]	; (81f6c <pwm_pin_6+0x2c>)
   81f60:	4798      	blx	r3
   81f62:	bd08      	pop	{r3, pc}
   81f64:	40094000 	.word	0x40094000
   81f68:	2007ad40 	.word	0x2007ad40
   81f6c:	000807c1 	.word	0x000807c1

00081f70 <pwm_pin_7>:
   81f70:	b508      	push	{r3, lr}
   81f72:	f5b0 7f48 	cmp.w	r0, #800	; 0x320
   81f76:	d306      	bcc.n	81f86 <pwm_pin_7+0x16>
   81f78:	f640 0398 	movw	r3, #2200	; 0x898
   81f7c:	4602      	mov	r2, r0
   81f7e:	4298      	cmp	r0, r3
   81f80:	bf28      	it	cs
   81f82:	461a      	movcs	r2, r3
   81f84:	e001      	b.n	81f8a <pwm_pin_7+0x1a>
   81f86:	f44f 7248 	mov.w	r2, #800	; 0x320
   81f8a:	4802      	ldr	r0, [pc, #8]	; (81f94 <pwm_pin_7+0x24>)
   81f8c:	4902      	ldr	r1, [pc, #8]	; (81f98 <pwm_pin_7+0x28>)
   81f8e:	4b03      	ldr	r3, [pc, #12]	; (81f9c <pwm_pin_7+0x2c>)
   81f90:	4798      	blx	r3
   81f92:	bd08      	pop	{r3, pc}
   81f94:	40094000 	.word	0x40094000
   81f98:	2007ad18 	.word	0x2007ad18
   81f9c:	000807c1 	.word	0x000807c1

00081fa0 <pio_interruptA>:
   81fa0:	4b03      	ldr	r3, [pc, #12]	; (81fb0 <pio_interruptA+0x10>)
   81fa2:	6cdb      	ldr	r3, [r3, #76]	; 0x4c
   81fa4:	4a03      	ldr	r2, [pc, #12]	; (81fb4 <pio_interruptA+0x14>)
   81fa6:	6813      	ldr	r3, [r2, #0]
   81fa8:	3301      	adds	r3, #1
   81faa:	6013      	str	r3, [r2, #0]
   81fac:	4770      	bx	lr
   81fae:	bf00      	nop
   81fb0:	400e0e00 	.word	0x400e0e00
   81fb4:	2007ab94 	.word	0x2007ab94

00081fb8 <pio_interruptB>:
   81fb8:	4b03      	ldr	r3, [pc, #12]	; (81fc8 <pio_interruptB+0x10>)
   81fba:	6cdb      	ldr	r3, [r3, #76]	; 0x4c
   81fbc:	4a03      	ldr	r2, [pc, #12]	; (81fcc <pio_interruptB+0x14>)
   81fbe:	6813      	ldr	r3, [r2, #0]
   81fc0:	3301      	adds	r3, #1
   81fc2:	6013      	str	r3, [r2, #0]
   81fc4:	4770      	bx	lr
   81fc6:	bf00      	nop
   81fc8:	400e1400 	.word	0x400e1400
   81fcc:	2007ab98 	.word	0x2007ab98

00081fd0 <get_counterA>:
   81fd0:	4b01      	ldr	r3, [pc, #4]	; (81fd8 <get_counterA+0x8>)
   81fd2:	6818      	ldr	r0, [r3, #0]
   81fd4:	4770      	bx	lr
   81fd6:	bf00      	nop
   81fd8:	2007ab94 	.word	0x2007ab94

00081fdc <get_counterB>:
   81fdc:	4b01      	ldr	r3, [pc, #4]	; (81fe4 <get_counterB+0x8>)
   81fde:	6818      	ldr	r0, [r3, #0]
   81fe0:	4770      	bx	lr
   81fe2:	bf00      	nop
   81fe4:	2007ab98 	.word	0x2007ab98

00081fe8 <resetCounterA>:
   81fe8:	2200      	movs	r2, #0
   81fea:	4b01      	ldr	r3, [pc, #4]	; (81ff0 <resetCounterA+0x8>)
   81fec:	601a      	str	r2, [r3, #0]
   81fee:	4770      	bx	lr
   81ff0:	2007ab94 	.word	0x2007ab94

00081ff4 <resetCounterB>:
   81ff4:	2200      	movs	r2, #0
   81ff6:	4b01      	ldr	r3, [pc, #4]	; (81ffc <resetCounterB+0x8>)
   81ff8:	601a      	str	r2, [r3, #0]
   81ffa:	4770      	bx	lr
   81ffc:	2007ab98 	.word	0x2007ab98

00082000 <encoder_init>:
   82000:	e92d 41f0 	stmdb	sp!, {r4, r5, r6, r7, r8, lr}
   82004:	b082      	sub	sp, #8
   82006:	200b      	movs	r0, #11
   82008:	4c1c      	ldr	r4, [pc, #112]	; (8207c <encoder_init+0x7c>)
   8200a:	47a0      	blx	r4
   8200c:	200e      	movs	r0, #14
   8200e:	47a0      	blx	r4
   82010:	4d1b      	ldr	r5, [pc, #108]	; (82080 <encoder_init+0x80>)
   82012:	4628      	mov	r0, r5
   82014:	f44f 4100 	mov.w	r1, #32768	; 0x8000
   82018:	2201      	movs	r2, #1
   8201a:	4e1a      	ldr	r6, [pc, #104]	; (82084 <encoder_init+0x84>)
   8201c:	47b0      	blx	r6
   8201e:	4c1a      	ldr	r4, [pc, #104]	; (82088 <encoder_init+0x88>)
   82020:	4620      	mov	r0, r4
   82022:	2101      	movs	r1, #1
   82024:	460a      	mov	r2, r1
   82026:	47b0      	blx	r6
   82028:	f44f 4700 	mov.w	r7, #32768	; 0x8000
   8202c:	622f      	str	r7, [r5, #32]
   8202e:	2601      	movs	r6, #1
   82030:	6226      	str	r6, [r4, #32]
   82032:	f8c5 7084 	str.w	r7, [r5, #132]	; 0x84
   82036:	f8c4 6084 	str.w	r6, [r4, #132]	; 0x84
   8203a:	4b14      	ldr	r3, [pc, #80]	; (8208c <encoder_init+0x8c>)
   8203c:	9300      	str	r3, [sp, #0]
   8203e:	4628      	mov	r0, r5
   82040:	210b      	movs	r1, #11
   82042:	463a      	mov	r2, r7
   82044:	2370      	movs	r3, #112	; 0x70
   82046:	f8df 8054 	ldr.w	r8, [pc, #84]	; 8209c <encoder_init+0x9c>
   8204a:	47c0      	blx	r8
   8204c:	4628      	mov	r0, r5
   8204e:	4639      	mov	r1, r7
   82050:	4d0f      	ldr	r5, [pc, #60]	; (82090 <encoder_init+0x90>)
   82052:	47a8      	blx	r5
   82054:	4b0f      	ldr	r3, [pc, #60]	; (82094 <encoder_init+0x94>)
   82056:	9300      	str	r3, [sp, #0]
   82058:	4620      	mov	r0, r4
   8205a:	210e      	movs	r1, #14
   8205c:	4632      	mov	r2, r6
   8205e:	2370      	movs	r3, #112	; 0x70
   82060:	47c0      	blx	r8
   82062:	4620      	mov	r0, r4
   82064:	4631      	mov	r1, r6
   82066:	47a8      	blx	r5
   82068:	4b0b      	ldr	r3, [pc, #44]	; (82098 <encoder_init+0x98>)
   8206a:	f44f 6200 	mov.w	r2, #2048	; 0x800
   8206e:	601a      	str	r2, [r3, #0]
   82070:	f44f 4280 	mov.w	r2, #16384	; 0x4000
   82074:	601a      	str	r2, [r3, #0]
   82076:	b002      	add	sp, #8
   82078:	e8bd 81f0 	ldmia.w	sp!, {r4, r5, r6, r7, r8, pc}
   8207c:	0008359d 	.word	0x0008359d
   82080:	400e0e00 	.word	0x400e0e00
   82084:	00083199 	.word	0x00083199
   82088:	400e1400 	.word	0x400e1400
   8208c:	00081fa1 	.word	0x00081fa1
   82090:	00083225 	.word	0x00083225
   82094:	00081fb9 	.word	0x00081fb9
   82098:	e000e100 	.word	0xe000e100
   8209c:	000833f5 	.word	0x000833f5

000820a0 <math_get_angle_deg>:
   820a0:	b510      	push	{r4, lr}
   820a2:	a303      	add	r3, pc, #12	; (adr r3, 820b0 <math_get_angle_deg+0x10>)
   820a4:	e9d3 2300 	ldrd	r2, r3, [r3]
   820a8:	4c03      	ldr	r4, [pc, #12]	; (820b8 <math_get_angle_deg+0x18>)
   820aa:	47a0      	blx	r4
   820ac:	bd10      	pop	{r4, pc}
   820ae:	bf00      	nop
   820b0:	1a63c9ec 	.word	0x1a63c9ec
   820b4:	404ca5dc 	.word	0x404ca5dc
   820b8:	00084301 	.word	0x00084301

000820bc <get_euclid_distance>:
   820bc:	e92d 4ff8 	stmdb	sp!, {r3, r4, r5, r6, r7, r8, r9, sl, fp, lr}
   820c0:	4688      	mov	r8, r1
   820c2:	461d      	mov	r5, r3
   820c4:	4c15      	ldr	r4, [pc, #84]	; (8211c <get_euclid_distance+0x60>)
   820c6:	1a80      	subs	r0, r0, r2
   820c8:	47a0      	blx	r4
   820ca:	4606      	mov	r6, r0
   820cc:	460f      	mov	r7, r1
   820ce:	4b14      	ldr	r3, [pc, #80]	; (82120 <get_euclid_distance+0x64>)
   820d0:	e9c3 6700 	strd	r6, r7, [r3]
   820d4:	ebc5 0008 	rsb	r0, r5, r8
   820d8:	47a0      	blx	r4
   820da:	4604      	mov	r4, r0
   820dc:	460d      	mov	r5, r1
   820de:	4b11      	ldr	r3, [pc, #68]	; (82124 <get_euclid_distance+0x68>)
   820e0:	e9c3 4500 	strd	r4, r5, [r3]
   820e4:	f8df a048 	ldr.w	sl, [pc, #72]	; 82130 <get_euclid_distance+0x74>
   820e8:	f8df b048 	ldr.w	fp, [pc, #72]	; 82134 <get_euclid_distance+0x78>
   820ec:	4630      	mov	r0, r6
   820ee:	4639      	mov	r1, r7
   820f0:	4632      	mov	r2, r6
   820f2:	463b      	mov	r3, r7
   820f4:	47d0      	blx	sl
   820f6:	4606      	mov	r6, r0
   820f8:	460f      	mov	r7, r1
   820fa:	4620      	mov	r0, r4
   820fc:	4629      	mov	r1, r5
   820fe:	4622      	mov	r2, r4
   82100:	462b      	mov	r3, r5
   82102:	47d0      	blx	sl
   82104:	4602      	mov	r2, r0
   82106:	460b      	mov	r3, r1
   82108:	4630      	mov	r0, r6
   8210a:	4639      	mov	r1, r7
   8210c:	47d8      	blx	fp
   8210e:	4b06      	ldr	r3, [pc, #24]	; (82128 <get_euclid_distance+0x6c>)
   82110:	4798      	blx	r3
   82112:	4b06      	ldr	r3, [pc, #24]	; (8212c <get_euclid_distance+0x70>)
   82114:	4798      	blx	r3
   82116:	b280      	uxth	r0, r0
   82118:	e8bd 8ff8 	ldmia.w	sp!, {r3, r4, r5, r6, r7, r8, r9, sl, fp, pc}
   8211c:	00084235 	.word	0x00084235
   82120:	2007aba0 	.word	0x2007aba0
   82124:	2007aba8 	.word	0x2007aba8
   82128:	00083cfd 	.word	0x00083cfd
   8212c:	00084885 	.word	0x00084885
   82130:	00084301 	.word	0x00084301
   82134:	00083f9d 	.word	0x00083f9d

00082138 <math_atan2>:
   82138:	e92d 43f8 	stmdb	sp!, {r3, r4, r5, r6, r7, r8, r9, lr}
   8213c:	4690      	mov	r8, r2
   8213e:	4699      	mov	r9, r3
   82140:	4e51      	ldr	r6, [pc, #324]	; (82288 <math_atan2+0x150>)
   82142:	e9dd 2308 	ldrd	r2, r3, [sp, #32]
   82146:	47b0      	blx	r6
   82148:	4604      	mov	r4, r0
   8214a:	460d      	mov	r5, r1
   8214c:	4b4f      	ldr	r3, [pc, #316]	; (8228c <math_atan2+0x154>)
   8214e:	e9c3 4500 	strd	r4, r5, [r3]
   82152:	4640      	mov	r0, r8
   82154:	4649      	mov	r1, r9
   82156:	e9dd 230a 	ldrd	r2, r3, [sp, #40]	; 0x28
   8215a:	47b0      	blx	r6
   8215c:	4606      	mov	r6, r0
   8215e:	460f      	mov	r7, r1
   82160:	4b4b      	ldr	r3, [pc, #300]	; (82290 <math_atan2+0x158>)
   82162:	e9c3 6700 	strd	r6, r7, [r3]
   82166:	4620      	mov	r0, r4
   82168:	4629      	mov	r1, r5
   8216a:	2200      	movs	r2, #0
   8216c:	2300      	movs	r3, #0
   8216e:	f8df c130 	ldr.w	ip, [pc, #304]	; 822a0 <math_atan2+0x168>
   82172:	47e0      	blx	ip
   82174:	b140      	cbz	r0, 82188 <math_atan2+0x50>
   82176:	4630      	mov	r0, r6
   82178:	4639      	mov	r1, r7
   8217a:	2200      	movs	r2, #0
   8217c:	2300      	movs	r3, #0
   8217e:	f8df c120 	ldr.w	ip, [pc, #288]	; 822a0 <math_atan2+0x168>
   82182:	47e0      	blx	ip
   82184:	2800      	cmp	r0, #0
   82186:	d162      	bne.n	8224e <math_atan2+0x116>
   82188:	4620      	mov	r0, r4
   8218a:	4629      	mov	r1, r5
   8218c:	2200      	movs	r2, #0
   8218e:	2300      	movs	r3, #0
   82190:	f8df c110 	ldr.w	ip, [pc, #272]	; 822a4 <math_atan2+0x16c>
   82194:	47e0      	blx	ip
   82196:	b148      	cbz	r0, 821ac <math_atan2+0x74>
   82198:	4630      	mov	r0, r6
   8219a:	4639      	mov	r1, r7
   8219c:	4622      	mov	r2, r4
   8219e:	462b      	mov	r3, r5
   821a0:	4c3c      	ldr	r4, [pc, #240]	; (82294 <math_atan2+0x15c>)
   821a2:	47a0      	blx	r4
   821a4:	4b3c      	ldr	r3, [pc, #240]	; (82298 <math_atan2+0x160>)
   821a6:	4798      	blx	r3
   821a8:	e8bd 83f8 	ldmia.w	sp!, {r3, r4, r5, r6, r7, r8, r9, pc}
   821ac:	4620      	mov	r0, r4
   821ae:	4629      	mov	r1, r5
   821b0:	2200      	movs	r2, #0
   821b2:	2300      	movs	r3, #0
   821b4:	f8df c0f0 	ldr.w	ip, [pc, #240]	; 822a8 <math_atan2+0x170>
   821b8:	47e0      	blx	ip
   821ba:	b1b0      	cbz	r0, 821ea <math_atan2+0xb2>
   821bc:	4630      	mov	r0, r6
   821be:	4639      	mov	r1, r7
   821c0:	2200      	movs	r2, #0
   821c2:	2300      	movs	r3, #0
   821c4:	f8df c0e4 	ldr.w	ip, [pc, #228]	; 822ac <math_atan2+0x174>
   821c8:	47e0      	blx	ip
   821ca:	b1b0      	cbz	r0, 821fa <math_atan2+0xc2>
   821cc:	4630      	mov	r0, r6
   821ce:	4639      	mov	r1, r7
   821d0:	4622      	mov	r2, r4
   821d2:	462b      	mov	r3, r5
   821d4:	4c2f      	ldr	r4, [pc, #188]	; (82294 <math_atan2+0x15c>)
   821d6:	47a0      	blx	r4
   821d8:	4b2f      	ldr	r3, [pc, #188]	; (82298 <math_atan2+0x160>)
   821da:	4798      	blx	r3
   821dc:	a324      	add	r3, pc, #144	; (adr r3, 82270 <math_atan2+0x138>)
   821de:	e9d3 2300 	ldrd	r2, r3, [r3]
   821e2:	4c2e      	ldr	r4, [pc, #184]	; (8229c <math_atan2+0x164>)
   821e4:	47a0      	blx	r4
   821e6:	e8bd 83f8 	ldmia.w	sp!, {r3, r4, r5, r6, r7, r8, r9, pc}
   821ea:	4620      	mov	r0, r4
   821ec:	4629      	mov	r1, r5
   821ee:	2200      	movs	r2, #0
   821f0:	2300      	movs	r3, #0
   821f2:	f8df c0b4 	ldr.w	ip, [pc, #180]	; 822a8 <math_atan2+0x170>
   821f6:	47e0      	blx	ip
   821f8:	b1b0      	cbz	r0, 82228 <math_atan2+0xf0>
   821fa:	4630      	mov	r0, r6
   821fc:	4639      	mov	r1, r7
   821fe:	2200      	movs	r2, #0
   82200:	2300      	movs	r3, #0
   82202:	f8df c0a4 	ldr.w	ip, [pc, #164]	; 822a8 <math_atan2+0x170>
   82206:	47e0      	blx	ip
   82208:	b170      	cbz	r0, 82228 <math_atan2+0xf0>
   8220a:	4630      	mov	r0, r6
   8220c:	4639      	mov	r1, r7
   8220e:	4622      	mov	r2, r4
   82210:	462b      	mov	r3, r5
   82212:	4c20      	ldr	r4, [pc, #128]	; (82294 <math_atan2+0x15c>)
   82214:	47a0      	blx	r4
   82216:	4b20      	ldr	r3, [pc, #128]	; (82298 <math_atan2+0x160>)
   82218:	4798      	blx	r3
   8221a:	a315      	add	r3, pc, #84	; (adr r3, 82270 <math_atan2+0x138>)
   8221c:	e9d3 2300 	ldrd	r2, r3, [r3]
   82220:	4c19      	ldr	r4, [pc, #100]	; (82288 <math_atan2+0x150>)
   82222:	47a0      	blx	r4
   82224:	e8bd 83f8 	ldmia.w	sp!, {r3, r4, r5, r6, r7, r8, r9, pc}
   82228:	4620      	mov	r0, r4
   8222a:	4629      	mov	r1, r5
   8222c:	2200      	movs	r2, #0
   8222e:	2300      	movs	r3, #0
   82230:	4c1b      	ldr	r4, [pc, #108]	; (822a0 <math_atan2+0x168>)
   82232:	47a0      	blx	r4
   82234:	b178      	cbz	r0, 82256 <math_atan2+0x11e>
   82236:	4630      	mov	r0, r6
   82238:	4639      	mov	r1, r7
   8223a:	2200      	movs	r2, #0
   8223c:	2300      	movs	r3, #0
   8223e:	4c19      	ldr	r4, [pc, #100]	; (822a4 <math_atan2+0x16c>)
   82240:	47a0      	blx	r4
   82242:	b168      	cbz	r0, 82260 <math_atan2+0x128>
   82244:	a10c      	add	r1, pc, #48	; (adr r1, 82278 <math_atan2+0x140>)
   82246:	e9d1 0100 	ldrd	r0, r1, [r1]
   8224a:	e8bd 83f8 	ldmia.w	sp!, {r3, r4, r5, r6, r7, r8, r9, pc}
   8224e:	2000      	movs	r0, #0
   82250:	2100      	movs	r1, #0
   82252:	e8bd 83f8 	ldmia.w	sp!, {r3, r4, r5, r6, r7, r8, r9, pc}
   82256:	a10a      	add	r1, pc, #40	; (adr r1, 82280 <math_atan2+0x148>)
   82258:	e9d1 0100 	ldrd	r0, r1, [r1]
   8225c:	e8bd 83f8 	ldmia.w	sp!, {r3, r4, r5, r6, r7, r8, r9, pc}
   82260:	a107      	add	r1, pc, #28	; (adr r1, 82280 <math_atan2+0x148>)
   82262:	e9d1 0100 	ldrd	r0, r1, [r1]
   82266:	e8bd 83f8 	ldmia.w	sp!, {r3, r4, r5, r6, r7, r8, r9, pc}
   8226a:	bf00      	nop
   8226c:	f3af 8000 	nop.w
   82270:	5444261e 	.word	0x5444261e
   82274:	400921fb 	.word	0x400921fb
   82278:	5444261e 	.word	0x5444261e
   8227c:	3ff921fb 	.word	0x3ff921fb
   82280:	5444261e 	.word	0x5444261e
   82284:	bff921fb 	.word	0xbff921fb
   82288:	00083f99 	.word	0x00083f99
   8228c:	2007aba0 	.word	0x2007aba0
   82290:	2007aba8 	.word	0x2007aba8
   82294:	00084555 	.word	0x00084555
   82298:	000839c1 	.word	0x000839c1
   8229c:	00083f9d 	.word	0x00083f9d
   822a0:	000847d1 	.word	0x000847d1
   822a4:	00084821 	.word	0x00084821
   822a8:	000847e5 	.word	0x000847e5
   822ac:	0008480d 	.word	0x0008480d

000822b0 <convertDistance>:
   822b0:	b510      	push	{r4, lr}
   822b2:	4b07      	ldr	r3, [pc, #28]	; (822d0 <convertDistance+0x20>)
   822b4:	4798      	blx	r3
   822b6:	a304      	add	r3, pc, #16	; (adr r3, 822c8 <convertDistance+0x18>)
   822b8:	e9d3 2300 	ldrd	r2, r3, [r3]
   822bc:	4c05      	ldr	r4, [pc, #20]	; (822d4 <convertDistance+0x24>)
   822be:	47a0      	blx	r4
   822c0:	4b05      	ldr	r3, [pc, #20]	; (822d8 <convertDistance+0x28>)
   822c2:	4798      	blx	r3
   822c4:	b200      	sxth	r0, r0
   822c6:	bd10      	pop	{r4, pc}
   822c8:	189374bc 	.word	0x189374bc
   822cc:	3ff65604 	.word	0x3ff65604
   822d0:	00084235 	.word	0x00084235
   822d4:	00084555 	.word	0x00084555
   822d8:	00084835 	.word	0x00084835

000822dc <drive>:
   822dc:	b570      	push	{r4, r5, r6, lr}
   822de:	4606      	mov	r6, r0
   822e0:	460d      	mov	r5, r1
   822e2:	4b16      	ldr	r3, [pc, #88]	; (8233c <drive+0x60>)
   822e4:	4798      	blx	r3
   822e6:	4604      	mov	r4, r0
   822e8:	4b15      	ldr	r3, [pc, #84]	; (82340 <drive+0x64>)
   822ea:	4798      	blx	r3
   822ec:	1a20      	subs	r0, r4, r0
   822ee:	b281      	uxth	r1, r0
   822f0:	4b14      	ldr	r3, [pc, #80]	; (82344 <drive+0x68>)
   822f2:	8019      	strh	r1, [r3, #0]
   822f4:	4b14      	ldr	r3, [pc, #80]	; (82348 <drive+0x6c>)
   822f6:	781b      	ldrb	r3, [r3, #0]
   822f8:	fb03 f101 	mul.w	r1, r3, r1
   822fc:	b289      	uxth	r1, r1
   822fe:	4b13      	ldr	r3, [pc, #76]	; (8234c <drive+0x70>)
   82300:	8019      	strh	r1, [r3, #0]
   82302:	f240 53db 	movw	r3, #1499	; 0x5db
   82306:	429d      	cmp	r5, r3
   82308:	d808      	bhi.n	8231c <drive+0x40>
   8230a:	429e      	cmp	r6, r3
   8230c:	d806      	bhi.n	8231c <drive+0x40>
   8230e:	440e      	add	r6, r1
   82310:	4b0f      	ldr	r3, [pc, #60]	; (82350 <drive+0x74>)
   82312:	801e      	strh	r6, [r3, #0]
   82314:	1a69      	subs	r1, r5, r1
   82316:	4b0f      	ldr	r3, [pc, #60]	; (82354 <drive+0x78>)
   82318:	8019      	strh	r1, [r3, #0]
   8231a:	e005      	b.n	82328 <drive+0x4c>
   8231c:	1a76      	subs	r6, r6, r1
   8231e:	4b0c      	ldr	r3, [pc, #48]	; (82350 <drive+0x74>)
   82320:	801e      	strh	r6, [r3, #0]
   82322:	4429      	add	r1, r5
   82324:	4b0b      	ldr	r3, [pc, #44]	; (82354 <drive+0x78>)
   82326:	8019      	strh	r1, [r3, #0]
   82328:	4b09      	ldr	r3, [pc, #36]	; (82350 <drive+0x74>)
   8232a:	8818      	ldrh	r0, [r3, #0]
   8232c:	4b0a      	ldr	r3, [pc, #40]	; (82358 <drive+0x7c>)
   8232e:	4798      	blx	r3
   82330:	4b08      	ldr	r3, [pc, #32]	; (82354 <drive+0x78>)
   82332:	8818      	ldrh	r0, [r3, #0]
   82334:	4b09      	ldr	r3, [pc, #36]	; (8235c <drive+0x80>)
   82336:	4798      	blx	r3
   82338:	bd70      	pop	{r4, r5, r6, pc}
   8233a:	bf00      	nop
   8233c:	00081fd1 	.word	0x00081fd1
   82340:	00081fdd 	.word	0x00081fdd
   82344:	2007abb6 	.word	0x2007abb6
   82348:	20070158 	.word	0x20070158
   8234c:	2007abb2 	.word	0x2007abb2
   82350:	2007abb4 	.word	0x2007abb4
   82354:	2007abb0 	.word	0x2007abb0
   82358:	00081f71 	.word	0x00081f71
   8235c:	00081f41 	.word	0x00081f41

00082360 <driveVinkel>:
   82360:	b508      	push	{r3, lr}
   82362:	2801      	cmp	r0, #1
   82364:	d106      	bne.n	82374 <driveVinkel+0x14>
   82366:	f44f 60af 	mov.w	r0, #1400	; 0x578
   8236a:	f240 6127 	movw	r1, #1575	; 0x627
   8236e:	4b08      	ldr	r3, [pc, #32]	; (82390 <driveVinkel+0x30>)
   82370:	4798      	blx	r3
   82372:	bd08      	pop	{r3, pc}
   82374:	f1b0 3fff 	cmp.w	r0, #4294967295
   82378:	bf07      	ittee	eq
   8237a:	f240 6027 	movweq	r0, #1575	; 0x627
   8237e:	f44f 61af 	moveq.w	r1, #1400	; 0x578
   82382:	f240 50dc 	movwne	r0, #1500	; 0x5dc
   82386:	4601      	movne	r1, r0
   82388:	4b01      	ldr	r3, [pc, #4]	; (82390 <driveVinkel+0x30>)
   8238a:	4798      	blx	r3
   8238c:	bd08      	pop	{r3, pc}
   8238e:	bf00      	nop
   82390:	000822dd 	.word	0x000822dd

00082394 <forDelay>:
   82394:	b570      	push	{r4, r5, r6, lr}
   82396:	4c05      	ldr	r4, [pc, #20]	; (823ac <forDelay+0x18>)
   82398:	f240 56dc 	movw	r6, #1500	; 0x5dc
   8239c:	4d04      	ldr	r5, [pc, #16]	; (823b0 <forDelay+0x1c>)
   8239e:	4630      	mov	r0, r6
   823a0:	4631      	mov	r1, r6
   823a2:	47a8      	blx	r5
   823a4:	3c01      	subs	r4, #1
   823a6:	d1fa      	bne.n	8239e <forDelay+0xa>
   823a8:	bd70      	pop	{r4, r5, r6, pc}
   823aa:	bf00      	nop
   823ac:	00030d40 	.word	0x00030d40
   823b0:	000822dd 	.word	0x000822dd
   823b4:	00000000 	.word	0x00000000

000823b8 <motor_task>:
   823b8:	e92d 4ff0 	stmdb	sp!, {r4, r5, r6, r7, r8, r9, sl, fp, lr}
   823bc:	b089      	sub	sp, #36	; 0x24
   823be:	f04f 09c8 	mov.w	r9, #200	; 0xc8
   823c2:	f04f 0800 	mov.w	r8, #0
   823c6:	f8cd 8004 	str.w	r8, [sp, #4]
   823ca:	f8df a174 	ldr.w	sl, [pc, #372]	; 82540 <motor_task+0x188>
   823ce:	4d4e      	ldr	r5, [pc, #312]	; (82508 <motor_task+0x150>)
   823d0:	4c4e      	ldr	r4, [pc, #312]	; (8250c <motor_task+0x154>)
   823d2:	47d0      	blx	sl
   823d4:	9007      	str	r0, [sp, #28]
   823d6:	6828      	ldr	r0, [r5, #0]
   823d8:	a902      	add	r1, sp, #8
   823da:	220a      	movs	r2, #10
   823dc:	2301      	movs	r3, #1
   823de:	47a0      	blx	r4
   823e0:	2800      	cmp	r0, #0
   823e2:	d0f8      	beq.n	823d6 <motor_task+0x1e>
   823e4:	4e4a      	ldr	r6, [pc, #296]	; (82510 <motor_task+0x158>)
   823e6:	e9dd 0104 	ldrd	r0, r1, [sp, #16]
   823ea:	47b0      	blx	r6
   823ec:	b200      	sxth	r0, r0
   823ee:	4b49      	ldr	r3, [pc, #292]	; (82514 <motor_task+0x15c>)
   823f0:	4798      	blx	r3
   823f2:	a343      	add	r3, pc, #268	; (adr r3, 82500 <motor_task+0x148>)
   823f4:	e9d3 2300 	ldrd	r2, r3, [r3]
   823f8:	4f47      	ldr	r7, [pc, #284]	; (82518 <motor_task+0x160>)
   823fa:	47b8      	blx	r7
   823fc:	47b0      	blx	r6
   823fe:	b287      	uxth	r7, r0
   82400:	f9bd 0008 	ldrsh.w	r0, [sp, #8]
   82404:	4b45      	ldr	r3, [pc, #276]	; (8251c <motor_task+0x164>)
   82406:	4798      	blx	r3
   82408:	4606      	mov	r6, r0
   8240a:	f417 4f00 	tst.w	r7, #32768	; 0x8000
   8240e:	bf1d      	ittte	ne
   82410:	427f      	negne	r7, r7
   82412:	b2bf      	uxthne	r7, r7
   82414:	f04f 0b03 	movne.w	fp, #3
   82418:	f04f 0b00 	moveq.w	fp, #0
   8241c:	2800      	cmp	r0, #0
   8241e:	da03      	bge.n	82428 <motor_task+0x70>
   82420:	4246      	negs	r6, r0
   82422:	b2b6      	uxth	r6, r6
   82424:	2301      	movs	r3, #1
   82426:	9301      	str	r3, [sp, #4]
   82428:	4b3d      	ldr	r3, [pc, #244]	; (82520 <motor_task+0x168>)
   8242a:	4798      	blx	r3
   8242c:	b23f      	sxth	r7, r7
   8242e:	b236      	sxth	r6, r6
   82430:	443e      	add	r6, r7
   82432:	42b0      	cmp	r0, r6
   82434:	da48      	bge.n	824c8 <motor_task+0x110>
   82436:	4b3b      	ldr	r3, [pc, #236]	; (82524 <motor_task+0x16c>)
   82438:	4798      	blx	r3
   8243a:	4286      	cmp	r6, r0
   8243c:	dd44      	ble.n	824c8 <motor_task+0x110>
   8243e:	4b38      	ldr	r3, [pc, #224]	; (82520 <motor_task+0x168>)
   82440:	4798      	blx	r3
   82442:	4287      	cmp	r7, r0
   82444:	dd0a      	ble.n	8245c <motor_task+0xa4>
   82446:	4b37      	ldr	r3, [pc, #220]	; (82524 <motor_task+0x16c>)
   82448:	4798      	blx	r3
   8244a:	4287      	cmp	r7, r0
   8244c:	dd06      	ble.n	8245c <motor_task+0xa4>
   8244e:	f1bb 0f00 	cmp.w	fp, #0
   82452:	d103      	bne.n	8245c <motor_task+0xa4>
   82454:	2001      	movs	r0, #1
   82456:	4b34      	ldr	r3, [pc, #208]	; (82528 <motor_task+0x170>)
   82458:	4798      	blx	r3
   8245a:	e049      	b.n	824f0 <motor_task+0x138>
   8245c:	4b30      	ldr	r3, [pc, #192]	; (82520 <motor_task+0x168>)
   8245e:	4798      	blx	r3
   82460:	4287      	cmp	r7, r0
   82462:	dd0b      	ble.n	8247c <motor_task+0xc4>
   82464:	4b2f      	ldr	r3, [pc, #188]	; (82524 <motor_task+0x16c>)
   82466:	4798      	blx	r3
   82468:	4287      	cmp	r7, r0
   8246a:	dd07      	ble.n	8247c <motor_task+0xc4>
   8246c:	f1bb 0f03 	cmp.w	fp, #3
   82470:	d104      	bne.n	8247c <motor_task+0xc4>
   82472:	f04f 30ff 	mov.w	r0, #4294967295
   82476:	4b2c      	ldr	r3, [pc, #176]	; (82528 <motor_task+0x170>)
   82478:	4798      	blx	r3
   8247a:	e039      	b.n	824f0 <motor_task+0x138>
   8247c:	f1b8 0f00 	cmp.w	r8, #0
   82480:	d101      	bne.n	82486 <motor_task+0xce>
   82482:	4b2a      	ldr	r3, [pc, #168]	; (8252c <motor_task+0x174>)
   82484:	4798      	blx	r3
   82486:	9b01      	ldr	r3, [sp, #4]
   82488:	b143      	cbz	r3, 8249c <motor_task+0xe4>
   8248a:	f240 5053 	movw	r0, #1363	; 0x553
   8248e:	f240 5171 	movw	r1, #1393	; 0x571
   82492:	4b27      	ldr	r3, [pc, #156]	; (82530 <motor_task+0x178>)
   82494:	4798      	blx	r3
   82496:	f04f 0801 	mov.w	r8, #1
   8249a:	e029      	b.n	824f0 <motor_task+0x138>
   8249c:	fa1f f189 	uxth.w	r1, r9
   824a0:	f5c1 60db 	rsb	r0, r1, #1752	; 0x6d8
   824a4:	3001      	adds	r0, #1
   824a6:	f5c1 61e0 	rsb	r1, r1, #1792	; 0x700
   824aa:	3101      	adds	r1, #1
   824ac:	b280      	uxth	r0, r0
   824ae:	b289      	uxth	r1, r1
   824b0:	4b1f      	ldr	r3, [pc, #124]	; (82530 <motor_task+0x178>)
   824b2:	4798      	blx	r3
   824b4:	f1b9 0f00 	cmp.w	r9, #0
   824b8:	d018      	beq.n	824ec <motor_task+0x134>
   824ba:	f109 39ff 	add.w	r9, r9, #4294967295
   824be:	fa5f f989 	uxtb.w	r9, r9
   824c2:	f04f 0801 	mov.w	r8, #1
   824c6:	e013      	b.n	824f0 <motor_task+0x138>
   824c8:	4b18      	ldr	r3, [pc, #96]	; (8252c <motor_task+0x174>)
   824ca:	4798      	blx	r3
   824cc:	6828      	ldr	r0, [r5, #0]
   824ce:	a902      	add	r1, sp, #8
   824d0:	220a      	movs	r2, #10
   824d2:	2300      	movs	r3, #0
   824d4:	47a0      	blx	r4
   824d6:	4b17      	ldr	r3, [pc, #92]	; (82534 <motor_task+0x17c>)
   824d8:	4798      	blx	r3
   824da:	4b17      	ldr	r3, [pc, #92]	; (82538 <motor_task+0x180>)
   824dc:	4798      	blx	r3
   824de:	f04f 09c8 	mov.w	r9, #200	; 0xc8
   824e2:	f04f 0800 	mov.w	r8, #0
   824e6:	f8cd 8004 	str.w	r8, [sp, #4]
   824ea:	e001      	b.n	824f0 <motor_task+0x138>
   824ec:	f04f 0801 	mov.w	r8, #1
   824f0:	a807      	add	r0, sp, #28
   824f2:	2104      	movs	r1, #4
   824f4:	4b11      	ldr	r3, [pc, #68]	; (8253c <motor_task+0x184>)
   824f6:	4798      	blx	r3
   824f8:	e76b      	b.n	823d2 <motor_task+0x1a>
   824fa:	bf00      	nop
   824fc:	f3af 8000 	nop.w
   82500:	fdf3b646 	.word	0xfdf3b646
   82504:	400e78d4 	.word	0x400e78d4
   82508:	2007ad68 	.word	0x2007ad68
   8250c:	00080f45 	.word	0x00080f45
   82510:	00084835 	.word	0x00084835
   82514:	00084235 	.word	0x00084235
   82518:	00084555 	.word	0x00084555
   8251c:	000822b1 	.word	0x000822b1
   82520:	00081fd1 	.word	0x00081fd1
   82524:	00081fdd 	.word	0x00081fdd
   82528:	00082361 	.word	0x00082361
   8252c:	00082395 	.word	0x00082395
   82530:	000822dd 	.word	0x000822dd
   82534:	00081fe9 	.word	0x00081fe9
   82538:	00081ff5 	.word	0x00081ff5
   8253c:	00081605 	.word	0x00081605
   82540:	000813c1 	.word	0x000813c1

00082544 <main_task>:
	{ 120, 50 },
	{ 140, 150 },
	{ 280, 260 },
};

void main_task(void *pvParameters) {
   82544:	e92d 4ff0 	stmdb	sp!, {r4, r5, r6, r7, r8, r9, sl, fp, lr}
   82548:	b093      	sub	sp, #76	; 0x4c
	int16_t distance, minimum_distance_to_object, platform_distance_to_object; /* In cm */
	double alpha, beta, correction_angle; /* In degrees */
	uint8_t mock_pos_index = 0;
	
	printf("------------Welcome------------\n");
   8254a:	4845      	ldr	r0, [pc, #276]	; (82660 <main_task+0x11c>)
   8254c:	4b45      	ldr	r3, [pc, #276]	; (82664 <main_task+0x120>)
   8254e:	4798      	blx	r3
	
	/* Read first time package and set static coordinates */
	update_positions();
   82550:	4b45      	ldr	r3, [pc, #276]	; (82668 <main_task+0x124>)
   82552:	4798      	blx	r3
	current_pos = get_pos();
   82554:	4b45      	ldr	r3, [pc, #276]	; (8266c <main_task+0x128>)
   82556:	4798      	blx	r3
   82558:	4b45      	ldr	r3, [pc, #276]	; (82670 <main_task+0x12c>)
   8255a:	6018      	str	r0, [r3, #0]
	box = get_box();
   8255c:	4b45      	ldr	r3, [pc, #276]	; (82674 <main_task+0x130>)
   8255e:	4798      	blx	r3
   82560:	4b45      	ldr	r3, [pc, #276]	; (82678 <main_task+0x134>)
   82562:	6018      	str	r0, [r3, #0]
	
	if (ioport_get_pin_level(pin_mapper(SWITCH_CURIE_NOETHER_PIN))) {
   82564:	2005      	movs	r0, #5
   82566:	4b45      	ldr	r3, [pc, #276]	; (8267c <main_task+0x138>)
   82568:	4798      	blx	r3
typedef uint32_t ioport_port_t;
typedef uint32_t ioport_port_mask_t;

__always_inline static ioport_port_t arch_ioport_pin_to_port_id(ioport_pin_t pin)
{
	return pin >> 5;
   8256a:	0943      	lsrs	r3, r0, #5
	} else {
		return (Pio *)((uintptr_t)IOPORT_BASE_ADDRESS +
		       (IOPORT_PIO_OFFSET * port));
	}
#else
	return (Pio *)((uintptr_t)IOPORT_BASE_ADDRESS +
   8256c:	f503 1300 	add.w	r3, r3, #2097152	; 0x200000
   82570:	f203 7307 	addw	r3, r3, #1799	; 0x707
   82574:	025b      	lsls	r3, r3, #9
	}
}

__always_inline static bool arch_ioport_get_pin_level(ioport_pin_t pin)
{
	return arch_ioport_pin_to_base(pin)->PIO_PDSR & arch_ioport_pin_to_mask(pin);
   82576:	6bda      	ldr	r2, [r3, #60]	; 0x3c
	return arch_ioport_port_to_base(arch_ioport_pin_to_port_id(pin));
}

__always_inline static ioport_port_mask_t arch_ioport_pin_to_mask(ioport_pin_t pin)
{
	return 1U << (pin & 0x1F);
   82578:	f000 001f 	and.w	r0, r0, #31
   8257c:	2301      	movs	r3, #1
   8257e:	4083      	lsls	r3, r0
   82580:	4213      	tst	r3, r2
   82582:	d00b      	beq.n	8259c <main_task+0x58>
		// Marie Curie
		object = get_cube();
   82584:	4b3e      	ldr	r3, [pc, #248]	; (82680 <main_task+0x13c>)
   82586:	4798      	blx	r3
   82588:	4b3e      	ldr	r3, [pc, #248]	; (82684 <main_task+0x140>)
   8258a:	6018      	str	r0, [r3, #0]
		minimum_distance_to_object = 47;
		platform_distance_to_object = 25; // Sensor do not touch!
		printf("Curie selected\n");
   8258c:	483e      	ldr	r0, [pc, #248]	; (82688 <main_task+0x144>)
   8258e:	4b35      	ldr	r3, [pc, #212]	; (82664 <main_task+0x120>)
   82590:	4798      	blx	r3
	
	if (ioport_get_pin_level(pin_mapper(SWITCH_CURIE_NOETHER_PIN))) {
		// Marie Curie
		object = get_cube();
		minimum_distance_to_object = 47;
		platform_distance_to_object = 25; // Sensor do not touch!
   82592:	2319      	movs	r3, #25
   82594:	9308      	str	r3, [sp, #32]
	box = get_box();
	
	if (ioport_get_pin_level(pin_mapper(SWITCH_CURIE_NOETHER_PIN))) {
		// Marie Curie
		object = get_cube();
		minimum_distance_to_object = 47;
   82596:	232f      	movs	r3, #47	; 0x2f
   82598:	9306      	str	r3, [sp, #24]
   8259a:	e00a      	b.n	825b2 <main_task+0x6e>
		platform_distance_to_object = 25; // Sensor do not touch!
		printf("Curie selected\n");
	}
	else {
		 // Emmy Noether
		object = get_ball();
   8259c:	4b3b      	ldr	r3, [pc, #236]	; (8268c <main_task+0x148>)
   8259e:	4798      	blx	r3
   825a0:	4b38      	ldr	r3, [pc, #224]	; (82684 <main_task+0x140>)
   825a2:	6018      	str	r0, [r3, #0]
		minimum_distance_to_object = 42;
		platform_distance_to_object = 20; // Sensor do not touch!
		printf("Noether selected\n");
   825a4:	483a      	ldr	r0, [pc, #232]	; (82690 <main_task+0x14c>)
   825a6:	4b2f      	ldr	r3, [pc, #188]	; (82664 <main_task+0x120>)
   825a8:	4798      	blx	r3
	}
	else {
		 // Emmy Noether
		object = get_ball();
		minimum_distance_to_object = 42;
		platform_distance_to_object = 20; // Sensor do not touch!
   825aa:	2314      	movs	r3, #20
   825ac:	9308      	str	r3, [sp, #32]
		printf("Curie selected\n");
	}
	else {
		 // Emmy Noether
		object = get_ball();
		minimum_distance_to_object = 42;
   825ae:	232a      	movs	r3, #42	; 0x2a
   825b0:	9306      	str	r3, [sp, #24]
		platform_distance_to_object = 20; // Sensor do not touch!
		printf("Noether selected\n");
	}
	
	vTaskDelay(5000);
   825b2:	f241 3088 	movw	r0, #5000	; 0x1388
   825b6:	4b37      	ldr	r3, [pc, #220]	; (82694 <main_task+0x150>)
   825b8:	4798      	blx	r3
		
	update_positions();
   825ba:	4b2b      	ldr	r3, [pc, #172]	; (82668 <main_task+0x124>)
   825bc:	4798      	blx	r3
	current_pos = get_pos();
   825be:	4b2b      	ldr	r3, [pc, #172]	; (8266c <main_task+0x128>)
   825c0:	4798      	blx	r3
   825c2:	4603      	mov	r3, r0
   825c4:	4d2a      	ldr	r5, [pc, #168]	; (82670 <main_task+0x12c>)
   825c6:	6028      	str	r0, [r5, #0]

	distance = get_euclid_distance(object.x, object.y, current_pos.x, current_pos.y);
   825c8:	4c2e      	ldr	r4, [pc, #184]	; (82684 <main_task+0x140>)
   825ca:	8820      	ldrh	r0, [r4, #0]
   825cc:	8861      	ldrh	r1, [r4, #2]
   825ce:	b29a      	uxth	r2, r3
   825d0:	0c1b      	lsrs	r3, r3, #16
   825d2:	4e31      	ldr	r6, [pc, #196]	; (82698 <main_task+0x154>)
   825d4:	47b0      	blx	r6
	#if USE_NAV_CORRECTION
		distance = distance / 2;
   825d6:	b200      	sxth	r0, r0
   825d8:	eb00 70d0 	add.w	r0, r0, r0, lsr #31
   825dc:	f3c0 094f 	ubfx	r9, r0, #1, #16
	#else
		distance -= minimum_distance_to_object;
	#endif
	alpha = math_get_angle_deg(math_atan2(object.x, object.y, current_pos.x, current_pos.y));
   825e0:	4e2e      	ldr	r6, [pc, #184]	; (8269c <main_task+0x158>)
   825e2:	8820      	ldrh	r0, [r4, #0]
   825e4:	47b0      	blx	r6
   825e6:	e9cd 0104 	strd	r0, r1, [sp, #16]
   825ea:	8860      	ldrh	r0, [r4, #2]
   825ec:	47b0      	blx	r6
   825ee:	4682      	mov	sl, r0
   825f0:	468b      	mov	fp, r1
   825f2:	8828      	ldrh	r0, [r5, #0]
   825f4:	47b0      	blx	r6
   825f6:	e9cd 0100 	strd	r0, r1, [sp]
   825fa:	8868      	ldrh	r0, [r5, #2]
   825fc:	47b0      	blx	r6
   825fe:	e9cd 0102 	strd	r0, r1, [sp, #8]
   82602:	e9dd 0104 	ldrd	r0, r1, [sp, #16]
   82606:	4652      	mov	r2, sl
   82608:	465b      	mov	r3, fp
   8260a:	4e25      	ldr	r6, [pc, #148]	; (826a0 <main_task+0x15c>)
   8260c:	47b0      	blx	r6
   8260e:	4b25      	ldr	r3, [pc, #148]	; (826a4 <main_task+0x160>)
   82610:	4798      	blx	r3
   82612:	4606      	mov	r6, r0
   82614:	460f      	mov	r7, r1
		
	struct motor_task_instruction inst = {
   82616:	f8ad 9038 	strh.w	r9, [sp, #56]	; 0x38
   8261a:	e9cd 6710 	strd	r6, r7, [sp, #64]	; 0x40
		.distance = distance,
		.angle = alpha
	};
		
	xQueueSend(motor_task_instruction_handle, &inst, 10);
   8261e:	4b22      	ldr	r3, [pc, #136]	; (826a8 <main_task+0x164>)
   82620:	6818      	ldr	r0, [r3, #0]
   82622:	a90e      	add	r1, sp, #56	; 0x38
   82624:	220a      	movs	r2, #10
   82626:	2300      	movs	r3, #0
   82628:	f8df c098 	ldr.w	ip, [pc, #152]	; 826c4 <main_task+0x180>
   8262c:	47e0      	blx	ip
	earlier_pos = current_pos;
   8262e:	682a      	ldr	r2, [r5, #0]
   82630:	4b1e      	ldr	r3, [pc, #120]	; (826ac <main_task+0x168>)
   82632:	601a      	str	r2, [r3, #0]
	
	printf("Current pos: (%d, %d)\n", current_pos.x, current_pos.y);
   82634:	481e      	ldr	r0, [pc, #120]	; (826b0 <main_task+0x16c>)
   82636:	8829      	ldrh	r1, [r5, #0]
   82638:	886a      	ldrh	r2, [r5, #2]
   8263a:	4d0a      	ldr	r5, [pc, #40]	; (82664 <main_task+0x120>)
   8263c:	47a8      	blx	r5
	printf("Position of object: (%d, %d)\n", object.x, object.y);
   8263e:	481d      	ldr	r0, [pc, #116]	; (826b4 <main_task+0x170>)
   82640:	8821      	ldrh	r1, [r4, #0]
   82642:	8862      	ldrh	r2, [r4, #2]
   82644:	47a8      	blx	r5
	printf("First run, angle: %d, d: %d\n", (int16_t)alpha, inst.distance);
   82646:	4630      	mov	r0, r6
   82648:	4639      	mov	r1, r7
   8264a:	4b1b      	ldr	r3, [pc, #108]	; (826b8 <main_task+0x174>)
   8264c:	4798      	blx	r3
   8264e:	b201      	sxth	r1, r0
   82650:	481a      	ldr	r0, [pc, #104]	; (826bc <main_task+0x178>)
   82652:	f9bd 2038 	ldrsh.w	r2, [sp, #56]	; 0x38
   82656:	47a8      	blx	r5

	while(USE_NAV_CORRECTION && (distance - minimum_distance_to_object) > 3) {
		/* Wait for motor task to complete */
		while(xQueuePeek(motor_task_instruction_handle, &inst, 2));
   82658:	f8df b04c 	ldr.w	fp, [pc, #76]	; 826a8 <main_task+0x164>
   8265c:	4f18      	ldr	r7, [pc, #96]	; (826c0 <main_task+0x17c>)
	
	printf("Current pos: (%d, %d)\n", current_pos.x, current_pos.y);
	printf("Position of object: (%d, %d)\n", object.x, object.y);
	printf("First run, angle: %d, d: %d\n", (int16_t)alpha, inst.distance);

	while(USE_NAV_CORRECTION && (distance - minimum_distance_to_object) > 3) {
   8265e:	e0c9      	b.n	827f4 <main_task+0x2b0>
   82660:	00087bf4 	.word	0x00087bf4
   82664:	00084c29 	.word	0x00084c29
   82668:	000805c5 	.word	0x000805c5
   8266c:	00080559 	.word	0x00080559
   82670:	2007abc4 	.word	0x2007abc4
   82674:	00080579 	.word	0x00080579
   82678:	2007abbc 	.word	0x2007abbc
   8267c:	00082c85 	.word	0x00082c85
   82680:	000805a5 	.word	0x000805a5
   82684:	2007abc0 	.word	0x2007abc0
   82688:	00087c18 	.word	0x00087c18
   8268c:	00080585 	.word	0x00080585
   82690:	00087c28 	.word	0x00087c28
   82694:	00081695 	.word	0x00081695
   82698:	000820bd 	.word	0x000820bd
   8269c:	00084215 	.word	0x00084215
   826a0:	00082139 	.word	0x00082139
   826a4:	000820a1 	.word	0x000820a1
   826a8:	2007ad68 	.word	0x2007ad68
   826ac:	2007abb8 	.word	0x2007abb8
   826b0:	00087c3c 	.word	0x00087c3c
   826b4:	00087c54 	.word	0x00087c54
   826b8:	00084835 	.word	0x00084835
   826bc:	00087c74 	.word	0x00087c74
   826c0:	00080f45 	.word	0x00080f45
   826c4:	00080d95 	.word	0x00080d95
		/* Wait for motor task to complete */
		while(xQueuePeek(motor_task_instruction_handle, &inst, 2));
   826c8:	f8db 0000 	ldr.w	r0, [fp]
   826cc:	a90e      	add	r1, sp, #56	; 0x38
   826ce:	2202      	movs	r2, #2
   826d0:	2301      	movs	r3, #1
   826d2:	47b8      	blx	r7
   826d4:	2800      	cmp	r0, #0
   826d6:	d1f7      	bne.n	826c8 <main_task+0x184>

		update_positions();
   826d8:	4b8a      	ldr	r3, [pc, #552]	; (82904 <main_task+0x3c0>)
   826da:	4798      	blx	r3
		current_pos = get_pos();
   826dc:	4b8a      	ldr	r3, [pc, #552]	; (82908 <main_task+0x3c4>)
   826de:	4798      	blx	r3
   826e0:	4602      	mov	r2, r0
   826e2:	4d8a      	ldr	r5, [pc, #552]	; (8290c <main_task+0x3c8>)
   826e4:	6028      	str	r0, [r5, #0]
		printf("Current pos: (%d, %d)\n", current_pos.x, current_pos.y);
   826e6:	488a      	ldr	r0, [pc, #552]	; (82910 <main_task+0x3cc>)
   826e8:	b291      	uxth	r1, r2
   826ea:	0c12      	lsrs	r2, r2, #16
   826ec:	4e89      	ldr	r6, [pc, #548]	; (82914 <main_task+0x3d0>)
   826ee:	47b0      	blx	r6
		printf("Earlier pos: (%d, %d)\n", earlier_pos.x, earlier_pos.y);
   826f0:	4b89      	ldr	r3, [pc, #548]	; (82918 <main_task+0x3d4>)
   826f2:	488a      	ldr	r0, [pc, #552]	; (8291c <main_task+0x3d8>)
   826f4:	8819      	ldrh	r1, [r3, #0]
   826f6:	885a      	ldrh	r2, [r3, #2]
   826f8:	47b0      	blx	r6
		
		distance = get_euclid_distance(object.x, object.y, current_pos.x, current_pos.y);
   826fa:	4b89      	ldr	r3, [pc, #548]	; (82920 <main_task+0x3dc>)
   826fc:	8818      	ldrh	r0, [r3, #0]
   826fe:	8859      	ldrh	r1, [r3, #2]
   82700:	882a      	ldrh	r2, [r5, #0]
   82702:	886b      	ldrh	r3, [r5, #2]
   82704:	4d87      	ldr	r5, [pc, #540]	; (82924 <main_task+0x3e0>)
   82706:	47a8      	blx	r5
		/* Drive 70 % of target distance */
		distance = distance / 2;
   82708:	b200      	sxth	r0, r0
   8270a:	eb00 70d0 	add.w	r0, r0, r0, lsr #31
		
		if (distance - minimum_distance_to_object < 10) {
   8270e:	f3c0 094f 	ubfx	r9, r0, #1, #16
   82712:	ebc4 0060 	rsb	r0, r4, r0, asr #1
			distance = 15;
   82716:	2809      	cmp	r0, #9
   82718:	bfd8      	it	le
   8271a:	f04f 090f 	movle.w	r9, #15
		}

		/* Calculate the actual angle that was driven */
		beta = math_get_angle_deg(math_atan2(current_pos.x, current_pos.y, earlier_pos.x, earlier_pos.y));
   8271e:	4e7b      	ldr	r6, [pc, #492]	; (8290c <main_task+0x3c8>)
   82720:	4d81      	ldr	r5, [pc, #516]	; (82928 <main_task+0x3e4>)
   82722:	8830      	ldrh	r0, [r6, #0]
   82724:	47a8      	blx	r5
   82726:	e9cd 0104 	strd	r0, r1, [sp, #16]
   8272a:	8870      	ldrh	r0, [r6, #2]
   8272c:	47a8      	blx	r5
   8272e:	e9cd 010a 	strd	r0, r1, [sp, #40]	; 0x28
   82732:	4c79      	ldr	r4, [pc, #484]	; (82918 <main_task+0x3d4>)
   82734:	8820      	ldrh	r0, [r4, #0]
   82736:	47a8      	blx	r5
   82738:	e9cd 0100 	strd	r0, r1, [sp]
   8273c:	8860      	ldrh	r0, [r4, #2]
   8273e:	47a8      	blx	r5
   82740:	e9cd 0102 	strd	r0, r1, [sp, #8]
   82744:	e9dd 0104 	ldrd	r0, r1, [sp, #16]
   82748:	e9dd 230a 	ldrd	r2, r3, [sp, #40]	; 0x28
   8274c:	f8df a23c 	ldr.w	sl, [pc, #572]	; 8298c <main_task+0x448>
   82750:	47d0      	blx	sl
   82752:	f8df 823c 	ldr.w	r8, [pc, #572]	; 82990 <main_task+0x44c>
   82756:	47c0      	blx	r8
   82758:	e9cd 0104 	strd	r0, r1, [sp, #16]
		alpha = math_get_angle_deg(math_atan2(object.x, object.y, current_pos.x, current_pos.y));
   8275c:	4c70      	ldr	r4, [pc, #448]	; (82920 <main_task+0x3dc>)
   8275e:	8820      	ldrh	r0, [r4, #0]
   82760:	47a8      	blx	r5
   82762:	e9cd 010a 	strd	r0, r1, [sp, #40]	; 0x28
   82766:	8860      	ldrh	r0, [r4, #2]
   82768:	47a8      	blx	r5
   8276a:	e9cd 010c 	strd	r0, r1, [sp, #48]	; 0x30
   8276e:	8830      	ldrh	r0, [r6, #0]
   82770:	47a8      	blx	r5
   82772:	e9cd 0100 	strd	r0, r1, [sp]
   82776:	8870      	ldrh	r0, [r6, #2]
   82778:	47a8      	blx	r5
   8277a:	e9cd 0102 	strd	r0, r1, [sp, #8]
   8277e:	e9dd 010a 	ldrd	r0, r1, [sp, #40]	; 0x28
   82782:	e9dd 230c 	ldrd	r2, r3, [sp, #48]	; 0x30
   82786:	47d0      	blx	sl
   82788:	47c0      	blx	r8
		correction_angle = alpha - beta;
   8278a:	e9dd 2304 	ldrd	r2, r3, [sp, #16]
   8278e:	4d67      	ldr	r5, [pc, #412]	; (8292c <main_task+0x3e8>)
   82790:	47a8      	blx	r5
   82792:	e9cd 0104 	strd	r0, r1, [sp, #16]
		
		printf("correction: %d, d: %d\n", (int16_t)correction_angle, distance);
   82796:	4e66      	ldr	r6, [pc, #408]	; (82930 <main_task+0x3ec>)
   82798:	47b0      	blx	r6
   8279a:	4605      	mov	r5, r0
   8279c:	4865      	ldr	r0, [pc, #404]	; (82934 <main_task+0x3f0>)
   8279e:	b229      	sxth	r1, r5
   827a0:	fa0f f289 	sxth.w	r2, r9
   827a4:	f8df 816c 	ldr.w	r8, [pc, #364]	; 82914 <main_task+0x3d0>
   827a8:	47c0      	blx	r8
		printf("Object: (%d, %d)\n", object.x, object.y);
   827aa:	4863      	ldr	r0, [pc, #396]	; (82938 <main_task+0x3f4>)
   827ac:	8821      	ldrh	r1, [r4, #0]
   827ae:	8862      	ldrh	r2, [r4, #2]
   827b0:	47c0      	blx	r8

		if (abs(correction_angle) < MINIMUM_CORRECTION_ANGLE) {
   827b2:	ea85 70e5 	eor.w	r0, r5, r5, asr #31
   827b6:	eba0 70e5 	sub.w	r0, r0, r5, asr #31
   827ba:	4b60      	ldr	r3, [pc, #384]	; (8293c <main_task+0x3f8>)
   827bc:	4798      	blx	r3
   827be:	2200      	movs	r2, #0
   827c0:	4b5f      	ldr	r3, [pc, #380]	; (82940 <main_task+0x3fc>)
   827c2:	4c60      	ldr	r4, [pc, #384]	; (82944 <main_task+0x400>)
   827c4:	47a0      	blx	r4
   827c6:	b118      	cbz	r0, 827d0 <main_task+0x28c>
			correction_angle = 0;
   827c8:	2200      	movs	r2, #0
   827ca:	2300      	movs	r3, #0
   827cc:	e9cd 2304 	strd	r2, r3, [sp, #16]
		}
			
		inst.distance = distance;
   827d0:	f8ad 9038 	strh.w	r9, [sp, #56]	; 0x38
		inst.angle = correction_angle;
   827d4:	e9dd 2304 	ldrd	r2, r3, [sp, #16]
   827d8:	e9cd 2310 	strd	r2, r3, [sp, #64]	; 0x40

		if (xQueueSend(motor_task_instruction_handle, &inst, 5)) {
   827dc:	f8db 0000 	ldr.w	r0, [fp]
   827e0:	a90e      	add	r1, sp, #56	; 0x38
   827e2:	2205      	movs	r2, #5
   827e4:	2300      	movs	r3, #0
   827e6:	4c58      	ldr	r4, [pc, #352]	; (82948 <main_task+0x404>)
   827e8:	47a0      	blx	r4
   827ea:	b118      	cbz	r0, 827f4 <main_task+0x2b0>
			/* Instruction successfully sent to motor task */
			earlier_pos = current_pos;
   827ec:	4b47      	ldr	r3, [pc, #284]	; (8290c <main_task+0x3c8>)
   827ee:	681a      	ldr	r2, [r3, #0]
   827f0:	4b49      	ldr	r3, [pc, #292]	; (82918 <main_task+0x3d4>)
   827f2:	601a      	str	r2, [r3, #0]
	
	printf("Current pos: (%d, %d)\n", current_pos.x, current_pos.y);
	printf("Position of object: (%d, %d)\n", object.x, object.y);
	printf("First run, angle: %d, d: %d\n", (int16_t)alpha, inst.distance);

	while(USE_NAV_CORRECTION && (distance - minimum_distance_to_object) > 3) {
   827f4:	f9bd 4018 	ldrsh.w	r4, [sp, #24]
   827f8:	fa0f f389 	sxth.w	r3, r9
   827fc:	1b1b      	subs	r3, r3, r4
   827fe:	2b03      	cmp	r3, #3
   82800:	f73f af62 	bgt.w	826c8 <main_task+0x184>
			earlier_pos = current_pos;
			mock_pos_index++;
		}
	}

	while(xQueuePeek(motor_task_instruction_handle, &inst, 2));
   82804:	4d51      	ldr	r5, [pc, #324]	; (8294c <main_task+0x408>)
   82806:	4c52      	ldr	r4, [pc, #328]	; (82950 <main_task+0x40c>)
   82808:	6828      	ldr	r0, [r5, #0]
   8280a:	a90e      	add	r1, sp, #56	; 0x38
   8280c:	2202      	movs	r2, #2
   8280e:	2301      	movs	r3, #1
   82810:	47a0      	blx	r4
   82812:	2800      	cmp	r0, #0
   82814:	d1f8      	bne.n	82808 <main_task+0x2c4>
   82816:	2700      	movs	r7, #0
   82818:	2601      	movs	r6, #1
   8281a:	46b9      	mov	r9, r7
   8281c:	2300      	movs	r3, #0
   8281e:	9304      	str	r3, [sp, #16]
   82820:	46b0      	mov	r8, r6
	const int detection_times = 3; // Try 3 times per rotation to get reliable data
	
	while (USE_SENSOR_DETECTION && searching_for_objcet) {		
		/* Try x times per rotation to get reliable data */
		for (int try = 0; try < detection_times; try++) {
			obj_distance = hcsr04_get_distance_filtered();
   82822:	f8df a170 	ldr.w	sl, [pc, #368]	; 82994 <main_task+0x450>
   82826:	469b      	mov	fp, r3
   82828:	e069      	b.n	828fe <main_task+0x3ba>
   8282a:	47d0      	blx	sl
			
			if (obj_distance != -1) {
   8282c:	f1b0 3fff 	cmp.w	r0, #4294967295
   82830:	f040 8212 	bne.w	82c58 <main_task+0x714>
	int step_forward_flag = 0; // Used to drive forward
	const int detection_times = 3; // Try 3 times per rotation to get reliable data
	
	while (USE_SENSOR_DETECTION && searching_for_objcet) {		
		/* Try x times per rotation to get reliable data */
		for (int try = 0; try < detection_times; try++) {
   82834:	3c01      	subs	r4, #1
   82836:	d1f8      	bne.n	8282a <main_task+0x2e6>
   82838:	e21b      	b.n	82c72 <main_task+0x72e>
			printf("Correlate: %d\n", distance_to_move);
			searching_for_objcet = 0;
		}
		else {
			if (moved_counter < max_moved_times) {
				if (step_forward_flag == 0) {
   8283a:	2f00      	cmp	r7, #0
   8283c:	d130      	bne.n	828a0 <main_task+0x35c>
					if (turn_right == 1) { // Turn right (1) or turn left (0)
   8283e:	b1be      	cbz	r6, 82870 <main_task+0x32c>
						rotate_tot += rotation_deg; // Store how much the robot has rotated overall
   82840:	9804      	ldr	r0, [sp, #16]
   82842:	4944      	ldr	r1, [pc, #272]	; (82954 <main_task+0x410>)
   82844:	4b44      	ldr	r3, [pc, #272]	; (82958 <main_task+0x414>)
   82846:	4798      	blx	r3
   82848:	4604      	mov	r4, r0
   8284a:	9004      	str	r0, [sp, #16]
						current_rotation = rotation_deg; // How much the robot will rotate
						printf("Not found: Rotate right\n");
   8284c:	4843      	ldr	r0, [pc, #268]	; (8295c <main_task+0x418>)
   8284e:	4b31      	ldr	r3, [pc, #196]	; (82914 <main_task+0x3d0>)
   82850:	4798      	blx	r3
						
						if (rotate_tot > max_rotation_deg) { // The robot has rotated 30 degree to the right (rotate_tot = 35 but the robot have rotated 30)
   82852:	4620      	mov	r0, r4
   82854:	4942      	ldr	r1, [pc, #264]	; (82960 <main_task+0x41c>)
   82856:	4b43      	ldr	r3, [pc, #268]	; (82964 <main_task+0x420>)
   82858:	4798      	blx	r3
   8285a:	2800      	cmp	r0, #0
   8285c:	d031      	beq.n	828c2 <main_task+0x37e>
							turn_right = 0; // Turn left next time
							current_rotation = -max_rotation_deg; // Rotate back to the middle
							rotate_tot = 0; // Rotate to the middle again therefore before and after all rotations the robot is back where it started the rotation part
							printf("Not found: rotate to middle");
   8285e:	4842      	ldr	r0, [pc, #264]	; (82968 <main_task+0x424>)
   82860:	4b2c      	ldr	r3, [pc, #176]	; (82914 <main_task+0x3d0>)
   82862:	4798      	blx	r3
						rotate_tot += rotation_deg; // Store how much the robot has rotated overall
						current_rotation = rotation_deg; // How much the robot will rotate
						printf("Not found: Rotate right\n");
						
						if (rotate_tot > max_rotation_deg) { // The robot has rotated 30 degree to the right (rotate_tot = 35 but the robot have rotated 30)
							turn_right = 0; // Turn left next time
   82864:	2600      	movs	r6, #0
							current_rotation = -max_rotation_deg; // Rotate back to the middle
   82866:	4841      	ldr	r0, [pc, #260]	; (8296c <main_task+0x428>)
							rotate_tot = 0; // Rotate to the middle again therefore before and after all rotations the robot is back where it started the rotation part
   82868:	f8cd b010 	str.w	fp, [sp, #16]
							printf("Not found: rotate to middle");
   8286c:	4634      	mov	r4, r6
   8286e:	e02d      	b.n	828cc <main_task+0x388>
						}
					}
					else {
						rotate_tot -= rotation_deg; // Store how much the robot has rotated overall
   82870:	9804      	ldr	r0, [sp, #16]
   82872:	4938      	ldr	r1, [pc, #224]	; (82954 <main_task+0x410>)
   82874:	4b3e      	ldr	r3, [pc, #248]	; (82970 <main_task+0x42c>)
   82876:	4798      	blx	r3
   82878:	4604      	mov	r4, r0
   8287a:	9004      	str	r0, [sp, #16]
						current_rotation = -rotation_deg;
						printf("Not found: Rotate left\n");
   8287c:	483d      	ldr	r0, [pc, #244]	; (82974 <main_task+0x430>)
   8287e:	4b25      	ldr	r3, [pc, #148]	; (82914 <main_task+0x3d0>)
   82880:	4798      	blx	r3
						
						if (rotate_tot < -max_rotation_deg) {
   82882:	4620      	mov	r0, r4
   82884:	4939      	ldr	r1, [pc, #228]	; (8296c <main_task+0x428>)
   82886:	4b3c      	ldr	r3, [pc, #240]	; (82978 <main_task+0x434>)
   82888:	4798      	blx	r3
   8288a:	b1e8      	cbz	r0, 828c8 <main_task+0x384>
							current_rotation = max_rotation_deg; // Rotate to the middle after all rotations
							rotate_tot = 0; // After all rotations the robot is in the middle again and therefore the robot has not changed it's angle
							step_forward_flag = 1;
							turn_right = 1;
							printf("Not found: rotate to middle");
   8288c:	4836      	ldr	r0, [pc, #216]	; (82968 <main_task+0x424>)
   8288e:	4b21      	ldr	r3, [pc, #132]	; (82914 <main_task+0x3d0>)
   82890:	4798      	blx	r3
						printf("Not found: Rotate left\n");
						
						if (rotate_tot < -max_rotation_deg) {
							current_rotation = max_rotation_deg; // Rotate to the middle after all rotations
							rotate_tot = 0; // After all rotations the robot is in the middle again and therefore the robot has not changed it's angle
							step_forward_flag = 1;
   82892:	2701      	movs	r7, #1
							turn_right = 1;
   82894:	463e      	mov	r6, r7
						rotate_tot -= rotation_deg; // Store how much the robot has rotated overall
						current_rotation = -rotation_deg;
						printf("Not found: Rotate left\n");
						
						if (rotate_tot < -max_rotation_deg) {
							current_rotation = max_rotation_deg; // Rotate to the middle after all rotations
   82896:	4832      	ldr	r0, [pc, #200]	; (82960 <main_task+0x41c>)
							rotate_tot = 0; // After all rotations the robot is in the middle again and therefore the robot has not changed it's angle
   82898:	f8cd b010 	str.w	fp, [sp, #16]
							step_forward_flag = 1;
							turn_right = 1;
							printf("Not found: rotate to middle");
   8289c:	2400      	movs	r4, #0
   8289e:	e015      	b.n	828cc <main_task+0x388>
						}
					}
				}
				else {
					printf("Not found move forward: " + step_forward);
   828a0:	4836      	ldr	r0, [pc, #216]	; (8297c <main_task+0x438>)
   828a2:	4b1c      	ldr	r3, [pc, #112]	; (82914 <main_task+0x3d0>)
   828a4:	4798      	blx	r3
					distance_to_move = step_forward;
					moved_counter++;
   828a6:	f109 0901 	add.w	r9, r9, #1
					step_forward_flag = 0;
   828aa:	2700      	movs	r7, #0
					}
				}
				else {
					printf("Not found move forward: " + step_forward);
					distance_to_move = step_forward;
					moved_counter++;
   828ac:	4658      	mov	r0, fp
						}
					}
				}
				else {
					printf("Not found move forward: " + step_forward);
					distance_to_move = step_forward;
   828ae:	2403      	movs	r4, #3
   828b0:	e00c      	b.n	828cc <main_task+0x388>
					moved_counter++;
					step_forward_flag = 0;
				}
			}
			else {
				printf("Could not find the object\n");
   828b2:	4833      	ldr	r0, [pc, #204]	; (82980 <main_task+0x43c>)
   828b4:	4b17      	ldr	r3, [pc, #92]	; (82914 <main_task+0x3d0>)
   828b6:	4798      	blx	r3
   828b8:	4658      	mov	r0, fp
				searching_for_objcet = 0;
   828ba:	f04f 0800 	mov.w	r8, #0
					moved_counter++;
					step_forward_flag = 0;
				}
			}
			else {
				printf("Could not find the object\n");
   828be:	4644      	mov	r4, r8
   828c0:	e004      	b.n	828cc <main_task+0x388>
		else {
			if (moved_counter < max_moved_times) {
				if (step_forward_flag == 0) {
					if (turn_right == 1) { // Turn right (1) or turn left (0)
						rotate_tot += rotation_deg; // Store how much the robot has rotated overall
						current_rotation = rotation_deg; // How much the robot will rotate
   828c2:	4824      	ldr	r0, [pc, #144]	; (82954 <main_task+0x410>)
   828c4:	2400      	movs	r4, #0
   828c6:	e001      	b.n	828cc <main_task+0x388>
							printf("Not found: rotate to middle");
						}
					}
					else {
						rotate_tot -= rotation_deg; // Store how much the robot has rotated overall
						current_rotation = -rotation_deg;
   828c8:	482e      	ldr	r0, [pc, #184]	; (82984 <main_task+0x440>)
   828ca:	2400      	movs	r4, #0
			else {
				printf("Could not find the object\n");
				searching_for_objcet = 0;
			}
		}
		inst.angle = current_rotation;
   828cc:	4b2e      	ldr	r3, [pc, #184]	; (82988 <main_task+0x444>)
   828ce:	4798      	blx	r3
   828d0:	e9cd 0110 	strd	r0, r1, [sp, #64]	; 0x40
		inst.distance = distance_to_move;
   828d4:	a912      	add	r1, sp, #72	; 0x48
   828d6:	f821 4d10 	strh.w	r4, [r1, #-16]!
		current_rotation = 0;
		distance_to_move = 0;
		
		xQueueSend(motor_task_instruction_handle, &inst, 2);
   828da:	4b1c      	ldr	r3, [pc, #112]	; (8294c <main_task+0x408>)
   828dc:	6818      	ldr	r0, [r3, #0]
   828de:	2202      	movs	r2, #2
   828e0:	2300      	movs	r3, #0
   828e2:	4c19      	ldr	r4, [pc, #100]	; (82948 <main_task+0x404>)
   828e4:	47a0      	blx	r4
		while(xQueuePeek(motor_task_instruction_handle, &inst, 2));
   828e6:	4d19      	ldr	r5, [pc, #100]	; (8294c <main_task+0x408>)
   828e8:	4c19      	ldr	r4, [pc, #100]	; (82950 <main_task+0x40c>)
   828ea:	6828      	ldr	r0, [r5, #0]
   828ec:	a90e      	add	r1, sp, #56	; 0x38
   828ee:	2202      	movs	r2, #2
   828f0:	2301      	movs	r3, #1
   828f2:	47a0      	blx	r4
   828f4:	2800      	cmp	r0, #0
   828f6:	d1f8      	bne.n	828ea <main_task+0x3a6>
	const int max_moved_times = 3; // Max times the robot will move forward in attempt to find an object
	int turn_right = 1; // Turn right = 1, Turn left = 0
	int step_forward_flag = 0; // Used to drive forward
	const int detection_times = 3; // Try 3 times per rotation to get reliable data
	
	while (USE_SENSOR_DETECTION && searching_for_objcet) {		
   828f8:	f1b8 0f00 	cmp.w	r8, #0
   828fc:	d04c      	beq.n	82998 <main_task+0x454>
		
		printf("correction: %d, d: %d\n", (int16_t)correction_angle, distance);
		printf("Object: (%d, %d)\n", object.x, object.y);

		if (abs(correction_angle) < MINIMUM_CORRECTION_ANGLE) {
			correction_angle = 0;
   828fe:	2403      	movs	r4, #3
   82900:	e793      	b.n	8282a <main_task+0x2e6>
   82902:	bf00      	nop
   82904:	000805c5 	.word	0x000805c5
   82908:	00080559 	.word	0x00080559
   8290c:	2007abc4 	.word	0x2007abc4
   82910:	00087c3c 	.word	0x00087c3c
   82914:	00084c29 	.word	0x00084c29
   82918:	2007abb8 	.word	0x2007abb8
   8291c:	00087c94 	.word	0x00087c94
   82920:	2007abc0 	.word	0x2007abc0
   82924:	000820bd 	.word	0x000820bd
   82928:	00084215 	.word	0x00084215
   8292c:	00083f99 	.word	0x00083f99
   82930:	00084835 	.word	0x00084835
   82934:	00087cac 	.word	0x00087cac
   82938:	00087cc4 	.word	0x00087cc4
   8293c:	00084235 	.word	0x00084235
   82940:	3ff00000 	.word	0x3ff00000
   82944:	000847e5 	.word	0x000847e5
   82948:	00080d95 	.word	0x00080d95
   8294c:	2007ad68 	.word	0x2007ad68
   82950:	00080f45 	.word	0x00080f45
   82954:	40a00000 	.word	0x40a00000
   82958:	000848d1 	.word	0x000848d1
   8295c:	00087cd8 	.word	0x00087cd8
   82960:	41f00000 	.word	0x41f00000
   82964:	00084bb9 	.word	0x00084bb9
   82968:	00087cf4 	.word	0x00087cf4
   8296c:	c1f00000 	.word	0xc1f00000
   82970:	000848cd 	.word	0x000848cd
   82974:	00087d10 	.word	0x00087d10
   82978:	00084b7d 	.word	0x00084b7d
   8297c:	00087d2b 	.word	0x00087d2b
   82980:	00087d44 	.word	0x00087d44
   82984:	c0a00000 	.word	0xc0a00000
   82988:	00084259 	.word	0x00084259
   8298c:	00082139 	.word	0x00082139
   82990:	000820a1 	.word	0x000820a1
   82994:	00080369 	.word	0x00080369
		
		xQueueSend(motor_task_instruction_handle, &inst, 2);
		while(xQueuePeek(motor_task_instruction_handle, &inst, 2));
	}

	printf("Attempting to grab object\n");
   82998:	4894      	ldr	r0, [pc, #592]	; (82bec <main_task+0x6a8>)
   8299a:	f8df b2b4 	ldr.w	fp, [pc, #692]	; 82c50 <main_task+0x70c>
   8299e:	47d8      	blx	fp
	/* Send a message to the arm that we've found it */
	master_write_cmd(TWI1,grap_object);
   829a0:	4893      	ldr	r0, [pc, #588]	; (82bf0 <main_task+0x6ac>)
   829a2:	210c      	movs	r1, #12
   829a4:	4b93      	ldr	r3, [pc, #588]	; (82bf4 <main_task+0x6b0>)
   829a6:	4798      	blx	r3
	/* Do a busy wait for message back */
	vTaskDelay(17000);
   829a8:	f244 2068 	movw	r0, #17000	; 0x4268
   829ac:	4b92      	ldr	r3, [pc, #584]	; (82bf8 <main_task+0x6b4>)
   829ae:	4798      	blx	r3
	

	/* Finally, take us to the box */
	update_positions();
   829b0:	4b92      	ldr	r3, [pc, #584]	; (82bfc <main_task+0x6b8>)
   829b2:	4798      	blx	r3
	current_pos = get_pos();
   829b4:	4b92      	ldr	r3, [pc, #584]	; (82c00 <main_task+0x6bc>)
   829b6:	4798      	blx	r3
   829b8:	f8df a280 	ldr.w	sl, [pc, #640]	; 82c3c <main_task+0x6f8>
   829bc:	4607      	mov	r7, r0
   829be:	0c06      	lsrs	r6, r0, #16
   829c0:	f8ca 0000 	str.w	r0, [sl]
		
	alpha = math_get_angle_deg(math_atan2(box.x, box.y, current_pos.x, current_pos.y));
   829c4:	4d8f      	ldr	r5, [pc, #572]	; (82c04 <main_task+0x6c0>)
   829c6:	4c90      	ldr	r4, [pc, #576]	; (82c08 <main_task+0x6c4>)
   829c8:	8828      	ldrh	r0, [r5, #0]
   829ca:	47a0      	blx	r4
   829cc:	4680      	mov	r8, r0
   829ce:	4689      	mov	r9, r1
   829d0:	8868      	ldrh	r0, [r5, #2]
   829d2:	47a0      	blx	r4
   829d4:	e9cd 0106 	strd	r0, r1, [sp, #24]
   829d8:	b2b8      	uxth	r0, r7
   829da:	47a0      	blx	r4
   829dc:	e9cd 0100 	strd	r0, r1, [sp]
   829e0:	b2b0      	uxth	r0, r6
   829e2:	47a0      	blx	r4
   829e4:	e9cd 0102 	strd	r0, r1, [sp, #8]
   829e8:	4640      	mov	r0, r8
   829ea:	4649      	mov	r1, r9
   829ec:	e9dd 2306 	ldrd	r2, r3, [sp, #24]
   829f0:	4f86      	ldr	r7, [pc, #536]	; (82c0c <main_task+0x6c8>)
   829f2:	47b8      	blx	r7
   829f4:	4e86      	ldr	r6, [pc, #536]	; (82c10 <main_task+0x6cc>)
   829f6:	47b0      	blx	r6
   829f8:	e9cd 0106 	strd	r0, r1, [sp, #24]
	beta = math_get_angle_deg(math_atan2(current_pos.x, current_pos.y, earlier_pos.x, earlier_pos.y));
   829fc:	f8ba 0000 	ldrh.w	r0, [sl]
   82a00:	47a0      	blx	r4
   82a02:	e9cd 0108 	strd	r0, r1, [sp, #32]
   82a06:	f8ba 0002 	ldrh.w	r0, [sl, #2]
   82a0a:	47a0      	blx	r4
   82a0c:	e9cd 010a 	strd	r0, r1, [sp, #40]	; 0x28
   82a10:	f8df 822c 	ldr.w	r8, [pc, #556]	; 82c40 <main_task+0x6fc>
   82a14:	f8b8 0000 	ldrh.w	r0, [r8]
   82a18:	47a0      	blx	r4
   82a1a:	e9cd 0100 	strd	r0, r1, [sp]
   82a1e:	f8b8 0002 	ldrh.w	r0, [r8, #2]
   82a22:	47a0      	blx	r4
   82a24:	e9cd 0102 	strd	r0, r1, [sp, #8]
   82a28:	e9dd 0108 	ldrd	r0, r1, [sp, #32]
   82a2c:	e9dd 230a 	ldrd	r2, r3, [sp, #40]	; 0x28
   82a30:	47b8      	blx	r7
   82a32:	47b0      	blx	r6
   82a34:	4680      	mov	r8, r0
   82a36:	4689      	mov	r9, r1
		
	distance = get_euclid_distance(box.x, box.y, current_pos.x, current_pos.y);
   82a38:	8828      	ldrh	r0, [r5, #0]
   82a3a:	8869      	ldrh	r1, [r5, #2]
   82a3c:	f8ba 2000 	ldrh.w	r2, [sl]
   82a40:	f8ba 3002 	ldrh.w	r3, [sl, #2]
   82a44:	4c73      	ldr	r4, [pc, #460]	; (82c14 <main_task+0x6d0>)
   82a46:	47a0      	blx	r4
   82a48:	b284      	uxth	r4, r0
	/* Compensate for earlier rotations as well */
	correction_angle = alpha - beta -rotate_tot;
   82a4a:	4e73      	ldr	r6, [pc, #460]	; (82c18 <main_task+0x6d4>)
   82a4c:	e9dd 0106 	ldrd	r0, r1, [sp, #24]
   82a50:	4642      	mov	r2, r8
   82a52:	464b      	mov	r3, r9
   82a54:	47b0      	blx	r6
   82a56:	4680      	mov	r8, r0
   82a58:	4689      	mov	r9, r1
   82a5a:	9804      	ldr	r0, [sp, #16]
   82a5c:	4b6f      	ldr	r3, [pc, #444]	; (82c1c <main_task+0x6d8>)
   82a5e:	4798      	blx	r3
   82a60:	4602      	mov	r2, r0
   82a62:	460b      	mov	r3, r1
   82a64:	4640      	mov	r0, r8
   82a66:	4649      	mov	r1, r9
   82a68:	47b0      	blx	r6
   82a6a:	4606      	mov	r6, r0
   82a6c:	460f      	mov	r7, r1
	
	printf("correction: %d, d: %d\n", (int16_t)correction_angle, distance);
   82a6e:	f8df 91d8 	ldr.w	r9, [pc, #472]	; 82c48 <main_task+0x704>
   82a72:	47c8      	blx	r9
   82a74:	4680      	mov	r8, r0
   82a76:	486a      	ldr	r0, [pc, #424]	; (82c20 <main_task+0x6dc>)
   82a78:	fa0f f188 	sxth.w	r1, r8
   82a7c:	b222      	sxth	r2, r4
   82a7e:	47d8      	blx	fp
	printf("Box: (%d, %d)\n", box.x, box.y);
   82a80:	4868      	ldr	r0, [pc, #416]	; (82c24 <main_task+0x6e0>)
   82a82:	8829      	ldrh	r1, [r5, #0]
   82a84:	886a      	ldrh	r2, [r5, #2]
   82a86:	47d8      	blx	fp
	
	if (abs(correction_angle) < MINIMUM_CORRECTION_ANGLE){
   82a88:	ea88 70e8 	eor.w	r0, r8, r8, asr #31
   82a8c:	eba0 70e8 	sub.w	r0, r0, r8, asr #31
   82a90:	4b65      	ldr	r3, [pc, #404]	; (82c28 <main_task+0x6e4>)
   82a92:	4798      	blx	r3
   82a94:	2200      	movs	r2, #0
   82a96:	4b65      	ldr	r3, [pc, #404]	; (82c2c <main_task+0x6e8>)
   82a98:	4d65      	ldr	r5, [pc, #404]	; (82c30 <main_task+0x6ec>)
   82a9a:	47a8      	blx	r5
   82a9c:	b108      	cbz	r0, 82aa2 <main_task+0x55e>
		correction_angle = 0;
   82a9e:	2600      	movs	r6, #0
   82aa0:	2700      	movs	r7, #0
	}
	
	inst.distance = distance;
   82aa2:	f8ad 4038 	strh.w	r4, [sp, #56]	; 0x38
	inst.angle = correction_angle;
   82aa6:	e9cd 6710 	strd	r6, r7, [sp, #64]	; 0x40

	if (xQueueSend(motor_task_instruction_handle, &inst, 5)) {
   82aaa:	4b62      	ldr	r3, [pc, #392]	; (82c34 <main_task+0x6f0>)
   82aac:	6818      	ldr	r0, [r3, #0]
   82aae:	a90e      	add	r1, sp, #56	; 0x38
   82ab0:	2205      	movs	r2, #5
   82ab2:	2300      	movs	r3, #0
   82ab4:	4c60      	ldr	r4, [pc, #384]	; (82c38 <main_task+0x6f4>)
   82ab6:	47a0      	blx	r4
   82ab8:	b118      	cbz	r0, 82ac2 <main_task+0x57e>
		/* Instruction successfully sent to motor task */
		earlier_pos = current_pos;
   82aba:	4b60      	ldr	r3, [pc, #384]	; (82c3c <main_task+0x6f8>)
   82abc:	681a      	ldr	r2, [r3, #0]
   82abe:	4b60      	ldr	r3, [pc, #384]	; (82c40 <main_task+0x6fc>)
   82ac0:	601a      	str	r2, [r3, #0]
	}
	
	while(xQueuePeek(motor_task_instruction_handle, &inst, 2));
   82ac2:	4d5c      	ldr	r5, [pc, #368]	; (82c34 <main_task+0x6f0>)
   82ac4:	4c5f      	ldr	r4, [pc, #380]	; (82c44 <main_task+0x700>)
   82ac6:	6828      	ldr	r0, [r5, #0]
   82ac8:	a90e      	add	r1, sp, #56	; 0x38
   82aca:	2202      	movs	r2, #2
   82acc:	2301      	movs	r3, #1
   82ace:	47a0      	blx	r4
   82ad0:	2800      	cmp	r0, #0
   82ad2:	d1f8      	bne.n	82ac6 <main_task+0x582>
	
	update_positions();
   82ad4:	4b49      	ldr	r3, [pc, #292]	; (82bfc <main_task+0x6b8>)
   82ad6:	4798      	blx	r3
	current_pos = get_pos();
   82ad8:	4b49      	ldr	r3, [pc, #292]	; (82c00 <main_task+0x6bc>)
   82ada:	4798      	blx	r3
   82adc:	4d57      	ldr	r5, [pc, #348]	; (82c3c <main_task+0x6f8>)
   82ade:	f8ad 0010 	strh.w	r0, [sp, #16]
   82ae2:	ea4f 4b10 	mov.w	fp, r0, lsr #16
   82ae6:	6028      	str	r0, [r5, #0]
	
	alpha = math_get_angle_deg(math_atan2(box.x, box.y, current_pos.x, current_pos.y));
   82ae8:	f8df a118 	ldr.w	sl, [pc, #280]	; 82c04 <main_task+0x6c0>
   82aec:	4c46      	ldr	r4, [pc, #280]	; (82c08 <main_task+0x6c4>)
   82aee:	f8ba 0000 	ldrh.w	r0, [sl]
   82af2:	47a0      	blx	r4
   82af4:	4680      	mov	r8, r0
   82af6:	4689      	mov	r9, r1
   82af8:	f8ba 0002 	ldrh.w	r0, [sl, #2]
   82afc:	47a0      	blx	r4
   82afe:	4606      	mov	r6, r0
   82b00:	460f      	mov	r7, r1
   82b02:	f8bd 0010 	ldrh.w	r0, [sp, #16]
   82b06:	47a0      	blx	r4
   82b08:	e9cd 0100 	strd	r0, r1, [sp]
   82b0c:	fa1f f08b 	uxth.w	r0, fp
   82b10:	47a0      	blx	r4
   82b12:	e9cd 0102 	strd	r0, r1, [sp, #8]
   82b16:	4640      	mov	r0, r8
   82b18:	4649      	mov	r1, r9
   82b1a:	4632      	mov	r2, r6
   82b1c:	463b      	mov	r3, r7
   82b1e:	4f3b      	ldr	r7, [pc, #236]	; (82c0c <main_task+0x6c8>)
   82b20:	47b8      	blx	r7
   82b22:	4e3b      	ldr	r6, [pc, #236]	; (82c10 <main_task+0x6cc>)
   82b24:	47b0      	blx	r6
   82b26:	e9cd 0104 	strd	r0, r1, [sp, #16]
	beta = math_get_angle_deg(math_atan2(current_pos.x, current_pos.y, earlier_pos.x, earlier_pos.y));
   82b2a:	8828      	ldrh	r0, [r5, #0]
   82b2c:	47a0      	blx	r4
   82b2e:	e9cd 0106 	strd	r0, r1, [sp, #24]
   82b32:	8868      	ldrh	r0, [r5, #2]
   82b34:	47a0      	blx	r4
   82b36:	4680      	mov	r8, r0
   82b38:	4689      	mov	r9, r1
   82b3a:	f8df b104 	ldr.w	fp, [pc, #260]	; 82c40 <main_task+0x6fc>
   82b3e:	f8bb 0000 	ldrh.w	r0, [fp]
   82b42:	47a0      	blx	r4
   82b44:	e9cd 0100 	strd	r0, r1, [sp]
   82b48:	f8bb 0002 	ldrh.w	r0, [fp, #2]
   82b4c:	47a0      	blx	r4
   82b4e:	e9cd 0102 	strd	r0, r1, [sp, #8]
   82b52:	e9dd 0106 	ldrd	r0, r1, [sp, #24]
   82b56:	4642      	mov	r2, r8
   82b58:	464b      	mov	r3, r9
   82b5a:	47b8      	blx	r7
   82b5c:	47b0      	blx	r6
   82b5e:	4606      	mov	r6, r0
   82b60:	460f      	mov	r7, r1
	
	distance = get_euclid_distance(box.x, box.y - 45, current_pos.x, current_pos.y);
   82b62:	f8ba 1002 	ldrh.w	r1, [sl, #2]
   82b66:	392d      	subs	r1, #45	; 0x2d
   82b68:	f8ba 0000 	ldrh.w	r0, [sl]
   82b6c:	b289      	uxth	r1, r1
   82b6e:	882a      	ldrh	r2, [r5, #0]
   82b70:	886b      	ldrh	r3, [r5, #2]
   82b72:	4c28      	ldr	r4, [pc, #160]	; (82c14 <main_task+0x6d0>)
   82b74:	47a0      	blx	r4
   82b76:	fa1f f880 	uxth.w	r8, r0
	correction_angle = alpha - beta;
   82b7a:	e9dd 0104 	ldrd	r0, r1, [sp, #16]
   82b7e:	4632      	mov	r2, r6
   82b80:	463b      	mov	r3, r7
   82b82:	4c25      	ldr	r4, [pc, #148]	; (82c18 <main_task+0x6d4>)
   82b84:	47a0      	blx	r4
   82b86:	4604      	mov	r4, r0
   82b88:	460d      	mov	r5, r1

	if (abs(correction_angle) < MINIMUM_CORRECTION_ANGLE){
   82b8a:	4b2f      	ldr	r3, [pc, #188]	; (82c48 <main_task+0x704>)
   82b8c:	4798      	blx	r3
   82b8e:	2800      	cmp	r0, #0
   82b90:	bfb8      	it	lt
   82b92:	4240      	neglt	r0, r0
   82b94:	4b24      	ldr	r3, [pc, #144]	; (82c28 <main_task+0x6e4>)
   82b96:	4798      	blx	r3
   82b98:	2200      	movs	r2, #0
   82b9a:	4b24      	ldr	r3, [pc, #144]	; (82c2c <main_task+0x6e8>)
   82b9c:	4e24      	ldr	r6, [pc, #144]	; (82c30 <main_task+0x6ec>)
   82b9e:	47b0      	blx	r6
   82ba0:	b108      	cbz	r0, 82ba6 <main_task+0x662>
		correction_angle = 0;
   82ba2:	2400      	movs	r4, #0
   82ba4:	2500      	movs	r5, #0
	}
		
	inst.distance = distance;
   82ba6:	f8ad 8038 	strh.w	r8, [sp, #56]	; 0x38
	inst.angle = correction_angle;
   82baa:	e9cd 4510 	strd	r4, r5, [sp, #64]	; 0x40

	if (xQueueSend(motor_task_instruction_handle, &inst, 5)) {
   82bae:	4b21      	ldr	r3, [pc, #132]	; (82c34 <main_task+0x6f0>)
   82bb0:	6818      	ldr	r0, [r3, #0]
   82bb2:	a90e      	add	r1, sp, #56	; 0x38
   82bb4:	2205      	movs	r2, #5
   82bb6:	2300      	movs	r3, #0
   82bb8:	4c1f      	ldr	r4, [pc, #124]	; (82c38 <main_task+0x6f4>)
   82bba:	47a0      	blx	r4
   82bbc:	b118      	cbz	r0, 82bc6 <main_task+0x682>
		/* Instruction successfully sent to motor task */
		earlier_pos = current_pos;
   82bbe:	4b1f      	ldr	r3, [pc, #124]	; (82c3c <main_task+0x6f8>)
   82bc0:	681a      	ldr	r2, [r3, #0]
   82bc2:	4b1f      	ldr	r3, [pc, #124]	; (82c40 <main_task+0x6fc>)
   82bc4:	601a      	str	r2, [r3, #0]
	}
		
	while(xQueuePeek(motor_task_instruction_handle, &inst, 2));
   82bc6:	4d1b      	ldr	r5, [pc, #108]	; (82c34 <main_task+0x6f0>)
   82bc8:	4c1e      	ldr	r4, [pc, #120]	; (82c44 <main_task+0x700>)
   82bca:	6828      	ldr	r0, [r5, #0]
   82bcc:	a90e      	add	r1, sp, #56	; 0x38
   82bce:	2202      	movs	r2, #2
   82bd0:	2301      	movs	r3, #1
   82bd2:	47a0      	blx	r4
   82bd4:	2800      	cmp	r0, #0
   82bd6:	d1f8      	bne.n	82bca <main_task+0x686>
	
	master_write_cmd(TWI1,release_object);
   82bd8:	4805      	ldr	r0, [pc, #20]	; (82bf0 <main_task+0x6ac>)
   82bda:	210d      	movs	r1, #13
   82bdc:	4b05      	ldr	r3, [pc, #20]	; (82bf4 <main_task+0x6b0>)
   82bde:	4798      	blx	r3
	printf("Released object\n");
   82be0:	481a      	ldr	r0, [pc, #104]	; (82c4c <main_task+0x708>)
   82be2:	4c1b      	ldr	r4, [pc, #108]	; (82c50 <main_task+0x70c>)
   82be4:	47a0      	blx	r4
	/* P2 is now over. */
	printf("--------------End--------------\n");
   82be6:	481b      	ldr	r0, [pc, #108]	; (82c54 <main_task+0x710>)
   82be8:	47a0      	blx	r4
	while(1);
   82bea:	e7fe      	b.n	82bea <main_task+0x6a6>
   82bec:	00087d60 	.word	0x00087d60
   82bf0:	40090000 	.word	0x40090000
   82bf4:	00080435 	.word	0x00080435
   82bf8:	00081695 	.word	0x00081695
   82bfc:	000805c5 	.word	0x000805c5
   82c00:	00080559 	.word	0x00080559
   82c04:	2007abbc 	.word	0x2007abbc
   82c08:	00084215 	.word	0x00084215
   82c0c:	00082139 	.word	0x00082139
   82c10:	000820a1 	.word	0x000820a1
   82c14:	000820bd 	.word	0x000820bd
   82c18:	00083f99 	.word	0x00083f99
   82c1c:	00084259 	.word	0x00084259
   82c20:	00087cac 	.word	0x00087cac
   82c24:	00087d7c 	.word	0x00087d7c
   82c28:	00084235 	.word	0x00084235
   82c2c:	3ff00000 	.word	0x3ff00000
   82c30:	000847e5 	.word	0x000847e5
   82c34:	2007ad68 	.word	0x2007ad68
   82c38:	00080d95 	.word	0x00080d95
   82c3c:	2007abc4 	.word	0x2007abc4
   82c40:	2007abb8 	.word	0x2007abb8
   82c44:	00080f45 	.word	0x00080f45
   82c48:	00084835 	.word	0x00084835
   82c4c:	00087d8c 	.word	0x00087d8c
   82c50:	00084c29 	.word	0x00084c29
   82c54:	00087da0 	.word	0x00087da0
   82c58:	9b08      	ldr	r3, [sp, #32]
   82c5a:	f1c3 0407 	rsb	r4, r3, #7
			}
		}
		
		if (obj_distance != -1) {
			/* Found object, the distance the robot has to move for picking up an object and stop searching for the object */
			distance_to_move = (obj_distance + distance_from_plattform) - platform_distance_to_object;
   82c5e:	4420      	add	r0, r4
   82c60:	b284      	uxth	r4, r0
			printf("Correlate: %d\n", distance_to_move);
   82c62:	4806      	ldr	r0, [pc, #24]	; (82c7c <main_task+0x738>)
   82c64:	b221      	sxth	r1, r4
   82c66:	4b06      	ldr	r3, [pc, #24]	; (82c80 <main_task+0x73c>)
   82c68:	4798      	blx	r3
   82c6a:	4658      	mov	r0, fp
			searching_for_objcet = 0;
   82c6c:	f04f 0800 	mov.w	r8, #0
   82c70:	e62c      	b.n	828cc <main_task+0x388>
		}
		else {
			if (moved_counter < max_moved_times) {
   82c72:	f1b9 0f02 	cmp.w	r9, #2
   82c76:	f77f ade0 	ble.w	8283a <main_task+0x2f6>
   82c7a:	e61a      	b.n	828b2 <main_task+0x36e>
   82c7c:	00087dc4 	.word	0x00087dc4
   82c80:	00084c29 	.word	0x00084c29

00082c84 <pin_mapper>:
   82c84:	4b01      	ldr	r3, [pc, #4]	; (82c8c <pin_mapper+0x8>)
   82c86:	5c18      	ldrb	r0, [r3, r0]
   82c88:	4770      	bx	lr
   82c8a:	bf00      	nop
   82c8c:	2007015c 	.word	0x2007015c

00082c90 <usart_write>:
   82c90:	6943      	ldr	r3, [r0, #20]
   82c92:	f013 0f02 	tst.w	r3, #2
   82c96:	bf1d      	ittte	ne
   82c98:	f3c1 0108 	ubfxne	r1, r1, #0, #9
   82c9c:	61c1      	strne	r1, [r0, #28]
   82c9e:	2000      	movne	r0, #0
   82ca0:	2001      	moveq	r0, #1
   82ca2:	4770      	bx	lr

00082ca4 <usart_read>:
   82ca4:	6943      	ldr	r3, [r0, #20]
   82ca6:	f013 0f01 	tst.w	r3, #1
   82caa:	d005      	beq.n	82cb8 <usart_read+0x14>
   82cac:	6983      	ldr	r3, [r0, #24]
   82cae:	f3c3 0308 	ubfx	r3, r3, #0, #9
   82cb2:	600b      	str	r3, [r1, #0]
   82cb4:	2000      	movs	r0, #0
   82cb6:	4770      	bx	lr
   82cb8:	2001      	movs	r0, #1
   82cba:	4770      	bx	lr

00082cbc <USART0_Handler>:
   82cbc:	b500      	push	{lr}
   82cbe:	b083      	sub	sp, #12
   82cc0:	4811      	ldr	r0, [pc, #68]	; (82d08 <USART0_Handler+0x4c>)
   82cc2:	f10d 0107 	add.w	r1, sp, #7
   82cc6:	2201      	movs	r2, #1
   82cc8:	4b10      	ldr	r3, [pc, #64]	; (82d0c <USART0_Handler+0x50>)
   82cca:	4798      	blx	r3
   82ccc:	b672      	cpsid	i
   82cce:	f3bf 8f5f 	dmb	sy
   82cd2:	2200      	movs	r2, #0
   82cd4:	4b0e      	ldr	r3, [pc, #56]	; (82d10 <USART0_Handler+0x54>)
   82cd6:	701a      	strb	r2, [r3, #0]
   82cd8:	4b0e      	ldr	r3, [pc, #56]	; (82d14 <USART0_Handler+0x58>)
   82cda:	781b      	ldrb	r3, [r3, #0]
   82cdc:	f89d 1007 	ldrb.w	r1, [sp, #7]
   82ce0:	4a0d      	ldr	r2, [pc, #52]	; (82d18 <USART0_Handler+0x5c>)
   82ce2:	54d1      	strb	r1, [r2, r3]
   82ce4:	2b9b      	cmp	r3, #155	; 0x9b
   82ce6:	d103      	bne.n	82cf0 <USART0_Handler+0x34>
   82ce8:	2200      	movs	r2, #0
   82cea:	4b0a      	ldr	r3, [pc, #40]	; (82d14 <USART0_Handler+0x58>)
   82cec:	701a      	strb	r2, [r3, #0]
   82cee:	e002      	b.n	82cf6 <USART0_Handler+0x3a>
   82cf0:	3301      	adds	r3, #1
   82cf2:	4a08      	ldr	r2, [pc, #32]	; (82d14 <USART0_Handler+0x58>)
   82cf4:	7013      	strb	r3, [r2, #0]
   82cf6:	2201      	movs	r2, #1
   82cf8:	4b05      	ldr	r3, [pc, #20]	; (82d10 <USART0_Handler+0x54>)
   82cfa:	701a      	strb	r2, [r3, #0]
   82cfc:	f3bf 8f5f 	dmb	sy
   82d00:	b662      	cpsie	i
   82d02:	b003      	add	sp, #12
   82d04:	f85d fb04 	ldr.w	pc, [sp], #4
   82d08:	40098000 	.word	0x40098000
   82d0c:	00082f2d 	.word	0x00082f2d
   82d10:	2007019e 	.word	0x2007019e
   82d14:	2007ac64 	.word	0x2007ac64
   82d18:	2007abc8 	.word	0x2007abc8

00082d1c <usart_serial_getchar>:
   82d1c:	b5f0      	push	{r4, r5, r6, r7, lr}
   82d1e:	b083      	sub	sp, #12
   82d20:	4604      	mov	r4, r0
   82d22:	460d      	mov	r5, r1
   82d24:	2300      	movs	r3, #0
   82d26:	9301      	str	r3, [sp, #4]
   82d28:	4b1f      	ldr	r3, [pc, #124]	; (82da8 <usart_serial_getchar+0x8c>)
   82d2a:	4298      	cmp	r0, r3
   82d2c:	d107      	bne.n	82d3e <usart_serial_getchar+0x22>
   82d2e:	461f      	mov	r7, r3
   82d30:	4e1e      	ldr	r6, [pc, #120]	; (82dac <usart_serial_getchar+0x90>)
   82d32:	4638      	mov	r0, r7
   82d34:	4629      	mov	r1, r5
   82d36:	47b0      	blx	r6
   82d38:	2800      	cmp	r0, #0
   82d3a:	d1fa      	bne.n	82d32 <usart_serial_getchar+0x16>
   82d3c:	e019      	b.n	82d72 <usart_serial_getchar+0x56>
   82d3e:	4b1c      	ldr	r3, [pc, #112]	; (82db0 <usart_serial_getchar+0x94>)
   82d40:	4298      	cmp	r0, r3
   82d42:	d109      	bne.n	82d58 <usart_serial_getchar+0x3c>
   82d44:	461f      	mov	r7, r3
   82d46:	4e1b      	ldr	r6, [pc, #108]	; (82db4 <usart_serial_getchar+0x98>)
   82d48:	4638      	mov	r0, r7
   82d4a:	a901      	add	r1, sp, #4
   82d4c:	47b0      	blx	r6
   82d4e:	2800      	cmp	r0, #0
   82d50:	d1fa      	bne.n	82d48 <usart_serial_getchar+0x2c>
   82d52:	9b01      	ldr	r3, [sp, #4]
   82d54:	702b      	strb	r3, [r5, #0]
   82d56:	e019      	b.n	82d8c <usart_serial_getchar+0x70>
   82d58:	4b17      	ldr	r3, [pc, #92]	; (82db8 <usart_serial_getchar+0x9c>)
   82d5a:	4298      	cmp	r0, r3
   82d5c:	d109      	bne.n	82d72 <usart_serial_getchar+0x56>
   82d5e:	461e      	mov	r6, r3
   82d60:	4c14      	ldr	r4, [pc, #80]	; (82db4 <usart_serial_getchar+0x98>)
   82d62:	4630      	mov	r0, r6
   82d64:	a901      	add	r1, sp, #4
   82d66:	47a0      	blx	r4
   82d68:	2800      	cmp	r0, #0
   82d6a:	d1fa      	bne.n	82d62 <usart_serial_getchar+0x46>
   82d6c:	9b01      	ldr	r3, [sp, #4]
   82d6e:	702b      	strb	r3, [r5, #0]
   82d70:	e018      	b.n	82da4 <usart_serial_getchar+0x88>
   82d72:	4b12      	ldr	r3, [pc, #72]	; (82dbc <usart_serial_getchar+0xa0>)
   82d74:	429c      	cmp	r4, r3
   82d76:	d109      	bne.n	82d8c <usart_serial_getchar+0x70>
   82d78:	461e      	mov	r6, r3
   82d7a:	4c0e      	ldr	r4, [pc, #56]	; (82db4 <usart_serial_getchar+0x98>)
   82d7c:	4630      	mov	r0, r6
   82d7e:	a901      	add	r1, sp, #4
   82d80:	47a0      	blx	r4
   82d82:	2800      	cmp	r0, #0
   82d84:	d1fa      	bne.n	82d7c <usart_serial_getchar+0x60>
   82d86:	9b01      	ldr	r3, [sp, #4]
   82d88:	702b      	strb	r3, [r5, #0]
   82d8a:	e00b      	b.n	82da4 <usart_serial_getchar+0x88>
   82d8c:	4b0c      	ldr	r3, [pc, #48]	; (82dc0 <usart_serial_getchar+0xa4>)
   82d8e:	429c      	cmp	r4, r3
   82d90:	d108      	bne.n	82da4 <usart_serial_getchar+0x88>
   82d92:	461e      	mov	r6, r3
   82d94:	4c07      	ldr	r4, [pc, #28]	; (82db4 <usart_serial_getchar+0x98>)
   82d96:	4630      	mov	r0, r6
   82d98:	a901      	add	r1, sp, #4
   82d9a:	47a0      	blx	r4
   82d9c:	2800      	cmp	r0, #0
   82d9e:	d1fa      	bne.n	82d96 <usart_serial_getchar+0x7a>
   82da0:	9b01      	ldr	r3, [sp, #4]
   82da2:	702b      	strb	r3, [r5, #0]
   82da4:	b003      	add	sp, #12
   82da6:	bdf0      	pop	{r4, r5, r6, r7, pc}
   82da8:	400e0800 	.word	0x400e0800
   82dac:	00083039 	.word	0x00083039
   82db0:	40098000 	.word	0x40098000
   82db4:	00082ca5 	.word	0x00082ca5
   82db8:	4009c000 	.word	0x4009c000
   82dbc:	400a0000 	.word	0x400a0000
   82dc0:	400a4000 	.word	0x400a4000

00082dc4 <usart_serial_putchar>:
   82dc4:	b570      	push	{r4, r5, r6, lr}
   82dc6:	460c      	mov	r4, r1
   82dc8:	4b1e      	ldr	r3, [pc, #120]	; (82e44 <usart_serial_putchar+0x80>)
   82dca:	4298      	cmp	r0, r3
   82dcc:	d108      	bne.n	82de0 <usart_serial_putchar+0x1c>
   82dce:	461e      	mov	r6, r3
   82dd0:	4d1d      	ldr	r5, [pc, #116]	; (82e48 <usart_serial_putchar+0x84>)
   82dd2:	4630      	mov	r0, r6
   82dd4:	4621      	mov	r1, r4
   82dd6:	47a8      	blx	r5
   82dd8:	2800      	cmp	r0, #0
   82dda:	d1fa      	bne.n	82dd2 <usart_serial_putchar+0xe>
   82ddc:	2001      	movs	r0, #1
   82dde:	bd70      	pop	{r4, r5, r6, pc}
   82de0:	4b1a      	ldr	r3, [pc, #104]	; (82e4c <usart_serial_putchar+0x88>)
   82de2:	4298      	cmp	r0, r3
   82de4:	d108      	bne.n	82df8 <usart_serial_putchar+0x34>
   82de6:	461e      	mov	r6, r3
   82de8:	4d19      	ldr	r5, [pc, #100]	; (82e50 <usart_serial_putchar+0x8c>)
   82dea:	4630      	mov	r0, r6
   82dec:	4621      	mov	r1, r4
   82dee:	47a8      	blx	r5
   82df0:	2800      	cmp	r0, #0
   82df2:	d1fa      	bne.n	82dea <usart_serial_putchar+0x26>
   82df4:	2001      	movs	r0, #1
   82df6:	bd70      	pop	{r4, r5, r6, pc}
   82df8:	4b16      	ldr	r3, [pc, #88]	; (82e54 <usart_serial_putchar+0x90>)
   82dfa:	4298      	cmp	r0, r3
   82dfc:	d108      	bne.n	82e10 <usart_serial_putchar+0x4c>
   82dfe:	461e      	mov	r6, r3
   82e00:	4d13      	ldr	r5, [pc, #76]	; (82e50 <usart_serial_putchar+0x8c>)
   82e02:	4630      	mov	r0, r6
   82e04:	4621      	mov	r1, r4
   82e06:	47a8      	blx	r5
   82e08:	2800      	cmp	r0, #0
   82e0a:	d1fa      	bne.n	82e02 <usart_serial_putchar+0x3e>
   82e0c:	2001      	movs	r0, #1
   82e0e:	bd70      	pop	{r4, r5, r6, pc}
   82e10:	4b11      	ldr	r3, [pc, #68]	; (82e58 <usart_serial_putchar+0x94>)
   82e12:	4298      	cmp	r0, r3
   82e14:	d108      	bne.n	82e28 <usart_serial_putchar+0x64>
   82e16:	461e      	mov	r6, r3
   82e18:	4d0d      	ldr	r5, [pc, #52]	; (82e50 <usart_serial_putchar+0x8c>)
   82e1a:	4630      	mov	r0, r6
   82e1c:	4621      	mov	r1, r4
   82e1e:	47a8      	blx	r5
   82e20:	2800      	cmp	r0, #0
   82e22:	d1fa      	bne.n	82e1a <usart_serial_putchar+0x56>
   82e24:	2001      	movs	r0, #1
   82e26:	bd70      	pop	{r4, r5, r6, pc}
   82e28:	4b0c      	ldr	r3, [pc, #48]	; (82e5c <usart_serial_putchar+0x98>)
   82e2a:	4298      	cmp	r0, r3
   82e2c:	d108      	bne.n	82e40 <usart_serial_putchar+0x7c>
   82e2e:	461e      	mov	r6, r3
   82e30:	4d07      	ldr	r5, [pc, #28]	; (82e50 <usart_serial_putchar+0x8c>)
   82e32:	4630      	mov	r0, r6
   82e34:	4621      	mov	r1, r4
   82e36:	47a8      	blx	r5
   82e38:	2800      	cmp	r0, #0
   82e3a:	d1fa      	bne.n	82e32 <usart_serial_putchar+0x6e>
   82e3c:	2001      	movs	r0, #1
   82e3e:	bd70      	pop	{r4, r5, r6, pc}
   82e40:	2000      	movs	r0, #0
   82e42:	bd70      	pop	{r4, r5, r6, pc}
   82e44:	400e0800 	.word	0x400e0800
   82e48:	00083029 	.word	0x00083029
   82e4c:	40098000 	.word	0x40098000
   82e50:	00082c91 	.word	0x00082c91
   82e54:	4009c000 	.word	0x4009c000
   82e58:	400a0000 	.word	0x400a0000
   82e5c:	400a4000 	.word	0x400a4000

00082e60 <console_init>:
   82e60:	b530      	push	{r4, r5, lr}
   82e62:	b085      	sub	sp, #20
   82e64:	2008      	movs	r0, #8
   82e66:	4d12      	ldr	r5, [pc, #72]	; (82eb0 <console_init+0x50>)
   82e68:	47a8      	blx	r5
   82e6a:	4c12      	ldr	r4, [pc, #72]	; (82eb4 <console_init+0x54>)
   82e6c:	4b12      	ldr	r3, [pc, #72]	; (82eb8 <console_init+0x58>)
   82e6e:	601c      	str	r4, [r3, #0]
   82e70:	4a12      	ldr	r2, [pc, #72]	; (82ebc <console_init+0x5c>)
   82e72:	4b13      	ldr	r3, [pc, #76]	; (82ec0 <console_init+0x60>)
   82e74:	601a      	str	r2, [r3, #0]
   82e76:	4a13      	ldr	r2, [pc, #76]	; (82ec4 <console_init+0x64>)
   82e78:	4b13      	ldr	r3, [pc, #76]	; (82ec8 <console_init+0x68>)
   82e7a:	601a      	str	r2, [r3, #0]
   82e7c:	4b13      	ldr	r3, [pc, #76]	; (82ecc <console_init+0x6c>)
   82e7e:	9301      	str	r3, [sp, #4]
   82e80:	f44f 33e1 	mov.w	r3, #115200	; 0x1c200
   82e84:	9302      	str	r3, [sp, #8]
   82e86:	f44f 6300 	mov.w	r3, #2048	; 0x800
   82e8a:	9303      	str	r3, [sp, #12]
   82e8c:	2008      	movs	r0, #8
   82e8e:	47a8      	blx	r5
   82e90:	4620      	mov	r0, r4
   82e92:	a901      	add	r1, sp, #4
   82e94:	4b0e      	ldr	r3, [pc, #56]	; (82ed0 <console_init+0x70>)
   82e96:	4798      	blx	r3
   82e98:	4d0e      	ldr	r5, [pc, #56]	; (82ed4 <console_init+0x74>)
   82e9a:	682b      	ldr	r3, [r5, #0]
   82e9c:	6898      	ldr	r0, [r3, #8]
   82e9e:	2100      	movs	r1, #0
   82ea0:	4c0d      	ldr	r4, [pc, #52]	; (82ed8 <console_init+0x78>)
   82ea2:	47a0      	blx	r4
   82ea4:	682b      	ldr	r3, [r5, #0]
   82ea6:	6858      	ldr	r0, [r3, #4]
   82ea8:	2100      	movs	r1, #0
   82eaa:	47a0      	blx	r4
   82eac:	b005      	add	sp, #20
   82eae:	bd30      	pop	{r4, r5, pc}
   82eb0:	0008359d 	.word	0x0008359d
   82eb4:	400e0800 	.word	0x400e0800
   82eb8:	2007ad70 	.word	0x2007ad70
   82ebc:	00082dc5 	.word	0x00082dc5
   82ec0:	2007ad6c 	.word	0x2007ad6c
   82ec4:	00082d1d 	.word	0x00082d1d
   82ec8:	2007ad14 	.word	0x2007ad14
   82ecc:	0501bd00 	.word	0x0501bd00
   82ed0:	00082ff1 	.word	0x00082ff1
   82ed4:	200705d0 	.word	0x200705d0
   82ed8:	00084dd9 	.word	0x00084dd9

00082edc <_write>:
   82edc:	3801      	subs	r0, #1
   82ede:	2802      	cmp	r0, #2
   82ee0:	d818      	bhi.n	82f14 <_write+0x38>
   82ee2:	e92d 41f0 	stmdb	sp!, {r4, r5, r6, r7, r8, lr}
   82ee6:	460e      	mov	r6, r1
   82ee8:	4614      	mov	r4, r2
   82eea:	b182      	cbz	r2, 82f0e <_write+0x32>
   82eec:	460d      	mov	r5, r1
   82eee:	f8df 8038 	ldr.w	r8, [pc, #56]	; 82f28 <_write+0x4c>
   82ef2:	4f0c      	ldr	r7, [pc, #48]	; (82f24 <_write+0x48>)
   82ef4:	f8d8 0000 	ldr.w	r0, [r8]
   82ef8:	f815 1b01 	ldrb.w	r1, [r5], #1
   82efc:	683b      	ldr	r3, [r7, #0]
   82efe:	4798      	blx	r3
   82f00:	2800      	cmp	r0, #0
   82f02:	db0a      	blt.n	82f1a <_write+0x3e>
   82f04:	1ba8      	subs	r0, r5, r6
   82f06:	3c01      	subs	r4, #1
   82f08:	d1f4      	bne.n	82ef4 <_write+0x18>
   82f0a:	e8bd 81f0 	ldmia.w	sp!, {r4, r5, r6, r7, r8, pc}
   82f0e:	2000      	movs	r0, #0
   82f10:	e8bd 81f0 	ldmia.w	sp!, {r4, r5, r6, r7, r8, pc}
   82f14:	f04f 30ff 	mov.w	r0, #4294967295
   82f18:	4770      	bx	lr
   82f1a:	f04f 30ff 	mov.w	r0, #4294967295
   82f1e:	e8bd 81f0 	ldmia.w	sp!, {r4, r5, r6, r7, r8, pc}
   82f22:	bf00      	nop
   82f24:	2007ad6c 	.word	0x2007ad6c
   82f28:	2007ad70 	.word	0x2007ad70

00082f2c <usart_serial_read_packet>:
   82f2c:	2a00      	cmp	r2, #0
   82f2e:	d04e      	beq.n	82fce <usart_serial_read_packet+0xa2>
   82f30:	e92d 4ff0 	stmdb	sp!, {r4, r5, r6, r7, r8, r9, sl, fp, lr}
   82f34:	b085      	sub	sp, #20
   82f36:	4606      	mov	r6, r0
   82f38:	460d      	mov	r5, r1
   82f3a:	4617      	mov	r7, r2
   82f3c:	f8df a0a4 	ldr.w	sl, [pc, #164]	; 82fe4 <usart_serial_read_packet+0xb8>
   82f40:	f8df 90a4 	ldr.w	r9, [pc, #164]	; 82fe8 <usart_serial_read_packet+0xbc>
   82f44:	f8cd a000 	str.w	sl, [sp]
   82f48:	f8df b0a0 	ldr.w	fp, [pc, #160]	; 82fec <usart_serial_read_packet+0xc0>
   82f4c:	4c21      	ldr	r4, [pc, #132]	; (82fd4 <usart_serial_read_packet+0xa8>)
   82f4e:	f8cd b004 	str.w	fp, [sp, #4]
   82f52:	2300      	movs	r3, #0
   82f54:	9303      	str	r3, [sp, #12]
   82f56:	4556      	cmp	r6, sl
   82f58:	d105      	bne.n	82f66 <usart_serial_read_packet+0x3a>
   82f5a:	9800      	ldr	r0, [sp, #0]
   82f5c:	4629      	mov	r1, r5
   82f5e:	47c8      	blx	r9
   82f60:	2800      	cmp	r0, #0
   82f62:	d1fa      	bne.n	82f5a <usart_serial_read_packet+0x2e>
   82f64:	e015      	b.n	82f92 <usart_serial_read_packet+0x66>
   82f66:	455e      	cmp	r6, fp
   82f68:	d107      	bne.n	82f7a <usart_serial_read_packet+0x4e>
   82f6a:	9801      	ldr	r0, [sp, #4]
   82f6c:	a903      	add	r1, sp, #12
   82f6e:	47a0      	blx	r4
   82f70:	2800      	cmp	r0, #0
   82f72:	d1fa      	bne.n	82f6a <usart_serial_read_packet+0x3e>
   82f74:	9b03      	ldr	r3, [sp, #12]
   82f76:	702b      	strb	r3, [r5, #0]
   82f78:	e017      	b.n	82faa <usart_serial_read_packet+0x7e>
   82f7a:	4b17      	ldr	r3, [pc, #92]	; (82fd8 <usart_serial_read_packet+0xac>)
   82f7c:	429e      	cmp	r6, r3
   82f7e:	d108      	bne.n	82f92 <usart_serial_read_packet+0x66>
   82f80:	4698      	mov	r8, r3
   82f82:	4640      	mov	r0, r8
   82f84:	a903      	add	r1, sp, #12
   82f86:	47a0      	blx	r4
   82f88:	2800      	cmp	r0, #0
   82f8a:	d1fa      	bne.n	82f82 <usart_serial_read_packet+0x56>
   82f8c:	9b03      	ldr	r3, [sp, #12]
   82f8e:	702b      	strb	r3, [r5, #0]
   82f90:	e016      	b.n	82fc0 <usart_serial_read_packet+0x94>
   82f92:	4b12      	ldr	r3, [pc, #72]	; (82fdc <usart_serial_read_packet+0xb0>)
   82f94:	429e      	cmp	r6, r3
   82f96:	d108      	bne.n	82faa <usart_serial_read_packet+0x7e>
   82f98:	4698      	mov	r8, r3
   82f9a:	4640      	mov	r0, r8
   82f9c:	a903      	add	r1, sp, #12
   82f9e:	47a0      	blx	r4
   82fa0:	2800      	cmp	r0, #0
   82fa2:	d1fa      	bne.n	82f9a <usart_serial_read_packet+0x6e>
   82fa4:	9b03      	ldr	r3, [sp, #12]
   82fa6:	702b      	strb	r3, [r5, #0]
   82fa8:	e00a      	b.n	82fc0 <usart_serial_read_packet+0x94>
   82faa:	4b0d      	ldr	r3, [pc, #52]	; (82fe0 <usart_serial_read_packet+0xb4>)
   82fac:	429e      	cmp	r6, r3
   82fae:	d107      	bne.n	82fc0 <usart_serial_read_packet+0x94>
   82fb0:	4698      	mov	r8, r3
   82fb2:	4640      	mov	r0, r8
   82fb4:	a903      	add	r1, sp, #12
   82fb6:	47a0      	blx	r4
   82fb8:	2800      	cmp	r0, #0
   82fba:	d1fa      	bne.n	82fb2 <usart_serial_read_packet+0x86>
   82fbc:	9b03      	ldr	r3, [sp, #12]
   82fbe:	702b      	strb	r3, [r5, #0]
   82fc0:	3501      	adds	r5, #1
   82fc2:	3f01      	subs	r7, #1
   82fc4:	d1c5      	bne.n	82f52 <usart_serial_read_packet+0x26>
   82fc6:	2000      	movs	r0, #0
   82fc8:	b005      	add	sp, #20
   82fca:	e8bd 8ff0 	ldmia.w	sp!, {r4, r5, r6, r7, r8, r9, sl, fp, pc}
   82fce:	2000      	movs	r0, #0
   82fd0:	4770      	bx	lr
   82fd2:	bf00      	nop
   82fd4:	00082ca5 	.word	0x00082ca5
   82fd8:	4009c000 	.word	0x4009c000
   82fdc:	400a0000 	.word	0x400a0000
   82fe0:	400a4000 	.word	0x400a4000
   82fe4:	400e0800 	.word	0x400e0800
   82fe8:	00083039 	.word	0x00083039
   82fec:	40098000 	.word	0x40098000

00082ff0 <uart_init>:
   82ff0:	b410      	push	{r4}
   82ff2:	23ac      	movs	r3, #172	; 0xac
   82ff4:	6003      	str	r3, [r0, #0]
   82ff6:	680b      	ldr	r3, [r1, #0]
   82ff8:	684a      	ldr	r2, [r1, #4]
   82ffa:	fbb3 f3f2 	udiv	r3, r3, r2
   82ffe:	091b      	lsrs	r3, r3, #4
   83000:	1e5c      	subs	r4, r3, #1
   83002:	f64f 72fe 	movw	r2, #65534	; 0xfffe
   83006:	4294      	cmp	r4, r2
   83008:	d80a      	bhi.n	83020 <uart_init+0x30>
   8300a:	6203      	str	r3, [r0, #32]
   8300c:	688b      	ldr	r3, [r1, #8]
   8300e:	6043      	str	r3, [r0, #4]
   83010:	f240 2302 	movw	r3, #514	; 0x202
   83014:	f8c0 3120 	str.w	r3, [r0, #288]	; 0x120
   83018:	2350      	movs	r3, #80	; 0x50
   8301a:	6003      	str	r3, [r0, #0]
   8301c:	2000      	movs	r0, #0
   8301e:	e000      	b.n	83022 <uart_init+0x32>
   83020:	2001      	movs	r0, #1
   83022:	f85d 4b04 	ldr.w	r4, [sp], #4
   83026:	4770      	bx	lr

00083028 <uart_write>:
   83028:	6943      	ldr	r3, [r0, #20]
   8302a:	f013 0f02 	tst.w	r3, #2
   8302e:	bf1a      	itte	ne
   83030:	61c1      	strne	r1, [r0, #28]
   83032:	2000      	movne	r0, #0
   83034:	2001      	moveq	r0, #1
   83036:	4770      	bx	lr

00083038 <uart_read>:
   83038:	6943      	ldr	r3, [r0, #20]
   8303a:	f013 0f01 	tst.w	r3, #1
   8303e:	bf1d      	ittte	ne
   83040:	6983      	ldrne	r3, [r0, #24]
   83042:	700b      	strbne	r3, [r1, #0]
   83044:	2000      	movne	r0, #0
   83046:	2001      	moveq	r0, #1
   83048:	4770      	bx	lr
   8304a:	bf00      	nop

0008304c <sysclk_init>:
   8304c:	b510      	push	{r4, lr}
   8304e:	480e      	ldr	r0, [pc, #56]	; (83088 <sysclk_init+0x3c>)
   83050:	4b0e      	ldr	r3, [pc, #56]	; (8308c <sysclk_init+0x40>)
   83052:	4798      	blx	r3
   83054:	2000      	movs	r0, #0
   83056:	213e      	movs	r1, #62	; 0x3e
   83058:	4b0d      	ldr	r3, [pc, #52]	; (83090 <sysclk_init+0x44>)
   8305a:	4798      	blx	r3
   8305c:	4c0d      	ldr	r4, [pc, #52]	; (83094 <sysclk_init+0x48>)
   8305e:	47a0      	blx	r4
   83060:	2800      	cmp	r0, #0
   83062:	d0fc      	beq.n	8305e <sysclk_init+0x12>
   83064:	4b0c      	ldr	r3, [pc, #48]	; (83098 <sysclk_init+0x4c>)
   83066:	4798      	blx	r3
   83068:	4a0c      	ldr	r2, [pc, #48]	; (8309c <sysclk_init+0x50>)
   8306a:	4b0d      	ldr	r3, [pc, #52]	; (830a0 <sysclk_init+0x54>)
   8306c:	629a      	str	r2, [r3, #40]	; 0x28
   8306e:	4c0d      	ldr	r4, [pc, #52]	; (830a4 <sysclk_init+0x58>)
   83070:	47a0      	blx	r4
   83072:	2800      	cmp	r0, #0
   83074:	d0fc      	beq.n	83070 <sysclk_init+0x24>
   83076:	2010      	movs	r0, #16
   83078:	4b0b      	ldr	r3, [pc, #44]	; (830a8 <sysclk_init+0x5c>)
   8307a:	4798      	blx	r3
   8307c:	4b0b      	ldr	r3, [pc, #44]	; (830ac <sysclk_init+0x60>)
   8307e:	4798      	blx	r3
   83080:	4801      	ldr	r0, [pc, #4]	; (83088 <sysclk_init+0x3c>)
   83082:	4b02      	ldr	r3, [pc, #8]	; (8308c <sysclk_init+0x40>)
   83084:	4798      	blx	r3
   83086:	bd10      	pop	{r4, pc}
   83088:	0501bd00 	.word	0x0501bd00
   8308c:	200700b1 	.word	0x200700b1
   83090:	00083519 	.word	0x00083519
   83094:	0008356d 	.word	0x0008356d
   83098:	0008357d 	.word	0x0008357d
   8309c:	200d3f01 	.word	0x200d3f01
   830a0:	400e0600 	.word	0x400e0600
   830a4:	0008358d 	.word	0x0008358d
   830a8:	000834b1 	.word	0x000834b1
   830ac:	000836a5 	.word	0x000836a5

000830b0 <board_init>:
   830b0:	b510      	push	{r4, lr}
   830b2:	f44f 4200 	mov.w	r2, #32768	; 0x8000
   830b6:	4b1a      	ldr	r3, [pc, #104]	; (83120 <board_init+0x70>)
   830b8:	605a      	str	r2, [r3, #4]
   830ba:	200b      	movs	r0, #11
   830bc:	4c19      	ldr	r4, [pc, #100]	; (83124 <board_init+0x74>)
   830be:	47a0      	blx	r4
   830c0:	200c      	movs	r0, #12
   830c2:	47a0      	blx	r4
   830c4:	200d      	movs	r0, #13
   830c6:	47a0      	blx	r4
   830c8:	200e      	movs	r0, #14
   830ca:	47a0      	blx	r4
   830cc:	203b      	movs	r0, #59	; 0x3b
   830ce:	f04f 5160 	mov.w	r1, #939524096	; 0x38000000
   830d2:	4c15      	ldr	r4, [pc, #84]	; (83128 <board_init+0x78>)
   830d4:	47a0      	blx	r4
   830d6:	2055      	movs	r0, #85	; 0x55
   830d8:	f04f 5160 	mov.w	r1, #939524096	; 0x38000000
   830dc:	47a0      	blx	r4
   830de:	2056      	movs	r0, #86	; 0x56
   830e0:	f04f 5160 	mov.w	r1, #939524096	; 0x38000000
   830e4:	47a0      	blx	r4
   830e6:	2068      	movs	r0, #104	; 0x68
   830e8:	4910      	ldr	r1, [pc, #64]	; (8312c <board_init+0x7c>)
   830ea:	47a0      	blx	r4
   830ec:	205c      	movs	r0, #92	; 0x5c
   830ee:	4910      	ldr	r1, [pc, #64]	; (83130 <board_init+0x80>)
   830f0:	47a0      	blx	r4
   830f2:	4810      	ldr	r0, [pc, #64]	; (83134 <board_init+0x84>)
   830f4:	f44f 7140 	mov.w	r1, #768	; 0x300
   830f8:	4a0f      	ldr	r2, [pc, #60]	; (83138 <board_init+0x88>)
   830fa:	4b10      	ldr	r3, [pc, #64]	; (8313c <board_init+0x8c>)
   830fc:	4798      	blx	r3
   830fe:	202c      	movs	r0, #44	; 0x2c
   83100:	f04f 6100 	mov.w	r1, #134217728	; 0x8000000
   83104:	47a0      	blx	r4
   83106:	202d      	movs	r0, #45	; 0x2d
   83108:	f04f 6100 	mov.w	r1, #134217728	; 0x8000000
   8310c:	47a0      	blx	r4
   8310e:	202b      	movs	r0, #43	; 0x2b
   83110:	f04f 6100 	mov.w	r1, #134217728	; 0x8000000
   83114:	47a0      	blx	r4
   83116:	202a      	movs	r0, #42	; 0x2a
   83118:	f04f 6100 	mov.w	r1, #134217728	; 0x8000000
   8311c:	47a0      	blx	r4
   8311e:	bd10      	pop	{r4, pc}
   83120:	400e1a50 	.word	0x400e1a50
   83124:	0008359d 	.word	0x0008359d
   83128:	00083231 	.word	0x00083231
   8312c:	28000079 	.word	0x28000079
   83130:	28000001 	.word	0x28000001
   83134:	400e0e00 	.word	0x400e0e00
   83138:	08000001 	.word	0x08000001
   8313c:	00083305 	.word	0x00083305

00083140 <pio_get>:
   83140:	f021 6100 	bic.w	r1, r1, #134217728	; 0x8000000
   83144:	f1b1 5f40 	cmp.w	r1, #805306368	; 0x30000000
   83148:	bf0c      	ite	eq
   8314a:	6b83      	ldreq	r3, [r0, #56]	; 0x38
   8314c:	6bc3      	ldrne	r3, [r0, #60]	; 0x3c
   8314e:	4213      	tst	r3, r2
   83150:	bf14      	ite	ne
   83152:	2001      	movne	r0, #1
   83154:	2000      	moveq	r0, #0
   83156:	4770      	bx	lr

00083158 <pio_set_peripheral>:
   83158:	6442      	str	r2, [r0, #68]	; 0x44
   8315a:	f1b1 5f80 	cmp.w	r1, #268435456	; 0x10000000
   8315e:	d016      	beq.n	8318e <pio_set_peripheral+0x36>
   83160:	d804      	bhi.n	8316c <pio_set_peripheral+0x14>
   83162:	b1c1      	cbz	r1, 83196 <pio_set_peripheral+0x3e>
   83164:	f1b1 6f00 	cmp.w	r1, #134217728	; 0x8000000
   83168:	d00a      	beq.n	83180 <pio_set_peripheral+0x28>
   8316a:	e013      	b.n	83194 <pio_set_peripheral+0x3c>
   8316c:	f1b1 5f40 	cmp.w	r1, #805306368	; 0x30000000
   83170:	d011      	beq.n	83196 <pio_set_peripheral+0x3e>
   83172:	f1b1 5f60 	cmp.w	r1, #939524096	; 0x38000000
   83176:	d00e      	beq.n	83196 <pio_set_peripheral+0x3e>
   83178:	f1b1 5f20 	cmp.w	r1, #671088640	; 0x28000000
   8317c:	d10a      	bne.n	83194 <pio_set_peripheral+0x3c>
   8317e:	4770      	bx	lr
   83180:	6f03      	ldr	r3, [r0, #112]	; 0x70
   83182:	6f01      	ldr	r1, [r0, #112]	; 0x70
   83184:	400b      	ands	r3, r1
   83186:	ea23 0302 	bic.w	r3, r3, r2
   8318a:	6703      	str	r3, [r0, #112]	; 0x70
   8318c:	e002      	b.n	83194 <pio_set_peripheral+0x3c>
   8318e:	6f03      	ldr	r3, [r0, #112]	; 0x70
   83190:	4313      	orrs	r3, r2
   83192:	6703      	str	r3, [r0, #112]	; 0x70
   83194:	6042      	str	r2, [r0, #4]
   83196:	4770      	bx	lr

00083198 <pio_set_input>:
   83198:	6441      	str	r1, [r0, #68]	; 0x44
   8319a:	f012 0f01 	tst.w	r2, #1
   8319e:	bf14      	ite	ne
   831a0:	6641      	strne	r1, [r0, #100]	; 0x64
   831a2:	6601      	streq	r1, [r0, #96]	; 0x60
   831a4:	f012 0f0a 	tst.w	r2, #10
   831a8:	bf14      	ite	ne
   831aa:	6201      	strne	r1, [r0, #32]
   831ac:	6241      	streq	r1, [r0, #36]	; 0x24
   831ae:	f012 0f02 	tst.w	r2, #2
   831b2:	d002      	beq.n	831ba <pio_set_input+0x22>
   831b4:	f8c0 1080 	str.w	r1, [r0, #128]	; 0x80
   831b8:	e004      	b.n	831c4 <pio_set_input+0x2c>
   831ba:	f012 0f08 	tst.w	r2, #8
   831be:	bf18      	it	ne
   831c0:	f8c0 1084 	strne.w	r1, [r0, #132]	; 0x84
   831c4:	6141      	str	r1, [r0, #20]
   831c6:	6001      	str	r1, [r0, #0]
   831c8:	4770      	bx	lr
   831ca:	bf00      	nop

000831cc <pio_set_output>:
   831cc:	b410      	push	{r4}
   831ce:	6441      	str	r1, [r0, #68]	; 0x44
   831d0:	9c01      	ldr	r4, [sp, #4]
   831d2:	b10c      	cbz	r4, 831d8 <pio_set_output+0xc>
   831d4:	6641      	str	r1, [r0, #100]	; 0x64
   831d6:	e000      	b.n	831da <pio_set_output+0xe>
   831d8:	6601      	str	r1, [r0, #96]	; 0x60
   831da:	b10b      	cbz	r3, 831e0 <pio_set_output+0x14>
   831dc:	6501      	str	r1, [r0, #80]	; 0x50
   831de:	e000      	b.n	831e2 <pio_set_output+0x16>
   831e0:	6541      	str	r1, [r0, #84]	; 0x54
   831e2:	b10a      	cbz	r2, 831e8 <pio_set_output+0x1c>
   831e4:	6301      	str	r1, [r0, #48]	; 0x30
   831e6:	e000      	b.n	831ea <pio_set_output+0x1e>
   831e8:	6341      	str	r1, [r0, #52]	; 0x34
   831ea:	6101      	str	r1, [r0, #16]
   831ec:	6001      	str	r1, [r0, #0]
   831ee:	f85d 4b04 	ldr.w	r4, [sp], #4
   831f2:	4770      	bx	lr

000831f4 <pio_configure_interrupt>:
   831f4:	f012 0f10 	tst.w	r2, #16
   831f8:	d010      	beq.n	8321c <pio_configure_interrupt+0x28>
   831fa:	f8c0 10b0 	str.w	r1, [r0, #176]	; 0xb0
   831fe:	f012 0f20 	tst.w	r2, #32
   83202:	bf14      	ite	ne
   83204:	f8c0 10d4 	strne.w	r1, [r0, #212]	; 0xd4
   83208:	f8c0 10d0 	streq.w	r1, [r0, #208]	; 0xd0
   8320c:	f012 0f40 	tst.w	r2, #64	; 0x40
   83210:	bf14      	ite	ne
   83212:	f8c0 10c0 	strne.w	r1, [r0, #192]	; 0xc0
   83216:	f8c0 10c4 	streq.w	r1, [r0, #196]	; 0xc4
   8321a:	4770      	bx	lr
   8321c:	f8c0 10b4 	str.w	r1, [r0, #180]	; 0xb4
   83220:	4770      	bx	lr
   83222:	bf00      	nop

00083224 <pio_enable_interrupt>:
   83224:	6401      	str	r1, [r0, #64]	; 0x40
   83226:	4770      	bx	lr

00083228 <pio_get_interrupt_status>:
   83228:	6cc0      	ldr	r0, [r0, #76]	; 0x4c
   8322a:	4770      	bx	lr

0008322c <pio_get_interrupt_mask>:
   8322c:	6c80      	ldr	r0, [r0, #72]	; 0x48
   8322e:	4770      	bx	lr

00083230 <pio_configure_pin>:
   83230:	b570      	push	{r4, r5, r6, lr}
   83232:	b082      	sub	sp, #8
   83234:	460d      	mov	r5, r1
   83236:	0943      	lsrs	r3, r0, #5
   83238:	f503 1300 	add.w	r3, r3, #2097152	; 0x200000
   8323c:	f203 7307 	addw	r3, r3, #1799	; 0x707
   83240:	025c      	lsls	r4, r3, #9
   83242:	f001 43f0 	and.w	r3, r1, #2013265920	; 0x78000000
   83246:	f1b3 5f20 	cmp.w	r3, #671088640	; 0x28000000
   8324a:	d030      	beq.n	832ae <pio_configure_pin+0x7e>
   8324c:	d806      	bhi.n	8325c <pio_configure_pin+0x2c>
   8324e:	f1b3 6f00 	cmp.w	r3, #134217728	; 0x8000000
   83252:	d00a      	beq.n	8326a <pio_configure_pin+0x3a>
   83254:	f1b3 5f80 	cmp.w	r3, #268435456	; 0x10000000
   83258:	d018      	beq.n	8328c <pio_configure_pin+0x5c>
   8325a:	e049      	b.n	832f0 <pio_configure_pin+0xc0>
   8325c:	f1b3 5f40 	cmp.w	r3, #805306368	; 0x30000000
   83260:	d030      	beq.n	832c4 <pio_configure_pin+0x94>
   83262:	f1b3 5f60 	cmp.w	r3, #939524096	; 0x38000000
   83266:	d02d      	beq.n	832c4 <pio_configure_pin+0x94>
   83268:	e042      	b.n	832f0 <pio_configure_pin+0xc0>
   8326a:	f000 001f 	and.w	r0, r0, #31
   8326e:	2601      	movs	r6, #1
   83270:	4086      	lsls	r6, r0
   83272:	4620      	mov	r0, r4
   83274:	f04f 6100 	mov.w	r1, #134217728	; 0x8000000
   83278:	4632      	mov	r2, r6
   8327a:	4b1f      	ldr	r3, [pc, #124]	; (832f8 <pio_configure_pin+0xc8>)
   8327c:	4798      	blx	r3
   8327e:	f015 0f01 	tst.w	r5, #1
   83282:	bf14      	ite	ne
   83284:	6666      	strne	r6, [r4, #100]	; 0x64
   83286:	6626      	streq	r6, [r4, #96]	; 0x60
   83288:	2001      	movs	r0, #1
   8328a:	e032      	b.n	832f2 <pio_configure_pin+0xc2>
   8328c:	f000 001f 	and.w	r0, r0, #31
   83290:	2601      	movs	r6, #1
   83292:	4086      	lsls	r6, r0
   83294:	4620      	mov	r0, r4
   83296:	f04f 5180 	mov.w	r1, #268435456	; 0x10000000
   8329a:	4632      	mov	r2, r6
   8329c:	4b16      	ldr	r3, [pc, #88]	; (832f8 <pio_configure_pin+0xc8>)
   8329e:	4798      	blx	r3
   832a0:	f015 0f01 	tst.w	r5, #1
   832a4:	bf14      	ite	ne
   832a6:	6666      	strne	r6, [r4, #100]	; 0x64
   832a8:	6626      	streq	r6, [r4, #96]	; 0x60
   832aa:	2001      	movs	r0, #1
   832ac:	e021      	b.n	832f2 <pio_configure_pin+0xc2>
   832ae:	f000 031f 	and.w	r3, r0, #31
   832b2:	2601      	movs	r6, #1
   832b4:	4620      	mov	r0, r4
   832b6:	fa06 f103 	lsl.w	r1, r6, r3
   832ba:	462a      	mov	r2, r5
   832bc:	4b0f      	ldr	r3, [pc, #60]	; (832fc <pio_configure_pin+0xcc>)
   832be:	4798      	blx	r3
   832c0:	4630      	mov	r0, r6
   832c2:	e016      	b.n	832f2 <pio_configure_pin+0xc2>
   832c4:	f000 031f 	and.w	r3, r0, #31
   832c8:	2601      	movs	r6, #1
   832ca:	f005 5260 	and.w	r2, r5, #939524096	; 0x38000000
   832ce:	ea05 0106 	and.w	r1, r5, r6
   832d2:	9100      	str	r1, [sp, #0]
   832d4:	4620      	mov	r0, r4
   832d6:	fa06 f103 	lsl.w	r1, r6, r3
   832da:	f1b2 5f60 	cmp.w	r2, #939524096	; 0x38000000
   832de:	bf14      	ite	ne
   832e0:	2200      	movne	r2, #0
   832e2:	2201      	moveq	r2, #1
   832e4:	f3c5 0380 	ubfx	r3, r5, #2, #1
   832e8:	4c05      	ldr	r4, [pc, #20]	; (83300 <pio_configure_pin+0xd0>)
   832ea:	47a0      	blx	r4
   832ec:	4630      	mov	r0, r6
   832ee:	e000      	b.n	832f2 <pio_configure_pin+0xc2>
   832f0:	2000      	movs	r0, #0
   832f2:	b002      	add	sp, #8
   832f4:	bd70      	pop	{r4, r5, r6, pc}
   832f6:	bf00      	nop
   832f8:	00083159 	.word	0x00083159
   832fc:	00083199 	.word	0x00083199
   83300:	000831cd 	.word	0x000831cd

00083304 <pio_configure_pin_group>:
   83304:	b570      	push	{r4, r5, r6, lr}
   83306:	b082      	sub	sp, #8
   83308:	4606      	mov	r6, r0
   8330a:	460d      	mov	r5, r1
   8330c:	4614      	mov	r4, r2
   8330e:	f002 43f0 	and.w	r3, r2, #2013265920	; 0x78000000
   83312:	f1b3 5f20 	cmp.w	r3, #671088640	; 0x28000000
   83316:	d026      	beq.n	83366 <pio_configure_pin_group+0x62>
   83318:	d806      	bhi.n	83328 <pio_configure_pin_group+0x24>
   8331a:	f1b3 6f00 	cmp.w	r3, #134217728	; 0x8000000
   8331e:	d00a      	beq.n	83336 <pio_configure_pin_group+0x32>
   83320:	f1b3 5f80 	cmp.w	r3, #268435456	; 0x10000000
   83324:	d013      	beq.n	8334e <pio_configure_pin_group+0x4a>
   83326:	e034      	b.n	83392 <pio_configure_pin_group+0x8e>
   83328:	f1b3 5f40 	cmp.w	r3, #805306368	; 0x30000000
   8332c:	d01f      	beq.n	8336e <pio_configure_pin_group+0x6a>
   8332e:	f1b3 5f60 	cmp.w	r3, #939524096	; 0x38000000
   83332:	d01c      	beq.n	8336e <pio_configure_pin_group+0x6a>
   83334:	e02d      	b.n	83392 <pio_configure_pin_group+0x8e>
   83336:	f04f 6100 	mov.w	r1, #134217728	; 0x8000000
   8333a:	462a      	mov	r2, r5
   8333c:	4b16      	ldr	r3, [pc, #88]	; (83398 <pio_configure_pin_group+0x94>)
   8333e:	4798      	blx	r3
   83340:	f014 0f01 	tst.w	r4, #1
   83344:	bf14      	ite	ne
   83346:	6675      	strne	r5, [r6, #100]	; 0x64
   83348:	6635      	streq	r5, [r6, #96]	; 0x60
   8334a:	2001      	movs	r0, #1
   8334c:	e022      	b.n	83394 <pio_configure_pin_group+0x90>
   8334e:	f04f 5180 	mov.w	r1, #268435456	; 0x10000000
   83352:	462a      	mov	r2, r5
   83354:	4b10      	ldr	r3, [pc, #64]	; (83398 <pio_configure_pin_group+0x94>)
   83356:	4798      	blx	r3
   83358:	f014 0f01 	tst.w	r4, #1
   8335c:	bf14      	ite	ne
   8335e:	6675      	strne	r5, [r6, #100]	; 0x64
   83360:	6635      	streq	r5, [r6, #96]	; 0x60
   83362:	2001      	movs	r0, #1
   83364:	e016      	b.n	83394 <pio_configure_pin_group+0x90>
   83366:	4b0d      	ldr	r3, [pc, #52]	; (8339c <pio_configure_pin_group+0x98>)
   83368:	4798      	blx	r3
   8336a:	2001      	movs	r0, #1
   8336c:	e012      	b.n	83394 <pio_configure_pin_group+0x90>
   8336e:	f004 5260 	and.w	r2, r4, #939524096	; 0x38000000
   83372:	f004 0301 	and.w	r3, r4, #1
   83376:	9300      	str	r3, [sp, #0]
   83378:	4630      	mov	r0, r6
   8337a:	4629      	mov	r1, r5
   8337c:	f1b2 5f60 	cmp.w	r2, #939524096	; 0x38000000
   83380:	bf14      	ite	ne
   83382:	2200      	movne	r2, #0
   83384:	2201      	moveq	r2, #1
   83386:	f3c4 0380 	ubfx	r3, r4, #2, #1
   8338a:	4c05      	ldr	r4, [pc, #20]	; (833a0 <pio_configure_pin_group+0x9c>)
   8338c:	47a0      	blx	r4
   8338e:	2001      	movs	r0, #1
   83390:	e000      	b.n	83394 <pio_configure_pin_group+0x90>
   83392:	2000      	movs	r0, #0
   83394:	b002      	add	sp, #8
   83396:	bd70      	pop	{r4, r5, r6, pc}
   83398:	00083159 	.word	0x00083159
   8339c:	00083199 	.word	0x00083199
   833a0:	000831cd 	.word	0x000831cd

000833a4 <pio_handler_process>:
   833a4:	e92d 41f0 	stmdb	sp!, {r4, r5, r6, r7, r8, lr}
   833a8:	4604      	mov	r4, r0
   833aa:	4688      	mov	r8, r1
   833ac:	4b0e      	ldr	r3, [pc, #56]	; (833e8 <pio_handler_process+0x44>)
   833ae:	4798      	blx	r3
   833b0:	4605      	mov	r5, r0
   833b2:	4620      	mov	r0, r4
   833b4:	4b0d      	ldr	r3, [pc, #52]	; (833ec <pio_handler_process+0x48>)
   833b6:	4798      	blx	r3
   833b8:	4005      	ands	r5, r0
   833ba:	d013      	beq.n	833e4 <pio_handler_process+0x40>
   833bc:	4c0c      	ldr	r4, [pc, #48]	; (833f0 <pio_handler_process+0x4c>)
   833be:	f104 0660 	add.w	r6, r4, #96	; 0x60
   833c2:	6823      	ldr	r3, [r4, #0]
   833c4:	4543      	cmp	r3, r8
   833c6:	d108      	bne.n	833da <pio_handler_process+0x36>
   833c8:	6861      	ldr	r1, [r4, #4]
   833ca:	4229      	tst	r1, r5
   833cc:	d005      	beq.n	833da <pio_handler_process+0x36>
   833ce:	68e3      	ldr	r3, [r4, #12]
   833d0:	4640      	mov	r0, r8
   833d2:	4798      	blx	r3
   833d4:	6863      	ldr	r3, [r4, #4]
   833d6:	ea25 0503 	bic.w	r5, r5, r3
   833da:	42b4      	cmp	r4, r6
   833dc:	d002      	beq.n	833e4 <pio_handler_process+0x40>
   833de:	3410      	adds	r4, #16
   833e0:	2d00      	cmp	r5, #0
   833e2:	d1ee      	bne.n	833c2 <pio_handler_process+0x1e>
   833e4:	e8bd 81f0 	ldmia.w	sp!, {r4, r5, r6, r7, r8, pc}
   833e8:	00083229 	.word	0x00083229
   833ec:	0008322d 	.word	0x0008322d
   833f0:	2007ac6c 	.word	0x2007ac6c

000833f4 <pio_handler_set>:
   833f4:	b5f8      	push	{r3, r4, r5, r6, r7, lr}
   833f6:	4c17      	ldr	r4, [pc, #92]	; (83454 <pio_handler_set+0x60>)
   833f8:	6827      	ldr	r7, [r4, #0]
   833fa:	2f06      	cmp	r7, #6
   833fc:	d827      	bhi.n	8344e <pio_handler_set+0x5a>
   833fe:	f04f 0c00 	mov.w	ip, #0
   83402:	4664      	mov	r4, ip
   83404:	4e14      	ldr	r6, [pc, #80]	; (83458 <pio_handler_set+0x64>)
   83406:	0125      	lsls	r5, r4, #4
   83408:	eb06 0e05 	add.w	lr, r6, r5
   8340c:	5975      	ldr	r5, [r6, r5]
   8340e:	428d      	cmp	r5, r1
   83410:	d104      	bne.n	8341c <pio_handler_set+0x28>
   83412:	eb06 1504 	add.w	r5, r6, r4, lsl #4
   83416:	686d      	ldr	r5, [r5, #4]
   83418:	4295      	cmp	r5, r2
   8341a:	d004      	beq.n	83426 <pio_handler_set+0x32>
   8341c:	3401      	adds	r4, #1
   8341e:	b2e4      	uxtb	r4, r4
   83420:	46a4      	mov	ip, r4
   83422:	42a7      	cmp	r7, r4
   83424:	d2ef      	bcs.n	83406 <pio_handler_set+0x12>
   83426:	f8ce 1000 	str.w	r1, [lr]
   8342a:	f8ce 2004 	str.w	r2, [lr, #4]
   8342e:	f8ce 3008 	str.w	r3, [lr, #8]
   83432:	9906      	ldr	r1, [sp, #24]
   83434:	f8ce 100c 	str.w	r1, [lr, #12]
   83438:	3701      	adds	r7, #1
   8343a:	4567      	cmp	r7, ip
   8343c:	bf04      	itt	eq
   8343e:	4905      	ldreq	r1, [pc, #20]	; (83454 <pio_handler_set+0x60>)
   83440:	600f      	streq	r7, [r1, #0]
   83442:	4611      	mov	r1, r2
   83444:	461a      	mov	r2, r3
   83446:	4b05      	ldr	r3, [pc, #20]	; (8345c <pio_handler_set+0x68>)
   83448:	4798      	blx	r3
   8344a:	2000      	movs	r0, #0
   8344c:	bdf8      	pop	{r3, r4, r5, r6, r7, pc}
   8344e:	2001      	movs	r0, #1
   83450:	bdf8      	pop	{r3, r4, r5, r6, r7, pc}
   83452:	bf00      	nop
   83454:	2007ac68 	.word	0x2007ac68
   83458:	2007ac6c 	.word	0x2007ac6c
   8345c:	000831f5 	.word	0x000831f5

00083460 <PIOA_Handler>:
   83460:	b508      	push	{r3, lr}
   83462:	4802      	ldr	r0, [pc, #8]	; (8346c <PIOA_Handler+0xc>)
   83464:	210b      	movs	r1, #11
   83466:	4b02      	ldr	r3, [pc, #8]	; (83470 <PIOA_Handler+0x10>)
   83468:	4798      	blx	r3
   8346a:	bd08      	pop	{r3, pc}
   8346c:	400e0e00 	.word	0x400e0e00
   83470:	000833a5 	.word	0x000833a5

00083474 <PIOB_Handler>:
   83474:	b508      	push	{r3, lr}
   83476:	4802      	ldr	r0, [pc, #8]	; (83480 <PIOB_Handler+0xc>)
   83478:	210c      	movs	r1, #12
   8347a:	4b02      	ldr	r3, [pc, #8]	; (83484 <PIOB_Handler+0x10>)
   8347c:	4798      	blx	r3
   8347e:	bd08      	pop	{r3, pc}
   83480:	400e1000 	.word	0x400e1000
   83484:	000833a5 	.word	0x000833a5

00083488 <PIOC_Handler>:
   83488:	b508      	push	{r3, lr}
   8348a:	4802      	ldr	r0, [pc, #8]	; (83494 <PIOC_Handler+0xc>)
   8348c:	210d      	movs	r1, #13
   8348e:	4b02      	ldr	r3, [pc, #8]	; (83498 <PIOC_Handler+0x10>)
   83490:	4798      	blx	r3
   83492:	bd08      	pop	{r3, pc}
   83494:	400e1200 	.word	0x400e1200
   83498:	000833a5 	.word	0x000833a5

0008349c <PIOD_Handler>:
   8349c:	b508      	push	{r3, lr}
   8349e:	4802      	ldr	r0, [pc, #8]	; (834a8 <PIOD_Handler+0xc>)
   834a0:	210e      	movs	r1, #14
   834a2:	4b02      	ldr	r3, [pc, #8]	; (834ac <PIOD_Handler+0x10>)
   834a4:	4798      	blx	r3
   834a6:	bd08      	pop	{r3, pc}
   834a8:	400e1400 	.word	0x400e1400
   834ac:	000833a5 	.word	0x000833a5

000834b0 <pmc_switch_mck_to_pllack>:
   834b0:	4a18      	ldr	r2, [pc, #96]	; (83514 <pmc_switch_mck_to_pllack+0x64>)
   834b2:	6b13      	ldr	r3, [r2, #48]	; 0x30
   834b4:	f023 0370 	bic.w	r3, r3, #112	; 0x70
   834b8:	4318      	orrs	r0, r3
   834ba:	6310      	str	r0, [r2, #48]	; 0x30
   834bc:	6e93      	ldr	r3, [r2, #104]	; 0x68
   834be:	f013 0f08 	tst.w	r3, #8
   834c2:	d003      	beq.n	834cc <pmc_switch_mck_to_pllack+0x1c>
   834c4:	e009      	b.n	834da <pmc_switch_mck_to_pllack+0x2a>
   834c6:	3b01      	subs	r3, #1
   834c8:	d103      	bne.n	834d2 <pmc_switch_mck_to_pllack+0x22>
   834ca:	e01e      	b.n	8350a <pmc_switch_mck_to_pllack+0x5a>
   834cc:	f44f 6300 	mov.w	r3, #2048	; 0x800
   834d0:	4910      	ldr	r1, [pc, #64]	; (83514 <pmc_switch_mck_to_pllack+0x64>)
   834d2:	6e8a      	ldr	r2, [r1, #104]	; 0x68
   834d4:	f012 0f08 	tst.w	r2, #8
   834d8:	d0f5      	beq.n	834c6 <pmc_switch_mck_to_pllack+0x16>
   834da:	4a0e      	ldr	r2, [pc, #56]	; (83514 <pmc_switch_mck_to_pllack+0x64>)
   834dc:	6b13      	ldr	r3, [r2, #48]	; 0x30
   834de:	f023 0303 	bic.w	r3, r3, #3
   834e2:	f043 0302 	orr.w	r3, r3, #2
   834e6:	6313      	str	r3, [r2, #48]	; 0x30
   834e8:	6e90      	ldr	r0, [r2, #104]	; 0x68
   834ea:	f010 0008 	ands.w	r0, r0, #8
   834ee:	d004      	beq.n	834fa <pmc_switch_mck_to_pllack+0x4a>
   834f0:	2000      	movs	r0, #0
   834f2:	4770      	bx	lr
   834f4:	3b01      	subs	r3, #1
   834f6:	d103      	bne.n	83500 <pmc_switch_mck_to_pllack+0x50>
   834f8:	e009      	b.n	8350e <pmc_switch_mck_to_pllack+0x5e>
   834fa:	f44f 6300 	mov.w	r3, #2048	; 0x800
   834fe:	4905      	ldr	r1, [pc, #20]	; (83514 <pmc_switch_mck_to_pllack+0x64>)
   83500:	6e8a      	ldr	r2, [r1, #104]	; 0x68
   83502:	f012 0f08 	tst.w	r2, #8
   83506:	d0f5      	beq.n	834f4 <pmc_switch_mck_to_pllack+0x44>
   83508:	4770      	bx	lr
   8350a:	2001      	movs	r0, #1
   8350c:	4770      	bx	lr
   8350e:	2001      	movs	r0, #1
   83510:	4770      	bx	lr
   83512:	bf00      	nop
   83514:	400e0600 	.word	0x400e0600

00083518 <pmc_switch_mainck_to_xtal>:
   83518:	b138      	cbz	r0, 8352a <pmc_switch_mainck_to_xtal+0x12>
   8351a:	4911      	ldr	r1, [pc, #68]	; (83560 <pmc_switch_mainck_to_xtal+0x48>)
   8351c:	6a0b      	ldr	r3, [r1, #32]
   8351e:	4a11      	ldr	r2, [pc, #68]	; (83564 <pmc_switch_mainck_to_xtal+0x4c>)
   83520:	401a      	ands	r2, r3
   83522:	4b11      	ldr	r3, [pc, #68]	; (83568 <pmc_switch_mainck_to_xtal+0x50>)
   83524:	4313      	orrs	r3, r2
   83526:	620b      	str	r3, [r1, #32]
   83528:	4770      	bx	lr
   8352a:	4a0d      	ldr	r2, [pc, #52]	; (83560 <pmc_switch_mainck_to_xtal+0x48>)
   8352c:	6a13      	ldr	r3, [r2, #32]
   8352e:	f423 135c 	bic.w	r3, r3, #3604480	; 0x370000
   83532:	f023 0303 	bic.w	r3, r3, #3
   83536:	f443 135c 	orr.w	r3, r3, #3604480	; 0x370000
   8353a:	f043 0301 	orr.w	r3, r3, #1
   8353e:	0209      	lsls	r1, r1, #8
   83540:	b289      	uxth	r1, r1
   83542:	430b      	orrs	r3, r1
   83544:	6213      	str	r3, [r2, #32]
   83546:	6e93      	ldr	r3, [r2, #104]	; 0x68
   83548:	f013 0f01 	tst.w	r3, #1
   8354c:	d0fb      	beq.n	83546 <pmc_switch_mainck_to_xtal+0x2e>
   8354e:	4a04      	ldr	r2, [pc, #16]	; (83560 <pmc_switch_mainck_to_xtal+0x48>)
   83550:	6a13      	ldr	r3, [r2, #32]
   83552:	f043 739b 	orr.w	r3, r3, #20316160	; 0x1360000
   83556:	f443 3380 	orr.w	r3, r3, #65536	; 0x10000
   8355a:	6213      	str	r3, [r2, #32]
   8355c:	4770      	bx	lr
   8355e:	bf00      	nop
   83560:	400e0600 	.word	0x400e0600
   83564:	fec8fffc 	.word	0xfec8fffc
   83568:	01370002 	.word	0x01370002

0008356c <pmc_osc_is_ready_mainck>:
   8356c:	4b02      	ldr	r3, [pc, #8]	; (83578 <pmc_osc_is_ready_mainck+0xc>)
   8356e:	6e98      	ldr	r0, [r3, #104]	; 0x68
   83570:	f400 3080 	and.w	r0, r0, #65536	; 0x10000
   83574:	4770      	bx	lr
   83576:	bf00      	nop
   83578:	400e0600 	.word	0x400e0600

0008357c <pmc_disable_pllack>:
   8357c:	f04f 5200 	mov.w	r2, #536870912	; 0x20000000
   83580:	4b01      	ldr	r3, [pc, #4]	; (83588 <pmc_disable_pllack+0xc>)
   83582:	629a      	str	r2, [r3, #40]	; 0x28
   83584:	4770      	bx	lr
   83586:	bf00      	nop
   83588:	400e0600 	.word	0x400e0600

0008358c <pmc_is_locked_pllack>:
   8358c:	4b02      	ldr	r3, [pc, #8]	; (83598 <pmc_is_locked_pllack+0xc>)
   8358e:	6e98      	ldr	r0, [r3, #104]	; 0x68
   83590:	f000 0002 	and.w	r0, r0, #2
   83594:	4770      	bx	lr
   83596:	bf00      	nop
   83598:	400e0600 	.word	0x400e0600

0008359c <pmc_enable_periph_clk>:
   8359c:	282c      	cmp	r0, #44	; 0x2c
   8359e:	d81e      	bhi.n	835de <pmc_enable_periph_clk+0x42>
   835a0:	281f      	cmp	r0, #31
   835a2:	d80c      	bhi.n	835be <pmc_enable_periph_clk+0x22>
   835a4:	4b11      	ldr	r3, [pc, #68]	; (835ec <pmc_enable_periph_clk+0x50>)
   835a6:	699a      	ldr	r2, [r3, #24]
   835a8:	2301      	movs	r3, #1
   835aa:	4083      	lsls	r3, r0
   835ac:	401a      	ands	r2, r3
   835ae:	4293      	cmp	r3, r2
   835b0:	d017      	beq.n	835e2 <pmc_enable_periph_clk+0x46>
   835b2:	2301      	movs	r3, #1
   835b4:	4083      	lsls	r3, r0
   835b6:	4a0d      	ldr	r2, [pc, #52]	; (835ec <pmc_enable_periph_clk+0x50>)
   835b8:	6113      	str	r3, [r2, #16]
   835ba:	2000      	movs	r0, #0
   835bc:	4770      	bx	lr
   835be:	4b0b      	ldr	r3, [pc, #44]	; (835ec <pmc_enable_periph_clk+0x50>)
   835c0:	f8d3 2108 	ldr.w	r2, [r3, #264]	; 0x108
   835c4:	3820      	subs	r0, #32
   835c6:	2301      	movs	r3, #1
   835c8:	4083      	lsls	r3, r0
   835ca:	401a      	ands	r2, r3
   835cc:	4293      	cmp	r3, r2
   835ce:	d00a      	beq.n	835e6 <pmc_enable_periph_clk+0x4a>
   835d0:	2301      	movs	r3, #1
   835d2:	4083      	lsls	r3, r0
   835d4:	4a05      	ldr	r2, [pc, #20]	; (835ec <pmc_enable_periph_clk+0x50>)
   835d6:	f8c2 3100 	str.w	r3, [r2, #256]	; 0x100
   835da:	2000      	movs	r0, #0
   835dc:	4770      	bx	lr
   835de:	2001      	movs	r0, #1
   835e0:	4770      	bx	lr
   835e2:	2000      	movs	r0, #0
   835e4:	4770      	bx	lr
   835e6:	2000      	movs	r0, #0
   835e8:	4770      	bx	lr
   835ea:	bf00      	nop
   835ec:	400e0600 	.word	0x400e0600

000835f0 <Dummy_Handler>:
   835f0:	e7fe      	b.n	835f0 <Dummy_Handler>
   835f2:	bf00      	nop

000835f4 <Reset_Handler>:
   835f4:	b508      	push	{r3, lr}
   835f6:	4b1f      	ldr	r3, [pc, #124]	; (83674 <Reset_Handler+0x80>)
   835f8:	4a1f      	ldr	r2, [pc, #124]	; (83678 <Reset_Handler+0x84>)
   835fa:	429a      	cmp	r2, r3
   835fc:	d003      	beq.n	83606 <Reset_Handler+0x12>
   835fe:	4b1f      	ldr	r3, [pc, #124]	; (8367c <Reset_Handler+0x88>)
   83600:	4a1c      	ldr	r2, [pc, #112]	; (83674 <Reset_Handler+0x80>)
   83602:	429a      	cmp	r2, r3
   83604:	d304      	bcc.n	83610 <Reset_Handler+0x1c>
   83606:	4b1e      	ldr	r3, [pc, #120]	; (83680 <Reset_Handler+0x8c>)
   83608:	4a1e      	ldr	r2, [pc, #120]	; (83684 <Reset_Handler+0x90>)
   8360a:	429a      	cmp	r2, r3
   8360c:	d310      	bcc.n	83630 <Reset_Handler+0x3c>
   8360e:	e01b      	b.n	83648 <Reset_Handler+0x54>
   83610:	4918      	ldr	r1, [pc, #96]	; (83674 <Reset_Handler+0x80>)
   83612:	1d0a      	adds	r2, r1, #4
   83614:	4b1c      	ldr	r3, [pc, #112]	; (83688 <Reset_Handler+0x94>)
   83616:	1a9b      	subs	r3, r3, r2
   83618:	f023 0303 	bic.w	r3, r3, #3
   8361c:	3304      	adds	r3, #4
   8361e:	4a16      	ldr	r2, [pc, #88]	; (83678 <Reset_Handler+0x84>)
   83620:	4413      	add	r3, r2
   83622:	f852 0b04 	ldr.w	r0, [r2], #4
   83626:	f841 0b04 	str.w	r0, [r1], #4
   8362a:	429a      	cmp	r2, r3
   8362c:	d1f9      	bne.n	83622 <Reset_Handler+0x2e>
   8362e:	e7ea      	b.n	83606 <Reset_Handler+0x12>
   83630:	4b16      	ldr	r3, [pc, #88]	; (8368c <Reset_Handler+0x98>)
   83632:	4a17      	ldr	r2, [pc, #92]	; (83690 <Reset_Handler+0x9c>)
   83634:	1ad2      	subs	r2, r2, r3
   83636:	f022 0203 	bic.w	r2, r2, #3
   8363a:	441a      	add	r2, r3
   8363c:	3b04      	subs	r3, #4
   8363e:	2100      	movs	r1, #0
   83640:	f843 1b04 	str.w	r1, [r3], #4
   83644:	4293      	cmp	r3, r2
   83646:	d1fb      	bne.n	83640 <Reset_Handler+0x4c>
   83648:	4b12      	ldr	r3, [pc, #72]	; (83694 <Reset_Handler+0xa0>)
   8364a:	f023 4260 	bic.w	r2, r3, #3758096384	; 0xe0000000
   8364e:	f022 027f 	bic.w	r2, r2, #127	; 0x7f
   83652:	4911      	ldr	r1, [pc, #68]	; (83698 <Reset_Handler+0xa4>)
   83654:	608a      	str	r2, [r1, #8]
   83656:	f103 4360 	add.w	r3, r3, #3758096384	; 0xe0000000
   8365a:	f5b3 1f80 	cmp.w	r3, #1048576	; 0x100000
   8365e:	d203      	bcs.n	83668 <Reset_Handler+0x74>
   83660:	688b      	ldr	r3, [r1, #8]
   83662:	f043 5300 	orr.w	r3, r3, #536870912	; 0x20000000
   83666:	608b      	str	r3, [r1, #8]
   83668:	4b0c      	ldr	r3, [pc, #48]	; (8369c <Reset_Handler+0xa8>)
   8366a:	4798      	blx	r3
   8366c:	4b0c      	ldr	r3, [pc, #48]	; (836a0 <Reset_Handler+0xac>)
   8366e:	4798      	blx	r3
   83670:	e7fe      	b.n	83670 <Reset_Handler+0x7c>
   83672:	bf00      	nop
   83674:	20070000 	.word	0x20070000
   83678:	00087ebc 	.word	0x00087ebc
   8367c:	20070a0c 	.word	0x20070a0c
   83680:	2007ad78 	.word	0x2007ad78
   83684:	20070a10 	.word	0x20070a10
   83688:	20070a0f 	.word	0x20070a0f
   8368c:	20070a14 	.word	0x20070a14
   83690:	2007ad7b 	.word	0x2007ad7b
   83694:	00080000 	.word	0x00080000
   83698:	e000ed00 	.word	0xe000ed00
   8369c:	00084bd9 	.word	0x00084bd9
   836a0:	00083811 	.word	0x00083811

000836a4 <SystemCoreClockUpdate>:
   836a4:	4b3e      	ldr	r3, [pc, #248]	; (837a0 <SystemCoreClockUpdate+0xfc>)
   836a6:	6b1b      	ldr	r3, [r3, #48]	; 0x30
   836a8:	f003 0303 	and.w	r3, r3, #3
   836ac:	2b03      	cmp	r3, #3
   836ae:	d85f      	bhi.n	83770 <SystemCoreClockUpdate+0xcc>
   836b0:	e8df f003 	tbb	[pc, r3]
   836b4:	2b2b0e02 	.word	0x2b2b0e02
   836b8:	4b3a      	ldr	r3, [pc, #232]	; (837a4 <SystemCoreClockUpdate+0x100>)
   836ba:	695b      	ldr	r3, [r3, #20]
   836bc:	f013 0f80 	tst.w	r3, #128	; 0x80
   836c0:	bf14      	ite	ne
   836c2:	f44f 4200 	movne.w	r2, #32768	; 0x8000
   836c6:	f44f 42fa 	moveq.w	r2, #32000	; 0x7d00
   836ca:	4b37      	ldr	r3, [pc, #220]	; (837a8 <SystemCoreClockUpdate+0x104>)
   836cc:	601a      	str	r2, [r3, #0]
   836ce:	e04f      	b.n	83770 <SystemCoreClockUpdate+0xcc>
   836d0:	4b33      	ldr	r3, [pc, #204]	; (837a0 <SystemCoreClockUpdate+0xfc>)
   836d2:	6a1b      	ldr	r3, [r3, #32]
   836d4:	f013 7f80 	tst.w	r3, #16777216	; 0x1000000
   836d8:	d003      	beq.n	836e2 <SystemCoreClockUpdate+0x3e>
   836da:	4a34      	ldr	r2, [pc, #208]	; (837ac <SystemCoreClockUpdate+0x108>)
   836dc:	4b32      	ldr	r3, [pc, #200]	; (837a8 <SystemCoreClockUpdate+0x104>)
   836de:	601a      	str	r2, [r3, #0]
   836e0:	e046      	b.n	83770 <SystemCoreClockUpdate+0xcc>
   836e2:	4a33      	ldr	r2, [pc, #204]	; (837b0 <SystemCoreClockUpdate+0x10c>)
   836e4:	4b30      	ldr	r3, [pc, #192]	; (837a8 <SystemCoreClockUpdate+0x104>)
   836e6:	601a      	str	r2, [r3, #0]
   836e8:	4b2d      	ldr	r3, [pc, #180]	; (837a0 <SystemCoreClockUpdate+0xfc>)
   836ea:	6a1b      	ldr	r3, [r3, #32]
   836ec:	f003 0370 	and.w	r3, r3, #112	; 0x70
   836f0:	2b10      	cmp	r3, #16
   836f2:	d002      	beq.n	836fa <SystemCoreClockUpdate+0x56>
   836f4:	2b20      	cmp	r3, #32
   836f6:	d004      	beq.n	83702 <SystemCoreClockUpdate+0x5e>
   836f8:	e03a      	b.n	83770 <SystemCoreClockUpdate+0xcc>
   836fa:	4a2e      	ldr	r2, [pc, #184]	; (837b4 <SystemCoreClockUpdate+0x110>)
   836fc:	4b2a      	ldr	r3, [pc, #168]	; (837a8 <SystemCoreClockUpdate+0x104>)
   836fe:	601a      	str	r2, [r3, #0]
   83700:	e036      	b.n	83770 <SystemCoreClockUpdate+0xcc>
   83702:	4a2a      	ldr	r2, [pc, #168]	; (837ac <SystemCoreClockUpdate+0x108>)
   83704:	4b28      	ldr	r3, [pc, #160]	; (837a8 <SystemCoreClockUpdate+0x104>)
   83706:	601a      	str	r2, [r3, #0]
   83708:	e032      	b.n	83770 <SystemCoreClockUpdate+0xcc>
   8370a:	4b25      	ldr	r3, [pc, #148]	; (837a0 <SystemCoreClockUpdate+0xfc>)
   8370c:	6a1b      	ldr	r3, [r3, #32]
   8370e:	f013 7f80 	tst.w	r3, #16777216	; 0x1000000
   83712:	d003      	beq.n	8371c <SystemCoreClockUpdate+0x78>
   83714:	4a25      	ldr	r2, [pc, #148]	; (837ac <SystemCoreClockUpdate+0x108>)
   83716:	4b24      	ldr	r3, [pc, #144]	; (837a8 <SystemCoreClockUpdate+0x104>)
   83718:	601a      	str	r2, [r3, #0]
   8371a:	e012      	b.n	83742 <SystemCoreClockUpdate+0x9e>
   8371c:	4a24      	ldr	r2, [pc, #144]	; (837b0 <SystemCoreClockUpdate+0x10c>)
   8371e:	4b22      	ldr	r3, [pc, #136]	; (837a8 <SystemCoreClockUpdate+0x104>)
   83720:	601a      	str	r2, [r3, #0]
   83722:	4b1f      	ldr	r3, [pc, #124]	; (837a0 <SystemCoreClockUpdate+0xfc>)
   83724:	6a1b      	ldr	r3, [r3, #32]
   83726:	f003 0370 	and.w	r3, r3, #112	; 0x70
   8372a:	2b10      	cmp	r3, #16
   8372c:	d002      	beq.n	83734 <SystemCoreClockUpdate+0x90>
   8372e:	2b20      	cmp	r3, #32
   83730:	d004      	beq.n	8373c <SystemCoreClockUpdate+0x98>
   83732:	e006      	b.n	83742 <SystemCoreClockUpdate+0x9e>
   83734:	4a1f      	ldr	r2, [pc, #124]	; (837b4 <SystemCoreClockUpdate+0x110>)
   83736:	4b1c      	ldr	r3, [pc, #112]	; (837a8 <SystemCoreClockUpdate+0x104>)
   83738:	601a      	str	r2, [r3, #0]
   8373a:	e002      	b.n	83742 <SystemCoreClockUpdate+0x9e>
   8373c:	4a1b      	ldr	r2, [pc, #108]	; (837ac <SystemCoreClockUpdate+0x108>)
   8373e:	4b1a      	ldr	r3, [pc, #104]	; (837a8 <SystemCoreClockUpdate+0x104>)
   83740:	601a      	str	r2, [r3, #0]
   83742:	4b17      	ldr	r3, [pc, #92]	; (837a0 <SystemCoreClockUpdate+0xfc>)
   83744:	6b1b      	ldr	r3, [r3, #48]	; 0x30
   83746:	f003 0303 	and.w	r3, r3, #3
   8374a:	2b02      	cmp	r3, #2
   8374c:	d10d      	bne.n	8376a <SystemCoreClockUpdate+0xc6>
   8374e:	4a14      	ldr	r2, [pc, #80]	; (837a0 <SystemCoreClockUpdate+0xfc>)
   83750:	6a93      	ldr	r3, [r2, #40]	; 0x28
   83752:	6a92      	ldr	r2, [r2, #40]	; 0x28
   83754:	4814      	ldr	r0, [pc, #80]	; (837a8 <SystemCoreClockUpdate+0x104>)
   83756:	f3c3 410a 	ubfx	r1, r3, #16, #11
   8375a:	6803      	ldr	r3, [r0, #0]
   8375c:	fb01 3303 	mla	r3, r1, r3, r3
   83760:	b2d2      	uxtb	r2, r2
   83762:	fbb3 f3f2 	udiv	r3, r3, r2
   83766:	6003      	str	r3, [r0, #0]
   83768:	e002      	b.n	83770 <SystemCoreClockUpdate+0xcc>
   8376a:	4a13      	ldr	r2, [pc, #76]	; (837b8 <SystemCoreClockUpdate+0x114>)
   8376c:	4b0e      	ldr	r3, [pc, #56]	; (837a8 <SystemCoreClockUpdate+0x104>)
   8376e:	601a      	str	r2, [r3, #0]
   83770:	4b0b      	ldr	r3, [pc, #44]	; (837a0 <SystemCoreClockUpdate+0xfc>)
   83772:	6b1b      	ldr	r3, [r3, #48]	; 0x30
   83774:	f003 0370 	and.w	r3, r3, #112	; 0x70
   83778:	2b70      	cmp	r3, #112	; 0x70
   8377a:	d107      	bne.n	8378c <SystemCoreClockUpdate+0xe8>
   8377c:	4a0a      	ldr	r2, [pc, #40]	; (837a8 <SystemCoreClockUpdate+0x104>)
   8377e:	6813      	ldr	r3, [r2, #0]
   83780:	490e      	ldr	r1, [pc, #56]	; (837bc <SystemCoreClockUpdate+0x118>)
   83782:	fba1 1303 	umull	r1, r3, r1, r3
   83786:	085b      	lsrs	r3, r3, #1
   83788:	6013      	str	r3, [r2, #0]
   8378a:	4770      	bx	lr
   8378c:	4b04      	ldr	r3, [pc, #16]	; (837a0 <SystemCoreClockUpdate+0xfc>)
   8378e:	6b1a      	ldr	r2, [r3, #48]	; 0x30
   83790:	4905      	ldr	r1, [pc, #20]	; (837a8 <SystemCoreClockUpdate+0x104>)
   83792:	f3c2 1202 	ubfx	r2, r2, #4, #3
   83796:	680b      	ldr	r3, [r1, #0]
   83798:	40d3      	lsrs	r3, r2
   8379a:	600b      	str	r3, [r1, #0]
   8379c:	4770      	bx	lr
   8379e:	bf00      	nop
   837a0:	400e0600 	.word	0x400e0600
   837a4:	400e1a10 	.word	0x400e1a10
   837a8:	200701a0 	.word	0x200701a0
   837ac:	00b71b00 	.word	0x00b71b00
   837b0:	003d0900 	.word	0x003d0900
   837b4:	007a1200 	.word	0x007a1200
   837b8:	0e4e1c00 	.word	0x0e4e1c00
   837bc:	aaaaaaab 	.word	0xaaaaaaab

000837c0 <_sbrk>:
   837c0:	4b09      	ldr	r3, [pc, #36]	; (837e8 <_sbrk+0x28>)
   837c2:	681b      	ldr	r3, [r3, #0]
   837c4:	b913      	cbnz	r3, 837cc <_sbrk+0xc>
   837c6:	4a09      	ldr	r2, [pc, #36]	; (837ec <_sbrk+0x2c>)
   837c8:	4b07      	ldr	r3, [pc, #28]	; (837e8 <_sbrk+0x28>)
   837ca:	601a      	str	r2, [r3, #0]
   837cc:	4b06      	ldr	r3, [pc, #24]	; (837e8 <_sbrk+0x28>)
   837ce:	681b      	ldr	r3, [r3, #0]
   837d0:	181a      	adds	r2, r3, r0
   837d2:	4907      	ldr	r1, [pc, #28]	; (837f0 <_sbrk+0x30>)
   837d4:	4291      	cmp	r1, r2
   837d6:	db04      	blt.n	837e2 <_sbrk+0x22>
   837d8:	4610      	mov	r0, r2
   837da:	4a03      	ldr	r2, [pc, #12]	; (837e8 <_sbrk+0x28>)
   837dc:	6010      	str	r0, [r2, #0]
   837de:	4618      	mov	r0, r3
   837e0:	4770      	bx	lr
   837e2:	f04f 30ff 	mov.w	r0, #4294967295
   837e6:	4770      	bx	lr
   837e8:	2007acdc 	.word	0x2007acdc
   837ec:	2007cd78 	.word	0x2007cd78
   837f0:	20087ffc 	.word	0x20087ffc

000837f4 <_close>:
   837f4:	f04f 30ff 	mov.w	r0, #4294967295
   837f8:	4770      	bx	lr
   837fa:	bf00      	nop

000837fc <_fstat>:
   837fc:	f44f 5300 	mov.w	r3, #8192	; 0x2000
   83800:	604b      	str	r3, [r1, #4]
   83802:	2000      	movs	r0, #0
   83804:	4770      	bx	lr
   83806:	bf00      	nop

00083808 <_isatty>:
   83808:	2001      	movs	r0, #1
   8380a:	4770      	bx	lr

0008380c <_lseek>:
   8380c:	2000      	movs	r0, #0
   8380e:	4770      	bx	lr

00083810 <main>:
   83810:	b570      	push	{r4, r5, r6, lr}
   83812:	b084      	sub	sp, #16
   83814:	4b55      	ldr	r3, [pc, #340]	; (8396c <main+0x15c>)
   83816:	4798      	blx	r3
   83818:	4b55      	ldr	r3, [pc, #340]	; (83970 <main+0x160>)
   8381a:	4798      	blx	r3
   8381c:	4b55      	ldr	r3, [pc, #340]	; (83974 <main+0x164>)
   8381e:	4798      	blx	r3
   83820:	200b      	movs	r0, #11
   83822:	4c55      	ldr	r4, [pc, #340]	; (83978 <main+0x168>)
   83824:	47a0      	blx	r4
   83826:	200c      	movs	r0, #12
   83828:	47a0      	blx	r4
   8382a:	200d      	movs	r0, #13
   8382c:	47a0      	blx	r4
   8382e:	200e      	movs	r0, #14
   83830:	47a0      	blx	r4
   83832:	4b52      	ldr	r3, [pc, #328]	; (8397c <main+0x16c>)
   83834:	4798      	blx	r3
   83836:	4b52      	ldr	r3, [pc, #328]	; (83980 <main+0x170>)
   83838:	4798      	blx	r3
   8383a:	4b52      	ldr	r3, [pc, #328]	; (83984 <main+0x174>)
   8383c:	4798      	blx	r3
   8383e:	4852      	ldr	r0, [pc, #328]	; (83988 <main+0x178>)
   83840:	4b52      	ldr	r3, [pc, #328]	; (8398c <main+0x17c>)
   83842:	4798      	blx	r3
   83844:	4b52      	ldr	r3, [pc, #328]	; (83990 <main+0x180>)
   83846:	4798      	blx	r3
   83848:	2035      	movs	r0, #53	; 0x35
   8384a:	4d52      	ldr	r5, [pc, #328]	; (83994 <main+0x184>)
   8384c:	47a8      	blx	r5
   8384e:	f000 031f 	and.w	r3, r0, #31
   83852:	2401      	movs	r4, #1
   83854:	fa04 f303 	lsl.w	r3, r4, r3
   83858:	0940      	lsrs	r0, r0, #5
   8385a:	f500 1000 	add.w	r0, r0, #2097152	; 0x200000
   8385e:	f200 7007 	addw	r0, r0, #1799	; 0x707
   83862:	0240      	lsls	r0, r0, #9
   83864:	6003      	str	r3, [r0, #0]
   83866:	2034      	movs	r0, #52	; 0x34
   83868:	47a8      	blx	r5
   8386a:	f000 031f 	and.w	r3, r0, #31
   8386e:	fa04 f303 	lsl.w	r3, r4, r3
   83872:	0940      	lsrs	r0, r0, #5
   83874:	f500 1000 	add.w	r0, r0, #2097152	; 0x200000
   83878:	f200 7007 	addw	r0, r0, #1799	; 0x707
   8387c:	0240      	lsls	r0, r0, #9
   8387e:	6003      	str	r3, [r0, #0]
   83880:	201e      	movs	r0, #30
   83882:	47a8      	blx	r5
   83884:	f000 031f 	and.w	r3, r0, #31
   83888:	fa04 f303 	lsl.w	r3, r4, r3
   8388c:	0940      	lsrs	r0, r0, #5
   8388e:	f500 1000 	add.w	r0, r0, #2097152	; 0x200000
   83892:	f200 7007 	addw	r0, r0, #1799	; 0x707
   83896:	0240      	lsls	r0, r0, #9
   83898:	6003      	str	r3, [r0, #0]
   8389a:	2005      	movs	r0, #5
   8389c:	47a8      	blx	r5
   8389e:	f000 031f 	and.w	r3, r0, #31
   838a2:	fa04 f303 	lsl.w	r3, r4, r3
   838a6:	0940      	lsrs	r0, r0, #5
   838a8:	f500 1000 	add.w	r0, r0, #2097152	; 0x200000
   838ac:	f200 7007 	addw	r0, r0, #1799	; 0x707
   838b0:	0240      	lsls	r0, r0, #9
   838b2:	6003      	str	r3, [r0, #0]
   838b4:	2035      	movs	r0, #53	; 0x35
   838b6:	47a8      	blx	r5
   838b8:	0943      	lsrs	r3, r0, #5
   838ba:	f503 1300 	add.w	r3, r3, #2097152	; 0x200000
   838be:	f203 7307 	addw	r3, r3, #1799	; 0x707
   838c2:	025b      	lsls	r3, r3, #9
   838c4:	f000 001f 	and.w	r0, r0, #31
   838c8:	fa04 f200 	lsl.w	r2, r4, r0
   838cc:	611a      	str	r2, [r3, #16]
   838ce:	f8c3 20a0 	str.w	r2, [r3, #160]	; 0xa0
   838d2:	2034      	movs	r0, #52	; 0x34
   838d4:	47a8      	blx	r5
   838d6:	0943      	lsrs	r3, r0, #5
   838d8:	f503 1300 	add.w	r3, r3, #2097152	; 0x200000
   838dc:	f203 7307 	addw	r3, r3, #1799	; 0x707
   838e0:	025b      	lsls	r3, r3, #9
   838e2:	f000 001f 	and.w	r0, r0, #31
   838e6:	fa04 f200 	lsl.w	r2, r4, r0
   838ea:	611a      	str	r2, [r3, #16]
   838ec:	f8c3 20a0 	str.w	r2, [r3, #160]	; 0xa0
   838f0:	2005      	movs	r0, #5
   838f2:	47a8      	blx	r5
   838f4:	0943      	lsrs	r3, r0, #5
   838f6:	f503 1300 	add.w	r3, r3, #2097152	; 0x200000
   838fa:	f203 7307 	addw	r3, r3, #1799	; 0x707
   838fe:	025b      	lsls	r3, r3, #9
   83900:	f000 001f 	and.w	r0, r0, #31
   83904:	fa04 f200 	lsl.w	r2, r4, r0
   83908:	615a      	str	r2, [r3, #20]
   8390a:	f8c3 20a0 	str.w	r2, [r3, #160]	; 0xa0
   8390e:	4d22      	ldr	r5, [pc, #136]	; (83998 <main+0x188>)
   83910:	4628      	mov	r0, r5
   83912:	f04f 7100 	mov.w	r1, #33554432	; 0x2000000
   83916:	4622      	mov	r2, r4
   83918:	4b20      	ldr	r3, [pc, #128]	; (8399c <main+0x18c>)
   8391a:	4798      	blx	r3
   8391c:	6e6b      	ldr	r3, [r5, #100]	; 0x64
   8391e:	f043 7300 	orr.w	r3, r3, #33554432	; 0x2000000
   83922:	666b      	str	r3, [r5, #100]	; 0x64
   83924:	4620      	mov	r0, r4
   83926:	2110      	movs	r1, #16
   83928:	2200      	movs	r2, #0
   8392a:	4b1d      	ldr	r3, [pc, #116]	; (839a0 <main+0x190>)
   8392c:	4798      	blx	r3
   8392e:	4b1d      	ldr	r3, [pc, #116]	; (839a4 <main+0x194>)
   83930:	6018      	str	r0, [r3, #0]
   83932:	2602      	movs	r6, #2
   83934:	9600      	str	r6, [sp, #0]
   83936:	2400      	movs	r4, #0
   83938:	9401      	str	r4, [sp, #4]
   8393a:	9402      	str	r4, [sp, #8]
   8393c:	9403      	str	r4, [sp, #12]
   8393e:	481a      	ldr	r0, [pc, #104]	; (839a8 <main+0x198>)
   83940:	491a      	ldr	r1, [pc, #104]	; (839ac <main+0x19c>)
   83942:	f44f 7200 	mov.w	r2, #512	; 0x200
   83946:	4623      	mov	r3, r4
   83948:	4d19      	ldr	r5, [pc, #100]	; (839b0 <main+0x1a0>)
   8394a:	47a8      	blx	r5
   8394c:	9600      	str	r6, [sp, #0]
   8394e:	9401      	str	r4, [sp, #4]
   83950:	9402      	str	r4, [sp, #8]
   83952:	9403      	str	r4, [sp, #12]
   83954:	4817      	ldr	r0, [pc, #92]	; (839b4 <main+0x1a4>)
   83956:	4918      	ldr	r1, [pc, #96]	; (839b8 <main+0x1a8>)
   83958:	f44f 7200 	mov.w	r2, #512	; 0x200
   8395c:	4623      	mov	r3, r4
   8395e:	47a8      	blx	r5
   83960:	4b16      	ldr	r3, [pc, #88]	; (839bc <main+0x1ac>)
   83962:	4798      	blx	r3
   83964:	4620      	mov	r0, r4
   83966:	b004      	add	sp, #16
   83968:	bd70      	pop	{r4, r5, r6, pc}
   8396a:	bf00      	nop
   8396c:	0008304d 	.word	0x0008304d
   83970:	000830b1 	.word	0x000830b1
   83974:	00080151 	.word	0x00080151
   83978:	0008359d 	.word	0x0008359d
   8397c:	00082e61 	.word	0x00082e61
   83980:	00082001 	.word	0x00082001
   83984:	00081ee5 	.word	0x00081ee5
   83988:	40090000 	.word	0x40090000
   8398c:	000803d5 	.word	0x000803d5
   83990:	00080299 	.word	0x00080299
   83994:	00082c85 	.word	0x00082c85
   83998:	400e1200 	.word	0x400e1200
   8399c:	00083199 	.word	0x00083199
   839a0:	00080d3d 	.word	0x00080d3d
   839a4:	2007ad68 	.word	0x2007ad68
   839a8:	000823b9 	.word	0x000823b9
   839ac:	00087dd4 	.word	0x00087dd4
   839b0:	00081145 	.word	0x00081145
   839b4:	00082545 	.word	0x00082545
   839b8:	00087de0 	.word	0x00087de0
   839bc:	00081349 	.word	0x00081349

000839c0 <atan>:
   839c0:	e92d 4ff8 	stmdb	sp!, {r3, r4, r5, r6, r7, r8, r9, sl, fp, lr}
   839c4:	4bbe      	ldr	r3, [pc, #760]	; (83cc0 <atan+0x300>)
   839c6:	f021 4600 	bic.w	r6, r1, #2147483648	; 0x80000000
   839ca:	429e      	cmp	r6, r3
   839cc:	460d      	mov	r5, r1
   839ce:	468a      	mov	sl, r1
   839d0:	4604      	mov	r4, r0
   839d2:	dd0f      	ble.n	839f4 <atan+0x34>
   839d4:	4bbb      	ldr	r3, [pc, #748]	; (83cc4 <atan+0x304>)
   839d6:	429e      	cmp	r6, r3
   839d8:	f300 80b0 	bgt.w	83b3c <atan+0x17c>
   839dc:	f000 80ab 	beq.w	83b36 <atan+0x176>
   839e0:	4bb9      	ldr	r3, [pc, #740]	; (83cc8 <atan+0x308>)
   839e2:	49ba      	ldr	r1, [pc, #744]	; (83ccc <atan+0x30c>)
   839e4:	4cba      	ldr	r4, [pc, #744]	; (83cd0 <atan+0x310>)
   839e6:	f1ba 0f00 	cmp.w	sl, #0
   839ea:	bfc8      	it	gt
   839ec:	4619      	movgt	r1, r3
   839ee:	4620      	mov	r0, r4
   839f0:	e8bd 8ff8 	ldmia.w	sp!, {r3, r4, r5, r6, r7, r8, r9, sl, fp, pc}
   839f4:	4bb7      	ldr	r3, [pc, #732]	; (83cd4 <atan+0x314>)
   839f6:	429e      	cmp	r6, r3
   839f8:	f300 80ba 	bgt.w	83b70 <atan+0x1b0>
   839fc:	f1a3 73de 	sub.w	r3, r3, #29097984	; 0x1bc0000
   83a00:	429e      	cmp	r6, r3
   83a02:	f340 80a5 	ble.w	83b50 <atan+0x190>
   83a06:	f04f 3bff 	mov.w	fp, #4294967295
   83a0a:	4622      	mov	r2, r4
   83a0c:	462b      	mov	r3, r5
   83a0e:	4620      	mov	r0, r4
   83a10:	4629      	mov	r1, r5
   83a12:	f000 fc75 	bl	84300 <__aeabi_dmul>
   83a16:	4602      	mov	r2, r0
   83a18:	460b      	mov	r3, r1
   83a1a:	4680      	mov	r8, r0
   83a1c:	4689      	mov	r9, r1
   83a1e:	f000 fc6f 	bl	84300 <__aeabi_dmul>
   83a22:	a38f      	add	r3, pc, #572	; (adr r3, 83c60 <atan+0x2a0>)
   83a24:	e9d3 2300 	ldrd	r2, r3, [r3]
   83a28:	4606      	mov	r6, r0
   83a2a:	460f      	mov	r7, r1
   83a2c:	f000 fc68 	bl	84300 <__aeabi_dmul>
   83a30:	a38d      	add	r3, pc, #564	; (adr r3, 83c68 <atan+0x2a8>)
   83a32:	e9d3 2300 	ldrd	r2, r3, [r3]
   83a36:	f000 fab1 	bl	83f9c <__adddf3>
   83a3a:	4632      	mov	r2, r6
   83a3c:	463b      	mov	r3, r7
   83a3e:	f000 fc5f 	bl	84300 <__aeabi_dmul>
   83a42:	a38b      	add	r3, pc, #556	; (adr r3, 83c70 <atan+0x2b0>)
   83a44:	e9d3 2300 	ldrd	r2, r3, [r3]
   83a48:	f000 faa8 	bl	83f9c <__adddf3>
   83a4c:	4632      	mov	r2, r6
   83a4e:	463b      	mov	r3, r7
   83a50:	f000 fc56 	bl	84300 <__aeabi_dmul>
   83a54:	a388      	add	r3, pc, #544	; (adr r3, 83c78 <atan+0x2b8>)
   83a56:	e9d3 2300 	ldrd	r2, r3, [r3]
   83a5a:	f000 fa9f 	bl	83f9c <__adddf3>
   83a5e:	4632      	mov	r2, r6
   83a60:	463b      	mov	r3, r7
   83a62:	f000 fc4d 	bl	84300 <__aeabi_dmul>
   83a66:	a386      	add	r3, pc, #536	; (adr r3, 83c80 <atan+0x2c0>)
   83a68:	e9d3 2300 	ldrd	r2, r3, [r3]
   83a6c:	f000 fa96 	bl	83f9c <__adddf3>
   83a70:	4632      	mov	r2, r6
   83a72:	463b      	mov	r3, r7
   83a74:	f000 fc44 	bl	84300 <__aeabi_dmul>
   83a78:	a383      	add	r3, pc, #524	; (adr r3, 83c88 <atan+0x2c8>)
   83a7a:	e9d3 2300 	ldrd	r2, r3, [r3]
   83a7e:	f000 fa8d 	bl	83f9c <__adddf3>
   83a82:	4642      	mov	r2, r8
   83a84:	464b      	mov	r3, r9
   83a86:	f000 fc3b 	bl	84300 <__aeabi_dmul>
   83a8a:	a381      	add	r3, pc, #516	; (adr r3, 83c90 <atan+0x2d0>)
   83a8c:	e9d3 2300 	ldrd	r2, r3, [r3]
   83a90:	4680      	mov	r8, r0
   83a92:	4689      	mov	r9, r1
   83a94:	4630      	mov	r0, r6
   83a96:	4639      	mov	r1, r7
   83a98:	f000 fc32 	bl	84300 <__aeabi_dmul>
   83a9c:	a37e      	add	r3, pc, #504	; (adr r3, 83c98 <atan+0x2d8>)
   83a9e:	e9d3 2300 	ldrd	r2, r3, [r3]
   83aa2:	f000 fa79 	bl	83f98 <__aeabi_dsub>
   83aa6:	4632      	mov	r2, r6
   83aa8:	463b      	mov	r3, r7
   83aaa:	f000 fc29 	bl	84300 <__aeabi_dmul>
   83aae:	a37c      	add	r3, pc, #496	; (adr r3, 83ca0 <atan+0x2e0>)
   83ab0:	e9d3 2300 	ldrd	r2, r3, [r3]
   83ab4:	f000 fa70 	bl	83f98 <__aeabi_dsub>
   83ab8:	4632      	mov	r2, r6
   83aba:	463b      	mov	r3, r7
   83abc:	f000 fc20 	bl	84300 <__aeabi_dmul>
   83ac0:	a379      	add	r3, pc, #484	; (adr r3, 83ca8 <atan+0x2e8>)
   83ac2:	e9d3 2300 	ldrd	r2, r3, [r3]
   83ac6:	f000 fa67 	bl	83f98 <__aeabi_dsub>
   83aca:	4632      	mov	r2, r6
   83acc:	463b      	mov	r3, r7
   83ace:	f000 fc17 	bl	84300 <__aeabi_dmul>
   83ad2:	a377      	add	r3, pc, #476	; (adr r3, 83cb0 <atan+0x2f0>)
   83ad4:	e9d3 2300 	ldrd	r2, r3, [r3]
   83ad8:	f000 fa5e 	bl	83f98 <__aeabi_dsub>
   83adc:	4632      	mov	r2, r6
   83ade:	463b      	mov	r3, r7
   83ae0:	f000 fc0e 	bl	84300 <__aeabi_dmul>
   83ae4:	f1bb 3fff 	cmp.w	fp, #4294967295
   83ae8:	4602      	mov	r2, r0
   83aea:	460b      	mov	r3, r1
   83aec:	d067      	beq.n	83bbe <atan+0x1fe>
   83aee:	4640      	mov	r0, r8
   83af0:	4649      	mov	r1, r9
   83af2:	f000 fa53 	bl	83f9c <__adddf3>
   83af6:	4622      	mov	r2, r4
   83af8:	462b      	mov	r3, r5
   83afa:	f000 fc01 	bl	84300 <__aeabi_dmul>
   83afe:	4e76      	ldr	r6, [pc, #472]	; (83cd8 <atan+0x318>)
   83b00:	4b76      	ldr	r3, [pc, #472]	; (83cdc <atan+0x31c>)
   83b02:	ea4f 0bcb 	mov.w	fp, fp, lsl #3
   83b06:	445e      	add	r6, fp
   83b08:	449b      	add	fp, r3
   83b0a:	e9db 2300 	ldrd	r2, r3, [fp]
   83b0e:	f000 fa43 	bl	83f98 <__aeabi_dsub>
   83b12:	4622      	mov	r2, r4
   83b14:	462b      	mov	r3, r5
   83b16:	f000 fa3f 	bl	83f98 <__aeabi_dsub>
   83b1a:	4602      	mov	r2, r0
   83b1c:	460b      	mov	r3, r1
   83b1e:	e9d6 0100 	ldrd	r0, r1, [r6]
   83b22:	f000 fa39 	bl	83f98 <__aeabi_dsub>
   83b26:	f1ba 0f00 	cmp.w	sl, #0
   83b2a:	4604      	mov	r4, r0
   83b2c:	f6bf af5f 	bge.w	839ee <atan+0x2e>
   83b30:	f101 4100 	add.w	r1, r1, #2147483648	; 0x80000000
   83b34:	e75b      	b.n	839ee <atan+0x2e>
   83b36:	2800      	cmp	r0, #0
   83b38:	f43f af52 	beq.w	839e0 <atan+0x20>
   83b3c:	4622      	mov	r2, r4
   83b3e:	4620      	mov	r0, r4
   83b40:	4629      	mov	r1, r5
   83b42:	462b      	mov	r3, r5
   83b44:	f000 fa2a 	bl	83f9c <__adddf3>
   83b48:	4604      	mov	r4, r0
   83b4a:	4620      	mov	r0, r4
   83b4c:	e8bd 8ff8 	ldmia.w	sp!, {r3, r4, r5, r6, r7, r8, r9, sl, fp, pc}
   83b50:	a359      	add	r3, pc, #356	; (adr r3, 83cb8 <atan+0x2f8>)
   83b52:	e9d3 2300 	ldrd	r2, r3, [r3]
   83b56:	f000 fa21 	bl	83f9c <__adddf3>
   83b5a:	2200      	movs	r2, #0
   83b5c:	4b60      	ldr	r3, [pc, #384]	; (83ce0 <atan+0x320>)
   83b5e:	f000 fe5f 	bl	84820 <__aeabi_dcmpgt>
   83b62:	2800      	cmp	r0, #0
   83b64:	f43f af4f 	beq.w	83a06 <atan+0x46>
   83b68:	4629      	mov	r1, r5
   83b6a:	4620      	mov	r0, r4
   83b6c:	e8bd 8ff8 	ldmia.w	sp!, {r3, r4, r5, r6, r7, r8, r9, sl, fp, pc}
   83b70:	f000 f8c0 	bl	83cf4 <fabs>
   83b74:	4b5b      	ldr	r3, [pc, #364]	; (83ce4 <atan+0x324>)
   83b76:	4604      	mov	r4, r0
   83b78:	429e      	cmp	r6, r3
   83b7a:	460d      	mov	r5, r1
   83b7c:	dc2f      	bgt.n	83bde <atan+0x21e>
   83b7e:	f5a3 2350 	sub.w	r3, r3, #851968	; 0xd0000
   83b82:	429e      	cmp	r6, r3
   83b84:	dc54      	bgt.n	83c30 <atan+0x270>
   83b86:	4602      	mov	r2, r0
   83b88:	460b      	mov	r3, r1
   83b8a:	f000 fa07 	bl	83f9c <__adddf3>
   83b8e:	2200      	movs	r2, #0
   83b90:	4b53      	ldr	r3, [pc, #332]	; (83ce0 <atan+0x320>)
   83b92:	f000 fa01 	bl	83f98 <__aeabi_dsub>
   83b96:	2200      	movs	r2, #0
   83b98:	4606      	mov	r6, r0
   83b9a:	460f      	mov	r7, r1
   83b9c:	4620      	mov	r0, r4
   83b9e:	4629      	mov	r1, r5
   83ba0:	f04f 4380 	mov.w	r3, #1073741824	; 0x40000000
   83ba4:	f000 f9fa 	bl	83f9c <__adddf3>
   83ba8:	4602      	mov	r2, r0
   83baa:	460b      	mov	r3, r1
   83bac:	4630      	mov	r0, r6
   83bae:	4639      	mov	r1, r7
   83bb0:	f000 fcd0 	bl	84554 <__aeabi_ddiv>
   83bb4:	f04f 0b00 	mov.w	fp, #0
   83bb8:	4604      	mov	r4, r0
   83bba:	460d      	mov	r5, r1
   83bbc:	e725      	b.n	83a0a <atan+0x4a>
   83bbe:	4640      	mov	r0, r8
   83bc0:	4649      	mov	r1, r9
   83bc2:	f000 f9eb 	bl	83f9c <__adddf3>
   83bc6:	4622      	mov	r2, r4
   83bc8:	462b      	mov	r3, r5
   83bca:	f000 fb99 	bl	84300 <__aeabi_dmul>
   83bce:	4602      	mov	r2, r0
   83bd0:	460b      	mov	r3, r1
   83bd2:	4620      	mov	r0, r4
   83bd4:	4629      	mov	r1, r5
   83bd6:	f000 f9df 	bl	83f98 <__aeabi_dsub>
   83bda:	4604      	mov	r4, r0
   83bdc:	e707      	b.n	839ee <atan+0x2e>
   83bde:	4b42      	ldr	r3, [pc, #264]	; (83ce8 <atan+0x328>)
   83be0:	429e      	cmp	r6, r3
   83be2:	dc1a      	bgt.n	83c1a <atan+0x25a>
   83be4:	2200      	movs	r2, #0
   83be6:	4b41      	ldr	r3, [pc, #260]	; (83cec <atan+0x32c>)
   83be8:	f000 f9d6 	bl	83f98 <__aeabi_dsub>
   83bec:	2200      	movs	r2, #0
   83bee:	4606      	mov	r6, r0
   83bf0:	460f      	mov	r7, r1
   83bf2:	4620      	mov	r0, r4
   83bf4:	4629      	mov	r1, r5
   83bf6:	4b3d      	ldr	r3, [pc, #244]	; (83cec <atan+0x32c>)
   83bf8:	f000 fb82 	bl	84300 <__aeabi_dmul>
   83bfc:	2200      	movs	r2, #0
   83bfe:	4b38      	ldr	r3, [pc, #224]	; (83ce0 <atan+0x320>)
   83c00:	f000 f9cc 	bl	83f9c <__adddf3>
   83c04:	4602      	mov	r2, r0
   83c06:	460b      	mov	r3, r1
   83c08:	4630      	mov	r0, r6
   83c0a:	4639      	mov	r1, r7
   83c0c:	f000 fca2 	bl	84554 <__aeabi_ddiv>
   83c10:	f04f 0b02 	mov.w	fp, #2
   83c14:	4604      	mov	r4, r0
   83c16:	460d      	mov	r5, r1
   83c18:	e6f7      	b.n	83a0a <atan+0x4a>
   83c1a:	4602      	mov	r2, r0
   83c1c:	460b      	mov	r3, r1
   83c1e:	2000      	movs	r0, #0
   83c20:	4933      	ldr	r1, [pc, #204]	; (83cf0 <atan+0x330>)
   83c22:	f000 fc97 	bl	84554 <__aeabi_ddiv>
   83c26:	f04f 0b03 	mov.w	fp, #3
   83c2a:	4604      	mov	r4, r0
   83c2c:	460d      	mov	r5, r1
   83c2e:	e6ec      	b.n	83a0a <atan+0x4a>
   83c30:	2200      	movs	r2, #0
   83c32:	4b2b      	ldr	r3, [pc, #172]	; (83ce0 <atan+0x320>)
   83c34:	f000 f9b0 	bl	83f98 <__aeabi_dsub>
   83c38:	2200      	movs	r2, #0
   83c3a:	4606      	mov	r6, r0
   83c3c:	460f      	mov	r7, r1
   83c3e:	4620      	mov	r0, r4
   83c40:	4629      	mov	r1, r5
   83c42:	4b27      	ldr	r3, [pc, #156]	; (83ce0 <atan+0x320>)
   83c44:	f000 f9aa 	bl	83f9c <__adddf3>
   83c48:	4602      	mov	r2, r0
   83c4a:	460b      	mov	r3, r1
   83c4c:	4630      	mov	r0, r6
   83c4e:	4639      	mov	r1, r7
   83c50:	f000 fc80 	bl	84554 <__aeabi_ddiv>
   83c54:	f04f 0b01 	mov.w	fp, #1
   83c58:	4604      	mov	r4, r0
   83c5a:	460d      	mov	r5, r1
   83c5c:	e6d5      	b.n	83a0a <atan+0x4a>
   83c5e:	bf00      	nop
   83c60:	e322da11 	.word	0xe322da11
   83c64:	3f90ad3a 	.word	0x3f90ad3a
   83c68:	24760deb 	.word	0x24760deb
   83c6c:	3fa97b4b 	.word	0x3fa97b4b
   83c70:	a0d03d51 	.word	0xa0d03d51
   83c74:	3fb10d66 	.word	0x3fb10d66
   83c78:	c54c206e 	.word	0xc54c206e
   83c7c:	3fb745cd 	.word	0x3fb745cd
   83c80:	920083ff 	.word	0x920083ff
   83c84:	3fc24924 	.word	0x3fc24924
   83c88:	5555550d 	.word	0x5555550d
   83c8c:	3fd55555 	.word	0x3fd55555
   83c90:	2c6a6c2f 	.word	0x2c6a6c2f
   83c94:	bfa2b444 	.word	0xbfa2b444
   83c98:	52defd9a 	.word	0x52defd9a
   83c9c:	3fadde2d 	.word	0x3fadde2d
   83ca0:	af749a6d 	.word	0xaf749a6d
   83ca4:	3fb3b0f2 	.word	0x3fb3b0f2
   83ca8:	fe231671 	.word	0xfe231671
   83cac:	3fbc71c6 	.word	0x3fbc71c6
   83cb0:	9998ebc4 	.word	0x9998ebc4
   83cb4:	3fc99999 	.word	0x3fc99999
   83cb8:	8800759c 	.word	0x8800759c
   83cbc:	7e37e43c 	.word	0x7e37e43c
   83cc0:	440fffff 	.word	0x440fffff
   83cc4:	7ff00000 	.word	0x7ff00000
   83cc8:	3ff921fb 	.word	0x3ff921fb
   83ccc:	bff921fb 	.word	0xbff921fb
   83cd0:	54442d18 	.word	0x54442d18
   83cd4:	3fdbffff 	.word	0x3fdbffff
   83cd8:	00087e10 	.word	0x00087e10
   83cdc:	00087df0 	.word	0x00087df0
   83ce0:	3ff00000 	.word	0x3ff00000
   83ce4:	3ff2ffff 	.word	0x3ff2ffff
   83ce8:	40037fff 	.word	0x40037fff
   83cec:	3ff80000 	.word	0x3ff80000
   83cf0:	bff00000 	.word	0xbff00000

00083cf4 <fabs>:
   83cf4:	f021 4100 	bic.w	r1, r1, #2147483648	; 0x80000000
   83cf8:	4770      	bx	lr
   83cfa:	bf00      	nop

00083cfc <sqrt>:
   83cfc:	e92d 47f0 	stmdb	sp!, {r4, r5, r6, r7, r8, r9, sl, lr}
   83d00:	b08a      	sub	sp, #40	; 0x28
   83d02:	4606      	mov	r6, r0
   83d04:	460f      	mov	r7, r1
   83d06:	f000 f84f 	bl	83da8 <__ieee754_sqrt>
   83d0a:	f8df a098 	ldr.w	sl, [pc, #152]	; 83da4 <sqrt+0xa8>
   83d0e:	4604      	mov	r4, r0
   83d10:	f99a 3000 	ldrsb.w	r3, [sl]
   83d14:	460d      	mov	r5, r1
   83d16:	3301      	adds	r3, #1
   83d18:	d00f      	beq.n	83d3a <sqrt+0x3e>
   83d1a:	4630      	mov	r0, r6
   83d1c:	4639      	mov	r1, r7
   83d1e:	f000 f909 	bl	83f34 <__fpclassifyd>
   83d22:	b150      	cbz	r0, 83d3a <sqrt+0x3e>
   83d24:	f04f 0800 	mov.w	r8, #0
   83d28:	f04f 0900 	mov.w	r9, #0
   83d2c:	4630      	mov	r0, r6
   83d2e:	4639      	mov	r1, r7
   83d30:	4642      	mov	r2, r8
   83d32:	464b      	mov	r3, r9
   83d34:	f000 fd56 	bl	847e4 <__aeabi_dcmplt>
   83d38:	b920      	cbnz	r0, 83d44 <sqrt+0x48>
   83d3a:	4620      	mov	r0, r4
   83d3c:	4629      	mov	r1, r5
   83d3e:	b00a      	add	sp, #40	; 0x28
   83d40:	e8bd 87f0 	ldmia.w	sp!, {r4, r5, r6, r7, r8, r9, sl, pc}
   83d44:	4916      	ldr	r1, [pc, #88]	; (83da0 <sqrt+0xa4>)
   83d46:	f89a 4000 	ldrb.w	r4, [sl]
   83d4a:	2201      	movs	r2, #1
   83d4c:	2300      	movs	r3, #0
   83d4e:	e9cd 6704 	strd	r6, r7, [sp, #16]
   83d52:	e9cd 6702 	strd	r6, r7, [sp, #8]
   83d56:	9101      	str	r1, [sp, #4]
   83d58:	9200      	str	r2, [sp, #0]
   83d5a:	9308      	str	r3, [sp, #32]
   83d5c:	b964      	cbnz	r4, 83d78 <sqrt+0x7c>
   83d5e:	e9cd 8906 	strd	r8, r9, [sp, #24]
   83d62:	4668      	mov	r0, sp
   83d64:	f000 f912 	bl	83f8c <matherr>
   83d68:	b180      	cbz	r0, 83d8c <sqrt+0x90>
   83d6a:	9b08      	ldr	r3, [sp, #32]
   83d6c:	b99b      	cbnz	r3, 83d96 <sqrt+0x9a>
   83d6e:	e9dd 0106 	ldrd	r0, r1, [sp, #24]
   83d72:	b00a      	add	sp, #40	; 0x28
   83d74:	e8bd 87f0 	ldmia.w	sp!, {r4, r5, r6, r7, r8, r9, sl, pc}
   83d78:	4640      	mov	r0, r8
   83d7a:	4649      	mov	r1, r9
   83d7c:	4642      	mov	r2, r8
   83d7e:	464b      	mov	r3, r9
   83d80:	f000 fbe8 	bl	84554 <__aeabi_ddiv>
   83d84:	2c02      	cmp	r4, #2
   83d86:	e9cd 0106 	strd	r0, r1, [sp, #24]
   83d8a:	d1ea      	bne.n	83d62 <sqrt+0x66>
   83d8c:	f000 ff1e 	bl	84bcc <__errno>
   83d90:	2321      	movs	r3, #33	; 0x21
   83d92:	6003      	str	r3, [r0, #0]
   83d94:	e7e9      	b.n	83d6a <sqrt+0x6e>
   83d96:	f000 ff19 	bl	84bcc <__errno>
   83d9a:	9b08      	ldr	r3, [sp, #32]
   83d9c:	6003      	str	r3, [r0, #0]
   83d9e:	e7e6      	b.n	83d6e <sqrt+0x72>
   83da0:	00087e30 	.word	0x00087e30
   83da4:	200701a4 	.word	0x200701a4

00083da8 <__ieee754_sqrt>:
   83da8:	e92d 41f0 	stmdb	sp!, {r4, r5, r6, r7, r8, lr}
   83dac:	4e60      	ldr	r6, [pc, #384]	; (83f30 <__ieee754_sqrt+0x188>)
   83dae:	460c      	mov	r4, r1
   83db0:	46b6      	mov	lr, r6
   83db2:	400e      	ands	r6, r1
   83db4:	4576      	cmp	r6, lr
   83db6:	4605      	mov	r5, r0
   83db8:	460b      	mov	r3, r1
   83dba:	f000 8098 	beq.w	83eee <__ieee754_sqrt+0x146>
   83dbe:	2900      	cmp	r1, #0
   83dc0:	4602      	mov	r2, r0
   83dc2:	dd76      	ble.n	83eb2 <__ieee754_sqrt+0x10a>
   83dc4:	ea5f 5e21 	movs.w	lr, r1, asr #20
   83dc8:	f000 8081 	beq.w	83ece <__ieee754_sqrt+0x126>
   83dcc:	f2ae 3eff 	subw	lr, lr, #1023	; 0x3ff
   83dd0:	f3c3 0313 	ubfx	r3, r3, #0, #20
   83dd4:	f01e 0f01 	tst.w	lr, #1
   83dd8:	f443 1380 	orr.w	r3, r3, #1048576	; 0x100000
   83ddc:	d15e      	bne.n	83e9c <__ieee754_sqrt+0xf4>
   83dde:	2700      	movs	r7, #0
   83de0:	463c      	mov	r4, r7
   83de2:	0fd1      	lsrs	r1, r2, #31
   83de4:	eb01 0343 	add.w	r3, r1, r3, lsl #1
   83de8:	ea4f 0e6e 	mov.w	lr, lr, asr #1
   83dec:	0052      	lsls	r2, r2, #1
   83dee:	2016      	movs	r0, #22
   83df0:	f44f 1100 	mov.w	r1, #2097152	; 0x200000
   83df4:	1865      	adds	r5, r4, r1
   83df6:	429d      	cmp	r5, r3
   83df8:	ea4f 76d2 	mov.w	r6, r2, lsr #31
   83dfc:	ea4f 0242 	mov.w	r2, r2, lsl #1
   83e00:	dc02      	bgt.n	83e08 <__ieee754_sqrt+0x60>
   83e02:	1b5b      	subs	r3, r3, r5
   83e04:	186c      	adds	r4, r5, r1
   83e06:	440f      	add	r7, r1
   83e08:	3801      	subs	r0, #1
   83e0a:	eb06 0343 	add.w	r3, r6, r3, lsl #1
   83e0e:	ea4f 0151 	mov.w	r1, r1, lsr #1
   83e12:	d1ef      	bne.n	83df4 <__ieee754_sqrt+0x4c>
   83e14:	4684      	mov	ip, r0
   83e16:	2620      	movs	r6, #32
   83e18:	f04f 4100 	mov.w	r1, #2147483648	; 0x80000000
   83e1c:	e00a      	b.n	83e34 <__ieee754_sqrt+0x8c>
   83e1e:	42a3      	cmp	r3, r4
   83e20:	d020      	beq.n	83e64 <__ieee754_sqrt+0xbc>
   83e22:	0fd5      	lsrs	r5, r2, #31
   83e24:	3e01      	subs	r6, #1
   83e26:	ea4f 0151 	mov.w	r1, r1, lsr #1
   83e2a:	eb05 0343 	add.w	r3, r5, r3, lsl #1
   83e2e:	ea4f 0242 	mov.w	r2, r2, lsl #1
   83e32:	d020      	beq.n	83e76 <__ieee754_sqrt+0xce>
   83e34:	429c      	cmp	r4, r3
   83e36:	eb0c 0501 	add.w	r5, ip, r1
   83e3a:	daf0      	bge.n	83e1e <__ieee754_sqrt+0x76>
   83e3c:	2d00      	cmp	r5, #0
   83e3e:	eb05 0c01 	add.w	ip, r5, r1
   83e42:	db09      	blt.n	83e58 <__ieee754_sqrt+0xb0>
   83e44:	46a0      	mov	r8, r4
   83e46:	1b1b      	subs	r3, r3, r4
   83e48:	4295      	cmp	r5, r2
   83e4a:	bf88      	it	hi
   83e4c:	f103 33ff 	addhi.w	r3, r3, #4294967295
   83e50:	4644      	mov	r4, r8
   83e52:	1b52      	subs	r2, r2, r5
   83e54:	4408      	add	r0, r1
   83e56:	e7e4      	b.n	83e22 <__ieee754_sqrt+0x7a>
   83e58:	f1bc 0f00 	cmp.w	ip, #0
   83e5c:	dbf2      	blt.n	83e44 <__ieee754_sqrt+0x9c>
   83e5e:	f104 0801 	add.w	r8, r4, #1
   83e62:	e7f0      	b.n	83e46 <__ieee754_sqrt+0x9e>
   83e64:	4295      	cmp	r5, r2
   83e66:	d817      	bhi.n	83e98 <__ieee754_sqrt+0xf0>
   83e68:	2d00      	cmp	r5, #0
   83e6a:	eb05 0c01 	add.w	ip, r5, r1
   83e6e:	db48      	blt.n	83f02 <__ieee754_sqrt+0x15a>
   83e70:	4698      	mov	r8, r3
   83e72:	2300      	movs	r3, #0
   83e74:	e7ec      	b.n	83e50 <__ieee754_sqrt+0xa8>
   83e76:	4313      	orrs	r3, r2
   83e78:	d115      	bne.n	83ea6 <__ieee754_sqrt+0xfe>
   83e7a:	0840      	lsrs	r0, r0, #1
   83e7c:	107b      	asrs	r3, r7, #1
   83e7e:	f103 537f 	add.w	r3, r3, #1069547520	; 0x3fc00000
   83e82:	f503 1300 	add.w	r3, r3, #2097152	; 0x200000
   83e86:	07fa      	lsls	r2, r7, #31
   83e88:	eb03 570e 	add.w	r7, r3, lr, lsl #20
   83e8c:	4639      	mov	r1, r7
   83e8e:	bf48      	it	mi
   83e90:	f040 4000 	orrmi.w	r0, r0, #2147483648	; 0x80000000
   83e94:	e8bd 81f0 	ldmia.w	sp!, {r4, r5, r6, r7, r8, pc}
   83e98:	461c      	mov	r4, r3
   83e9a:	e7c2      	b.n	83e22 <__ieee754_sqrt+0x7a>
   83e9c:	0fd1      	lsrs	r1, r2, #31
   83e9e:	eb01 0343 	add.w	r3, r1, r3, lsl #1
   83ea2:	0052      	lsls	r2, r2, #1
   83ea4:	e79b      	b.n	83dde <__ieee754_sqrt+0x36>
   83ea6:	1c41      	adds	r1, r0, #1
   83ea8:	d031      	beq.n	83f0e <__ieee754_sqrt+0x166>
   83eaa:	f000 0301 	and.w	r3, r0, #1
   83eae:	4418      	add	r0, r3
   83eb0:	e7e3      	b.n	83e7a <__ieee754_sqrt+0xd2>
   83eb2:	f021 4600 	bic.w	r6, r1, #2147483648	; 0x80000000
   83eb6:	4306      	orrs	r6, r0
   83eb8:	d0ec      	beq.n	83e94 <__ieee754_sqrt+0xec>
   83eba:	bb79      	cbnz	r1, 83f1c <__ieee754_sqrt+0x174>
   83ebc:	468e      	mov	lr, r1
   83ebe:	0ad3      	lsrs	r3, r2, #11
   83ec0:	f1ae 0e15 	sub.w	lr, lr, #21
   83ec4:	0552      	lsls	r2, r2, #21
   83ec6:	2b00      	cmp	r3, #0
   83ec8:	d0f9      	beq.n	83ebe <__ieee754_sqrt+0x116>
   83eca:	02dc      	lsls	r4, r3, #11
   83ecc:	d422      	bmi.n	83f14 <__ieee754_sqrt+0x16c>
   83ece:	2100      	movs	r1, #0
   83ed0:	005b      	lsls	r3, r3, #1
   83ed2:	02d8      	lsls	r0, r3, #11
   83ed4:	f101 0101 	add.w	r1, r1, #1
   83ed8:	d5fa      	bpl.n	83ed0 <__ieee754_sqrt+0x128>
   83eda:	f1c1 0001 	rsb	r0, r1, #1
   83ede:	f1c1 0420 	rsb	r4, r1, #32
   83ee2:	fa22 f404 	lsr.w	r4, r2, r4
   83ee6:	4323      	orrs	r3, r4
   83ee8:	4486      	add	lr, r0
   83eea:	408a      	lsls	r2, r1
   83eec:	e76e      	b.n	83dcc <__ieee754_sqrt+0x24>
   83eee:	4602      	mov	r2, r0
   83ef0:	460b      	mov	r3, r1
   83ef2:	f000 fa05 	bl	84300 <__aeabi_dmul>
   83ef6:	462a      	mov	r2, r5
   83ef8:	4623      	mov	r3, r4
   83efa:	f000 f84f 	bl	83f9c <__adddf3>
   83efe:	e8bd 81f0 	ldmia.w	sp!, {r4, r5, r6, r7, r8, pc}
   83f02:	f1bc 0f00 	cmp.w	ip, #0
   83f06:	daaa      	bge.n	83e5e <__ieee754_sqrt+0xb6>
   83f08:	46a0      	mov	r8, r4
   83f0a:	2300      	movs	r3, #0
   83f0c:	e7a0      	b.n	83e50 <__ieee754_sqrt+0xa8>
   83f0e:	3701      	adds	r7, #1
   83f10:	4630      	mov	r0, r6
   83f12:	e7b3      	b.n	83e7c <__ieee754_sqrt+0xd4>
   83f14:	2420      	movs	r4, #32
   83f16:	2001      	movs	r0, #1
   83f18:	2100      	movs	r1, #0
   83f1a:	e7e2      	b.n	83ee2 <__ieee754_sqrt+0x13a>
   83f1c:	4602      	mov	r2, r0
   83f1e:	460b      	mov	r3, r1
   83f20:	f000 f83a 	bl	83f98 <__aeabi_dsub>
   83f24:	4602      	mov	r2, r0
   83f26:	460b      	mov	r3, r1
   83f28:	f000 fb14 	bl	84554 <__aeabi_ddiv>
   83f2c:	e7b2      	b.n	83e94 <__ieee754_sqrt+0xec>
   83f2e:	bf00      	nop
   83f30:	7ff00000 	.word	0x7ff00000

00083f34 <__fpclassifyd>:
   83f34:	b410      	push	{r4}
   83f36:	f031 4400 	bics.w	r4, r1, #2147483648	; 0x80000000
   83f3a:	d008      	beq.n	83f4e <__fpclassifyd+0x1a>
   83f3c:	4b11      	ldr	r3, [pc, #68]	; (83f84 <__fpclassifyd+0x50>)
   83f3e:	f5a1 1280 	sub.w	r2, r1, #1048576	; 0x100000
   83f42:	429a      	cmp	r2, r3
   83f44:	d808      	bhi.n	83f58 <__fpclassifyd+0x24>
   83f46:	2004      	movs	r0, #4
   83f48:	f85d 4b04 	ldr.w	r4, [sp], #4
   83f4c:	4770      	bx	lr
   83f4e:	b918      	cbnz	r0, 83f58 <__fpclassifyd+0x24>
   83f50:	2002      	movs	r0, #2
   83f52:	f85d 4b04 	ldr.w	r4, [sp], #4
   83f56:	4770      	bx	lr
   83f58:	f101 41ff 	add.w	r1, r1, #2139095040	; 0x7f800000
   83f5c:	4b09      	ldr	r3, [pc, #36]	; (83f84 <__fpclassifyd+0x50>)
   83f5e:	f501 01e0 	add.w	r1, r1, #7340032	; 0x700000
   83f62:	4299      	cmp	r1, r3
   83f64:	d9ef      	bls.n	83f46 <__fpclassifyd+0x12>
   83f66:	f5b4 1f80 	cmp.w	r4, #1048576	; 0x100000
   83f6a:	d201      	bcs.n	83f70 <__fpclassifyd+0x3c>
   83f6c:	2003      	movs	r0, #3
   83f6e:	e7eb      	b.n	83f48 <__fpclassifyd+0x14>
   83f70:	4b05      	ldr	r3, [pc, #20]	; (83f88 <__fpclassifyd+0x54>)
   83f72:	429c      	cmp	r4, r3
   83f74:	d001      	beq.n	83f7a <__fpclassifyd+0x46>
   83f76:	2000      	movs	r0, #0
   83f78:	e7e6      	b.n	83f48 <__fpclassifyd+0x14>
   83f7a:	fab0 f080 	clz	r0, r0
   83f7e:	0940      	lsrs	r0, r0, #5
   83f80:	e7e2      	b.n	83f48 <__fpclassifyd+0x14>
   83f82:	bf00      	nop
   83f84:	7fdfffff 	.word	0x7fdfffff
   83f88:	7ff00000 	.word	0x7ff00000

00083f8c <matherr>:
   83f8c:	2000      	movs	r0, #0
   83f8e:	4770      	bx	lr

00083f90 <__aeabi_drsub>:
   83f90:	f081 4100 	eor.w	r1, r1, #2147483648	; 0x80000000
   83f94:	e002      	b.n	83f9c <__adddf3>
   83f96:	bf00      	nop

00083f98 <__aeabi_dsub>:
   83f98:	f083 4300 	eor.w	r3, r3, #2147483648	; 0x80000000

00083f9c <__adddf3>:
   83f9c:	b530      	push	{r4, r5, lr}
   83f9e:	ea4f 0441 	mov.w	r4, r1, lsl #1
   83fa2:	ea4f 0543 	mov.w	r5, r3, lsl #1
   83fa6:	ea94 0f05 	teq	r4, r5
   83faa:	bf08      	it	eq
   83fac:	ea90 0f02 	teqeq	r0, r2
   83fb0:	bf1f      	itttt	ne
   83fb2:	ea54 0c00 	orrsne.w	ip, r4, r0
   83fb6:	ea55 0c02 	orrsne.w	ip, r5, r2
   83fba:	ea7f 5c64 	mvnsne.w	ip, r4, asr #21
   83fbe:	ea7f 5c65 	mvnsne.w	ip, r5, asr #21
   83fc2:	f000 80e2 	beq.w	8418a <__adddf3+0x1ee>
   83fc6:	ea4f 5454 	mov.w	r4, r4, lsr #21
   83fca:	ebd4 5555 	rsbs	r5, r4, r5, lsr #21
   83fce:	bfb8      	it	lt
   83fd0:	426d      	neglt	r5, r5
   83fd2:	dd0c      	ble.n	83fee <__adddf3+0x52>
   83fd4:	442c      	add	r4, r5
   83fd6:	ea80 0202 	eor.w	r2, r0, r2
   83fda:	ea81 0303 	eor.w	r3, r1, r3
   83fde:	ea82 0000 	eor.w	r0, r2, r0
   83fe2:	ea83 0101 	eor.w	r1, r3, r1
   83fe6:	ea80 0202 	eor.w	r2, r0, r2
   83fea:	ea81 0303 	eor.w	r3, r1, r3
   83fee:	2d36      	cmp	r5, #54	; 0x36
   83ff0:	bf88      	it	hi
   83ff2:	bd30      	pophi	{r4, r5, pc}
   83ff4:	f011 4f00 	tst.w	r1, #2147483648	; 0x80000000
   83ff8:	ea4f 3101 	mov.w	r1, r1, lsl #12
   83ffc:	f44f 1c80 	mov.w	ip, #1048576	; 0x100000
   84000:	ea4c 3111 	orr.w	r1, ip, r1, lsr #12
   84004:	d002      	beq.n	8400c <__adddf3+0x70>
   84006:	4240      	negs	r0, r0
   84008:	eb61 0141 	sbc.w	r1, r1, r1, lsl #1
   8400c:	f013 4f00 	tst.w	r3, #2147483648	; 0x80000000
   84010:	ea4f 3303 	mov.w	r3, r3, lsl #12
   84014:	ea4c 3313 	orr.w	r3, ip, r3, lsr #12
   84018:	d002      	beq.n	84020 <__adddf3+0x84>
   8401a:	4252      	negs	r2, r2
   8401c:	eb63 0343 	sbc.w	r3, r3, r3, lsl #1
   84020:	ea94 0f05 	teq	r4, r5
   84024:	f000 80a7 	beq.w	84176 <__adddf3+0x1da>
   84028:	f1a4 0401 	sub.w	r4, r4, #1
   8402c:	f1d5 0e20 	rsbs	lr, r5, #32
   84030:	db0d      	blt.n	8404e <__adddf3+0xb2>
   84032:	fa02 fc0e 	lsl.w	ip, r2, lr
   84036:	fa22 f205 	lsr.w	r2, r2, r5
   8403a:	1880      	adds	r0, r0, r2
   8403c:	f141 0100 	adc.w	r1, r1, #0
   84040:	fa03 f20e 	lsl.w	r2, r3, lr
   84044:	1880      	adds	r0, r0, r2
   84046:	fa43 f305 	asr.w	r3, r3, r5
   8404a:	4159      	adcs	r1, r3
   8404c:	e00e      	b.n	8406c <__adddf3+0xd0>
   8404e:	f1a5 0520 	sub.w	r5, r5, #32
   84052:	f10e 0e20 	add.w	lr, lr, #32
   84056:	2a01      	cmp	r2, #1
   84058:	fa03 fc0e 	lsl.w	ip, r3, lr
   8405c:	bf28      	it	cs
   8405e:	f04c 0c02 	orrcs.w	ip, ip, #2
   84062:	fa43 f305 	asr.w	r3, r3, r5
   84066:	18c0      	adds	r0, r0, r3
   84068:	eb51 71e3 	adcs.w	r1, r1, r3, asr #31
   8406c:	f001 4500 	and.w	r5, r1, #2147483648	; 0x80000000
   84070:	d507      	bpl.n	84082 <__adddf3+0xe6>
   84072:	f04f 0e00 	mov.w	lr, #0
   84076:	f1dc 0c00 	rsbs	ip, ip, #0
   8407a:	eb7e 0000 	sbcs.w	r0, lr, r0
   8407e:	eb6e 0101 	sbc.w	r1, lr, r1
   84082:	f5b1 1f80 	cmp.w	r1, #1048576	; 0x100000
   84086:	d31b      	bcc.n	840c0 <__adddf3+0x124>
   84088:	f5b1 1f00 	cmp.w	r1, #2097152	; 0x200000
   8408c:	d30c      	bcc.n	840a8 <__adddf3+0x10c>
   8408e:	0849      	lsrs	r1, r1, #1
   84090:	ea5f 0030 	movs.w	r0, r0, rrx
   84094:	ea4f 0c3c 	mov.w	ip, ip, rrx
   84098:	f104 0401 	add.w	r4, r4, #1
   8409c:	ea4f 5244 	mov.w	r2, r4, lsl #21
   840a0:	f512 0f80 	cmn.w	r2, #4194304	; 0x400000
   840a4:	f080 809a 	bcs.w	841dc <__adddf3+0x240>
   840a8:	f1bc 4f00 	cmp.w	ip, #2147483648	; 0x80000000
   840ac:	bf08      	it	eq
   840ae:	ea5f 0c50 	movseq.w	ip, r0, lsr #1
   840b2:	f150 0000 	adcs.w	r0, r0, #0
   840b6:	eb41 5104 	adc.w	r1, r1, r4, lsl #20
   840ba:	ea41 0105 	orr.w	r1, r1, r5
   840be:	bd30      	pop	{r4, r5, pc}
   840c0:	ea5f 0c4c 	movs.w	ip, ip, lsl #1
   840c4:	4140      	adcs	r0, r0
   840c6:	eb41 0101 	adc.w	r1, r1, r1
   840ca:	f411 1f80 	tst.w	r1, #1048576	; 0x100000
   840ce:	f1a4 0401 	sub.w	r4, r4, #1
   840d2:	d1e9      	bne.n	840a8 <__adddf3+0x10c>
   840d4:	f091 0f00 	teq	r1, #0
   840d8:	bf04      	itt	eq
   840da:	4601      	moveq	r1, r0
   840dc:	2000      	moveq	r0, #0
   840de:	fab1 f381 	clz	r3, r1
   840e2:	bf08      	it	eq
   840e4:	3320      	addeq	r3, #32
   840e6:	f1a3 030b 	sub.w	r3, r3, #11
   840ea:	f1b3 0220 	subs.w	r2, r3, #32
   840ee:	da0c      	bge.n	8410a <__adddf3+0x16e>
   840f0:	320c      	adds	r2, #12
   840f2:	dd08      	ble.n	84106 <__adddf3+0x16a>
   840f4:	f102 0c14 	add.w	ip, r2, #20
   840f8:	f1c2 020c 	rsb	r2, r2, #12
   840fc:	fa01 f00c 	lsl.w	r0, r1, ip
   84100:	fa21 f102 	lsr.w	r1, r1, r2
   84104:	e00c      	b.n	84120 <__adddf3+0x184>
   84106:	f102 0214 	add.w	r2, r2, #20
   8410a:	bfd8      	it	le
   8410c:	f1c2 0c20 	rsble	ip, r2, #32
   84110:	fa01 f102 	lsl.w	r1, r1, r2
   84114:	fa20 fc0c 	lsr.w	ip, r0, ip
   84118:	bfdc      	itt	le
   8411a:	ea41 010c 	orrle.w	r1, r1, ip
   8411e:	4090      	lslle	r0, r2
   84120:	1ae4      	subs	r4, r4, r3
   84122:	bfa2      	ittt	ge
   84124:	eb01 5104 	addge.w	r1, r1, r4, lsl #20
   84128:	4329      	orrge	r1, r5
   8412a:	bd30      	popge	{r4, r5, pc}
   8412c:	ea6f 0404 	mvn.w	r4, r4
   84130:	3c1f      	subs	r4, #31
   84132:	da1c      	bge.n	8416e <__adddf3+0x1d2>
   84134:	340c      	adds	r4, #12
   84136:	dc0e      	bgt.n	84156 <__adddf3+0x1ba>
   84138:	f104 0414 	add.w	r4, r4, #20
   8413c:	f1c4 0220 	rsb	r2, r4, #32
   84140:	fa20 f004 	lsr.w	r0, r0, r4
   84144:	fa01 f302 	lsl.w	r3, r1, r2
   84148:	ea40 0003 	orr.w	r0, r0, r3
   8414c:	fa21 f304 	lsr.w	r3, r1, r4
   84150:	ea45 0103 	orr.w	r1, r5, r3
   84154:	bd30      	pop	{r4, r5, pc}
   84156:	f1c4 040c 	rsb	r4, r4, #12
   8415a:	f1c4 0220 	rsb	r2, r4, #32
   8415e:	fa20 f002 	lsr.w	r0, r0, r2
   84162:	fa01 f304 	lsl.w	r3, r1, r4
   84166:	ea40 0003 	orr.w	r0, r0, r3
   8416a:	4629      	mov	r1, r5
   8416c:	bd30      	pop	{r4, r5, pc}
   8416e:	fa21 f004 	lsr.w	r0, r1, r4
   84172:	4629      	mov	r1, r5
   84174:	bd30      	pop	{r4, r5, pc}
   84176:	f094 0f00 	teq	r4, #0
   8417a:	f483 1380 	eor.w	r3, r3, #1048576	; 0x100000
   8417e:	bf06      	itte	eq
   84180:	f481 1180 	eoreq.w	r1, r1, #1048576	; 0x100000
   84184:	3401      	addeq	r4, #1
   84186:	3d01      	subne	r5, #1
   84188:	e74e      	b.n	84028 <__adddf3+0x8c>
   8418a:	ea7f 5c64 	mvns.w	ip, r4, asr #21
   8418e:	bf18      	it	ne
   84190:	ea7f 5c65 	mvnsne.w	ip, r5, asr #21
   84194:	d029      	beq.n	841ea <__adddf3+0x24e>
   84196:	ea94 0f05 	teq	r4, r5
   8419a:	bf08      	it	eq
   8419c:	ea90 0f02 	teqeq	r0, r2
   841a0:	d005      	beq.n	841ae <__adddf3+0x212>
   841a2:	ea54 0c00 	orrs.w	ip, r4, r0
   841a6:	bf04      	itt	eq
   841a8:	4619      	moveq	r1, r3
   841aa:	4610      	moveq	r0, r2
   841ac:	bd30      	pop	{r4, r5, pc}
   841ae:	ea91 0f03 	teq	r1, r3
   841b2:	bf1e      	ittt	ne
   841b4:	2100      	movne	r1, #0
   841b6:	2000      	movne	r0, #0
   841b8:	bd30      	popne	{r4, r5, pc}
   841ba:	ea5f 5c54 	movs.w	ip, r4, lsr #21
   841be:	d105      	bne.n	841cc <__adddf3+0x230>
   841c0:	0040      	lsls	r0, r0, #1
   841c2:	4149      	adcs	r1, r1
   841c4:	bf28      	it	cs
   841c6:	f041 4100 	orrcs.w	r1, r1, #2147483648	; 0x80000000
   841ca:	bd30      	pop	{r4, r5, pc}
   841cc:	f514 0480 	adds.w	r4, r4, #4194304	; 0x400000
   841d0:	bf3c      	itt	cc
   841d2:	f501 1180 	addcc.w	r1, r1, #1048576	; 0x100000
   841d6:	bd30      	popcc	{r4, r5, pc}
   841d8:	f001 4500 	and.w	r5, r1, #2147483648	; 0x80000000
   841dc:	f045 41fe 	orr.w	r1, r5, #2130706432	; 0x7f000000
   841e0:	f441 0170 	orr.w	r1, r1, #15728640	; 0xf00000
   841e4:	f04f 0000 	mov.w	r0, #0
   841e8:	bd30      	pop	{r4, r5, pc}
   841ea:	ea7f 5c64 	mvns.w	ip, r4, asr #21
   841ee:	bf1a      	itte	ne
   841f0:	4619      	movne	r1, r3
   841f2:	4610      	movne	r0, r2
   841f4:	ea7f 5c65 	mvnseq.w	ip, r5, asr #21
   841f8:	bf1c      	itt	ne
   841fa:	460b      	movne	r3, r1
   841fc:	4602      	movne	r2, r0
   841fe:	ea50 3401 	orrs.w	r4, r0, r1, lsl #12
   84202:	bf06      	itte	eq
   84204:	ea52 3503 	orrseq.w	r5, r2, r3, lsl #12
   84208:	ea91 0f03 	teqeq	r1, r3
   8420c:	f441 2100 	orrne.w	r1, r1, #524288	; 0x80000
   84210:	bd30      	pop	{r4, r5, pc}
   84212:	bf00      	nop

00084214 <__aeabi_ui2d>:
   84214:	f090 0f00 	teq	r0, #0
   84218:	bf04      	itt	eq
   8421a:	2100      	moveq	r1, #0
   8421c:	4770      	bxeq	lr
   8421e:	b530      	push	{r4, r5, lr}
   84220:	f44f 6480 	mov.w	r4, #1024	; 0x400
   84224:	f104 0432 	add.w	r4, r4, #50	; 0x32
   84228:	f04f 0500 	mov.w	r5, #0
   8422c:	f04f 0100 	mov.w	r1, #0
   84230:	e750      	b.n	840d4 <__adddf3+0x138>
   84232:	bf00      	nop

00084234 <__aeabi_i2d>:
   84234:	f090 0f00 	teq	r0, #0
   84238:	bf04      	itt	eq
   8423a:	2100      	moveq	r1, #0
   8423c:	4770      	bxeq	lr
   8423e:	b530      	push	{r4, r5, lr}
   84240:	f44f 6480 	mov.w	r4, #1024	; 0x400
   84244:	f104 0432 	add.w	r4, r4, #50	; 0x32
   84248:	f010 4500 	ands.w	r5, r0, #2147483648	; 0x80000000
   8424c:	bf48      	it	mi
   8424e:	4240      	negmi	r0, r0
   84250:	f04f 0100 	mov.w	r1, #0
   84254:	e73e      	b.n	840d4 <__adddf3+0x138>
   84256:	bf00      	nop

00084258 <__aeabi_f2d>:
   84258:	0042      	lsls	r2, r0, #1
   8425a:	ea4f 01e2 	mov.w	r1, r2, asr #3
   8425e:	ea4f 0131 	mov.w	r1, r1, rrx
   84262:	ea4f 7002 	mov.w	r0, r2, lsl #28
   84266:	bf1f      	itttt	ne
   84268:	f012 437f 	andsne.w	r3, r2, #4278190080	; 0xff000000
   8426c:	f093 4f7f 	teqne	r3, #4278190080	; 0xff000000
   84270:	f081 5160 	eorne.w	r1, r1, #939524096	; 0x38000000
   84274:	4770      	bxne	lr
   84276:	f092 0f00 	teq	r2, #0
   8427a:	bf14      	ite	ne
   8427c:	f093 4f7f 	teqne	r3, #4278190080	; 0xff000000
   84280:	4770      	bxeq	lr
   84282:	b530      	push	{r4, r5, lr}
   84284:	f44f 7460 	mov.w	r4, #896	; 0x380
   84288:	f001 4500 	and.w	r5, r1, #2147483648	; 0x80000000
   8428c:	f021 4100 	bic.w	r1, r1, #2147483648	; 0x80000000
   84290:	e720      	b.n	840d4 <__adddf3+0x138>
   84292:	bf00      	nop

00084294 <__aeabi_ul2d>:
   84294:	ea50 0201 	orrs.w	r2, r0, r1
   84298:	bf08      	it	eq
   8429a:	4770      	bxeq	lr
   8429c:	b530      	push	{r4, r5, lr}
   8429e:	f04f 0500 	mov.w	r5, #0
   842a2:	e00a      	b.n	842ba <__aeabi_l2d+0x16>

000842a4 <__aeabi_l2d>:
   842a4:	ea50 0201 	orrs.w	r2, r0, r1
   842a8:	bf08      	it	eq
   842aa:	4770      	bxeq	lr
   842ac:	b530      	push	{r4, r5, lr}
   842ae:	f011 4500 	ands.w	r5, r1, #2147483648	; 0x80000000
   842b2:	d502      	bpl.n	842ba <__aeabi_l2d+0x16>
   842b4:	4240      	negs	r0, r0
   842b6:	eb61 0141 	sbc.w	r1, r1, r1, lsl #1
   842ba:	f44f 6480 	mov.w	r4, #1024	; 0x400
   842be:	f104 0432 	add.w	r4, r4, #50	; 0x32
   842c2:	ea5f 5c91 	movs.w	ip, r1, lsr #22
   842c6:	f43f aedc 	beq.w	84082 <__adddf3+0xe6>
   842ca:	f04f 0203 	mov.w	r2, #3
   842ce:	ea5f 0cdc 	movs.w	ip, ip, lsr #3
   842d2:	bf18      	it	ne
   842d4:	3203      	addne	r2, #3
   842d6:	ea5f 0cdc 	movs.w	ip, ip, lsr #3
   842da:	bf18      	it	ne
   842dc:	3203      	addne	r2, #3
   842de:	eb02 02dc 	add.w	r2, r2, ip, lsr #3
   842e2:	f1c2 0320 	rsb	r3, r2, #32
   842e6:	fa00 fc03 	lsl.w	ip, r0, r3
   842ea:	fa20 f002 	lsr.w	r0, r0, r2
   842ee:	fa01 fe03 	lsl.w	lr, r1, r3
   842f2:	ea40 000e 	orr.w	r0, r0, lr
   842f6:	fa21 f102 	lsr.w	r1, r1, r2
   842fa:	4414      	add	r4, r2
   842fc:	e6c1      	b.n	84082 <__adddf3+0xe6>
   842fe:	bf00      	nop

00084300 <__aeabi_dmul>:
   84300:	b570      	push	{r4, r5, r6, lr}
   84302:	f04f 0cff 	mov.w	ip, #255	; 0xff
   84306:	f44c 6ce0 	orr.w	ip, ip, #1792	; 0x700
   8430a:	ea1c 5411 	ands.w	r4, ip, r1, lsr #20
   8430e:	bf1d      	ittte	ne
   84310:	ea1c 5513 	andsne.w	r5, ip, r3, lsr #20
   84314:	ea94 0f0c 	teqne	r4, ip
   84318:	ea95 0f0c 	teqne	r5, ip
   8431c:	f000 f8de 	bleq	844dc <__aeabi_dmul+0x1dc>
   84320:	442c      	add	r4, r5
   84322:	ea81 0603 	eor.w	r6, r1, r3
   84326:	ea21 514c 	bic.w	r1, r1, ip, lsl #21
   8432a:	ea23 534c 	bic.w	r3, r3, ip, lsl #21
   8432e:	ea50 3501 	orrs.w	r5, r0, r1, lsl #12
   84332:	bf18      	it	ne
   84334:	ea52 3503 	orrsne.w	r5, r2, r3, lsl #12
   84338:	f441 1180 	orr.w	r1, r1, #1048576	; 0x100000
   8433c:	f443 1380 	orr.w	r3, r3, #1048576	; 0x100000
   84340:	d038      	beq.n	843b4 <__aeabi_dmul+0xb4>
   84342:	fba0 ce02 	umull	ip, lr, r0, r2
   84346:	f04f 0500 	mov.w	r5, #0
   8434a:	fbe1 e502 	umlal	lr, r5, r1, r2
   8434e:	f006 4200 	and.w	r2, r6, #2147483648	; 0x80000000
   84352:	fbe0 e503 	umlal	lr, r5, r0, r3
   84356:	f04f 0600 	mov.w	r6, #0
   8435a:	fbe1 5603 	umlal	r5, r6, r1, r3
   8435e:	f09c 0f00 	teq	ip, #0
   84362:	bf18      	it	ne
   84364:	f04e 0e01 	orrne.w	lr, lr, #1
   84368:	f1a4 04ff 	sub.w	r4, r4, #255	; 0xff
   8436c:	f5b6 7f00 	cmp.w	r6, #512	; 0x200
   84370:	f564 7440 	sbc.w	r4, r4, #768	; 0x300
   84374:	d204      	bcs.n	84380 <__aeabi_dmul+0x80>
   84376:	ea5f 0e4e 	movs.w	lr, lr, lsl #1
   8437a:	416d      	adcs	r5, r5
   8437c:	eb46 0606 	adc.w	r6, r6, r6
   84380:	ea42 21c6 	orr.w	r1, r2, r6, lsl #11
   84384:	ea41 5155 	orr.w	r1, r1, r5, lsr #21
   84388:	ea4f 20c5 	mov.w	r0, r5, lsl #11
   8438c:	ea40 505e 	orr.w	r0, r0, lr, lsr #21
   84390:	ea4f 2ece 	mov.w	lr, lr, lsl #11
   84394:	f1b4 0cfd 	subs.w	ip, r4, #253	; 0xfd
   84398:	bf88      	it	hi
   8439a:	f5bc 6fe0 	cmphi.w	ip, #1792	; 0x700
   8439e:	d81e      	bhi.n	843de <__aeabi_dmul+0xde>
   843a0:	f1be 4f00 	cmp.w	lr, #2147483648	; 0x80000000
   843a4:	bf08      	it	eq
   843a6:	ea5f 0e50 	movseq.w	lr, r0, lsr #1
   843aa:	f150 0000 	adcs.w	r0, r0, #0
   843ae:	eb41 5104 	adc.w	r1, r1, r4, lsl #20
   843b2:	bd70      	pop	{r4, r5, r6, pc}
   843b4:	f006 4600 	and.w	r6, r6, #2147483648	; 0x80000000
   843b8:	ea46 0101 	orr.w	r1, r6, r1
   843bc:	ea40 0002 	orr.w	r0, r0, r2
   843c0:	ea81 0103 	eor.w	r1, r1, r3
   843c4:	ebb4 045c 	subs.w	r4, r4, ip, lsr #1
   843c8:	bfc2      	ittt	gt
   843ca:	ebd4 050c 	rsbsgt	r5, r4, ip
   843ce:	ea41 5104 	orrgt.w	r1, r1, r4, lsl #20
   843d2:	bd70      	popgt	{r4, r5, r6, pc}
   843d4:	f441 1180 	orr.w	r1, r1, #1048576	; 0x100000
   843d8:	f04f 0e00 	mov.w	lr, #0
   843dc:	3c01      	subs	r4, #1
   843de:	f300 80ab 	bgt.w	84538 <__aeabi_dmul+0x238>
   843e2:	f114 0f36 	cmn.w	r4, #54	; 0x36
   843e6:	bfde      	ittt	le
   843e8:	2000      	movle	r0, #0
   843ea:	f001 4100 	andle.w	r1, r1, #2147483648	; 0x80000000
   843ee:	bd70      	pople	{r4, r5, r6, pc}
   843f0:	f1c4 0400 	rsb	r4, r4, #0
   843f4:	3c20      	subs	r4, #32
   843f6:	da35      	bge.n	84464 <__aeabi_dmul+0x164>
   843f8:	340c      	adds	r4, #12
   843fa:	dc1b      	bgt.n	84434 <__aeabi_dmul+0x134>
   843fc:	f104 0414 	add.w	r4, r4, #20
   84400:	f1c4 0520 	rsb	r5, r4, #32
   84404:	fa00 f305 	lsl.w	r3, r0, r5
   84408:	fa20 f004 	lsr.w	r0, r0, r4
   8440c:	fa01 f205 	lsl.w	r2, r1, r5
   84410:	ea40 0002 	orr.w	r0, r0, r2
   84414:	f001 4200 	and.w	r2, r1, #2147483648	; 0x80000000
   84418:	f021 4100 	bic.w	r1, r1, #2147483648	; 0x80000000
   8441c:	eb10 70d3 	adds.w	r0, r0, r3, lsr #31
   84420:	fa21 f604 	lsr.w	r6, r1, r4
   84424:	eb42 0106 	adc.w	r1, r2, r6
   84428:	ea5e 0e43 	orrs.w	lr, lr, r3, lsl #1
   8442c:	bf08      	it	eq
   8442e:	ea20 70d3 	biceq.w	r0, r0, r3, lsr #31
   84432:	bd70      	pop	{r4, r5, r6, pc}
   84434:	f1c4 040c 	rsb	r4, r4, #12
   84438:	f1c4 0520 	rsb	r5, r4, #32
   8443c:	fa00 f304 	lsl.w	r3, r0, r4
   84440:	fa20 f005 	lsr.w	r0, r0, r5
   84444:	fa01 f204 	lsl.w	r2, r1, r4
   84448:	ea40 0002 	orr.w	r0, r0, r2
   8444c:	f001 4100 	and.w	r1, r1, #2147483648	; 0x80000000
   84450:	eb10 70d3 	adds.w	r0, r0, r3, lsr #31
   84454:	f141 0100 	adc.w	r1, r1, #0
   84458:	ea5e 0e43 	orrs.w	lr, lr, r3, lsl #1
   8445c:	bf08      	it	eq
   8445e:	ea20 70d3 	biceq.w	r0, r0, r3, lsr #31
   84462:	bd70      	pop	{r4, r5, r6, pc}
   84464:	f1c4 0520 	rsb	r5, r4, #32
   84468:	fa00 f205 	lsl.w	r2, r0, r5
   8446c:	ea4e 0e02 	orr.w	lr, lr, r2
   84470:	fa20 f304 	lsr.w	r3, r0, r4
   84474:	fa01 f205 	lsl.w	r2, r1, r5
   84478:	ea43 0302 	orr.w	r3, r3, r2
   8447c:	fa21 f004 	lsr.w	r0, r1, r4
   84480:	f001 4100 	and.w	r1, r1, #2147483648	; 0x80000000
   84484:	fa21 f204 	lsr.w	r2, r1, r4
   84488:	ea20 0002 	bic.w	r0, r0, r2
   8448c:	eb00 70d3 	add.w	r0, r0, r3, lsr #31
   84490:	ea5e 0e43 	orrs.w	lr, lr, r3, lsl #1
   84494:	bf08      	it	eq
   84496:	ea20 70d3 	biceq.w	r0, r0, r3, lsr #31
   8449a:	bd70      	pop	{r4, r5, r6, pc}
   8449c:	f094 0f00 	teq	r4, #0
   844a0:	d10f      	bne.n	844c2 <__aeabi_dmul+0x1c2>
   844a2:	f001 4600 	and.w	r6, r1, #2147483648	; 0x80000000
   844a6:	0040      	lsls	r0, r0, #1
   844a8:	eb41 0101 	adc.w	r1, r1, r1
   844ac:	f411 1f80 	tst.w	r1, #1048576	; 0x100000
   844b0:	bf08      	it	eq
   844b2:	3c01      	subeq	r4, #1
   844b4:	d0f7      	beq.n	844a6 <__aeabi_dmul+0x1a6>
   844b6:	ea41 0106 	orr.w	r1, r1, r6
   844ba:	f095 0f00 	teq	r5, #0
   844be:	bf18      	it	ne
   844c0:	4770      	bxne	lr
   844c2:	f003 4600 	and.w	r6, r3, #2147483648	; 0x80000000
   844c6:	0052      	lsls	r2, r2, #1
   844c8:	eb43 0303 	adc.w	r3, r3, r3
   844cc:	f413 1f80 	tst.w	r3, #1048576	; 0x100000
   844d0:	bf08      	it	eq
   844d2:	3d01      	subeq	r5, #1
   844d4:	d0f7      	beq.n	844c6 <__aeabi_dmul+0x1c6>
   844d6:	ea43 0306 	orr.w	r3, r3, r6
   844da:	4770      	bx	lr
   844dc:	ea94 0f0c 	teq	r4, ip
   844e0:	ea0c 5513 	and.w	r5, ip, r3, lsr #20
   844e4:	bf18      	it	ne
   844e6:	ea95 0f0c 	teqne	r5, ip
   844ea:	d00c      	beq.n	84506 <__aeabi_dmul+0x206>
   844ec:	ea50 0641 	orrs.w	r6, r0, r1, lsl #1
   844f0:	bf18      	it	ne
   844f2:	ea52 0643 	orrsne.w	r6, r2, r3, lsl #1
   844f6:	d1d1      	bne.n	8449c <__aeabi_dmul+0x19c>
   844f8:	ea81 0103 	eor.w	r1, r1, r3
   844fc:	f001 4100 	and.w	r1, r1, #2147483648	; 0x80000000
   84500:	f04f 0000 	mov.w	r0, #0
   84504:	bd70      	pop	{r4, r5, r6, pc}
   84506:	ea50 0641 	orrs.w	r6, r0, r1, lsl #1
   8450a:	bf06      	itte	eq
   8450c:	4610      	moveq	r0, r2
   8450e:	4619      	moveq	r1, r3
   84510:	ea52 0643 	orrsne.w	r6, r2, r3, lsl #1
   84514:	d019      	beq.n	8454a <__aeabi_dmul+0x24a>
   84516:	ea94 0f0c 	teq	r4, ip
   8451a:	d102      	bne.n	84522 <__aeabi_dmul+0x222>
   8451c:	ea50 3601 	orrs.w	r6, r0, r1, lsl #12
   84520:	d113      	bne.n	8454a <__aeabi_dmul+0x24a>
   84522:	ea95 0f0c 	teq	r5, ip
   84526:	d105      	bne.n	84534 <__aeabi_dmul+0x234>
   84528:	ea52 3603 	orrs.w	r6, r2, r3, lsl #12
   8452c:	bf1c      	itt	ne
   8452e:	4610      	movne	r0, r2
   84530:	4619      	movne	r1, r3
   84532:	d10a      	bne.n	8454a <__aeabi_dmul+0x24a>
   84534:	ea81 0103 	eor.w	r1, r1, r3
   84538:	f001 4100 	and.w	r1, r1, #2147483648	; 0x80000000
   8453c:	f041 41fe 	orr.w	r1, r1, #2130706432	; 0x7f000000
   84540:	f441 0170 	orr.w	r1, r1, #15728640	; 0xf00000
   84544:	f04f 0000 	mov.w	r0, #0
   84548:	bd70      	pop	{r4, r5, r6, pc}
   8454a:	f041 41fe 	orr.w	r1, r1, #2130706432	; 0x7f000000
   8454e:	f441 0178 	orr.w	r1, r1, #16252928	; 0xf80000
   84552:	bd70      	pop	{r4, r5, r6, pc}

00084554 <__aeabi_ddiv>:
   84554:	b570      	push	{r4, r5, r6, lr}
   84556:	f04f 0cff 	mov.w	ip, #255	; 0xff
   8455a:	f44c 6ce0 	orr.w	ip, ip, #1792	; 0x700
   8455e:	ea1c 5411 	ands.w	r4, ip, r1, lsr #20
   84562:	bf1d      	ittte	ne
   84564:	ea1c 5513 	andsne.w	r5, ip, r3, lsr #20
   84568:	ea94 0f0c 	teqne	r4, ip
   8456c:	ea95 0f0c 	teqne	r5, ip
   84570:	f000 f8a7 	bleq	846c2 <__aeabi_ddiv+0x16e>
   84574:	eba4 0405 	sub.w	r4, r4, r5
   84578:	ea81 0e03 	eor.w	lr, r1, r3
   8457c:	ea52 3503 	orrs.w	r5, r2, r3, lsl #12
   84580:	ea4f 3101 	mov.w	r1, r1, lsl #12
   84584:	f000 8088 	beq.w	84698 <__aeabi_ddiv+0x144>
   84588:	ea4f 3303 	mov.w	r3, r3, lsl #12
   8458c:	f04f 5580 	mov.w	r5, #268435456	; 0x10000000
   84590:	ea45 1313 	orr.w	r3, r5, r3, lsr #4
   84594:	ea43 6312 	orr.w	r3, r3, r2, lsr #24
   84598:	ea4f 2202 	mov.w	r2, r2, lsl #8
   8459c:	ea45 1511 	orr.w	r5, r5, r1, lsr #4
   845a0:	ea45 6510 	orr.w	r5, r5, r0, lsr #24
   845a4:	ea4f 2600 	mov.w	r6, r0, lsl #8
   845a8:	f00e 4100 	and.w	r1, lr, #2147483648	; 0x80000000
   845ac:	429d      	cmp	r5, r3
   845ae:	bf08      	it	eq
   845b0:	4296      	cmpeq	r6, r2
   845b2:	f144 04fd 	adc.w	r4, r4, #253	; 0xfd
   845b6:	f504 7440 	add.w	r4, r4, #768	; 0x300
   845ba:	d202      	bcs.n	845c2 <__aeabi_ddiv+0x6e>
   845bc:	085b      	lsrs	r3, r3, #1
   845be:	ea4f 0232 	mov.w	r2, r2, rrx
   845c2:	1ab6      	subs	r6, r6, r2
   845c4:	eb65 0503 	sbc.w	r5, r5, r3
   845c8:	085b      	lsrs	r3, r3, #1
   845ca:	ea4f 0232 	mov.w	r2, r2, rrx
   845ce:	f44f 1080 	mov.w	r0, #1048576	; 0x100000
   845d2:	f44f 2c00 	mov.w	ip, #524288	; 0x80000
   845d6:	ebb6 0e02 	subs.w	lr, r6, r2
   845da:	eb75 0e03 	sbcs.w	lr, r5, r3
   845de:	bf22      	ittt	cs
   845e0:	1ab6      	subcs	r6, r6, r2
   845e2:	4675      	movcs	r5, lr
   845e4:	ea40 000c 	orrcs.w	r0, r0, ip
   845e8:	085b      	lsrs	r3, r3, #1
   845ea:	ea4f 0232 	mov.w	r2, r2, rrx
   845ee:	ebb6 0e02 	subs.w	lr, r6, r2
   845f2:	eb75 0e03 	sbcs.w	lr, r5, r3
   845f6:	bf22      	ittt	cs
   845f8:	1ab6      	subcs	r6, r6, r2
   845fa:	4675      	movcs	r5, lr
   845fc:	ea40 005c 	orrcs.w	r0, r0, ip, lsr #1
   84600:	085b      	lsrs	r3, r3, #1
   84602:	ea4f 0232 	mov.w	r2, r2, rrx
   84606:	ebb6 0e02 	subs.w	lr, r6, r2
   8460a:	eb75 0e03 	sbcs.w	lr, r5, r3
   8460e:	bf22      	ittt	cs
   84610:	1ab6      	subcs	r6, r6, r2
   84612:	4675      	movcs	r5, lr
   84614:	ea40 009c 	orrcs.w	r0, r0, ip, lsr #2
   84618:	085b      	lsrs	r3, r3, #1
   8461a:	ea4f 0232 	mov.w	r2, r2, rrx
   8461e:	ebb6 0e02 	subs.w	lr, r6, r2
   84622:	eb75 0e03 	sbcs.w	lr, r5, r3
   84626:	bf22      	ittt	cs
   84628:	1ab6      	subcs	r6, r6, r2
   8462a:	4675      	movcs	r5, lr
   8462c:	ea40 00dc 	orrcs.w	r0, r0, ip, lsr #3
   84630:	ea55 0e06 	orrs.w	lr, r5, r6
   84634:	d018      	beq.n	84668 <__aeabi_ddiv+0x114>
   84636:	ea4f 1505 	mov.w	r5, r5, lsl #4
   8463a:	ea45 7516 	orr.w	r5, r5, r6, lsr #28
   8463e:	ea4f 1606 	mov.w	r6, r6, lsl #4
   84642:	ea4f 03c3 	mov.w	r3, r3, lsl #3
   84646:	ea43 7352 	orr.w	r3, r3, r2, lsr #29
   8464a:	ea4f 02c2 	mov.w	r2, r2, lsl #3
   8464e:	ea5f 1c1c 	movs.w	ip, ip, lsr #4
   84652:	d1c0      	bne.n	845d6 <__aeabi_ddiv+0x82>
   84654:	f411 1f80 	tst.w	r1, #1048576	; 0x100000
   84658:	d10b      	bne.n	84672 <__aeabi_ddiv+0x11e>
   8465a:	ea41 0100 	orr.w	r1, r1, r0
   8465e:	f04f 0000 	mov.w	r0, #0
   84662:	f04f 4c00 	mov.w	ip, #2147483648	; 0x80000000
   84666:	e7b6      	b.n	845d6 <__aeabi_ddiv+0x82>
   84668:	f411 1f80 	tst.w	r1, #1048576	; 0x100000
   8466c:	bf04      	itt	eq
   8466e:	4301      	orreq	r1, r0
   84670:	2000      	moveq	r0, #0
   84672:	f1b4 0cfd 	subs.w	ip, r4, #253	; 0xfd
   84676:	bf88      	it	hi
   84678:	f5bc 6fe0 	cmphi.w	ip, #1792	; 0x700
   8467c:	f63f aeaf 	bhi.w	843de <__aeabi_dmul+0xde>
   84680:	ebb5 0c03 	subs.w	ip, r5, r3
   84684:	bf04      	itt	eq
   84686:	ebb6 0c02 	subseq.w	ip, r6, r2
   8468a:	ea5f 0c50 	movseq.w	ip, r0, lsr #1
   8468e:	f150 0000 	adcs.w	r0, r0, #0
   84692:	eb41 5104 	adc.w	r1, r1, r4, lsl #20
   84696:	bd70      	pop	{r4, r5, r6, pc}
   84698:	f00e 4e00 	and.w	lr, lr, #2147483648	; 0x80000000
   8469c:	ea4e 3111 	orr.w	r1, lr, r1, lsr #12
   846a0:	eb14 045c 	adds.w	r4, r4, ip, lsr #1
   846a4:	bfc2      	ittt	gt
   846a6:	ebd4 050c 	rsbsgt	r5, r4, ip
   846aa:	ea41 5104 	orrgt.w	r1, r1, r4, lsl #20
   846ae:	bd70      	popgt	{r4, r5, r6, pc}
   846b0:	f441 1180 	orr.w	r1, r1, #1048576	; 0x100000
   846b4:	f04f 0e00 	mov.w	lr, #0
   846b8:	3c01      	subs	r4, #1
   846ba:	e690      	b.n	843de <__aeabi_dmul+0xde>
   846bc:	ea45 0e06 	orr.w	lr, r5, r6
   846c0:	e68d      	b.n	843de <__aeabi_dmul+0xde>
   846c2:	ea0c 5513 	and.w	r5, ip, r3, lsr #20
   846c6:	ea94 0f0c 	teq	r4, ip
   846ca:	bf08      	it	eq
   846cc:	ea95 0f0c 	teqeq	r5, ip
   846d0:	f43f af3b 	beq.w	8454a <__aeabi_dmul+0x24a>
   846d4:	ea94 0f0c 	teq	r4, ip
   846d8:	d10a      	bne.n	846f0 <__aeabi_ddiv+0x19c>
   846da:	ea50 3401 	orrs.w	r4, r0, r1, lsl #12
   846de:	f47f af34 	bne.w	8454a <__aeabi_dmul+0x24a>
   846e2:	ea95 0f0c 	teq	r5, ip
   846e6:	f47f af25 	bne.w	84534 <__aeabi_dmul+0x234>
   846ea:	4610      	mov	r0, r2
   846ec:	4619      	mov	r1, r3
   846ee:	e72c      	b.n	8454a <__aeabi_dmul+0x24a>
   846f0:	ea95 0f0c 	teq	r5, ip
   846f4:	d106      	bne.n	84704 <__aeabi_ddiv+0x1b0>
   846f6:	ea52 3503 	orrs.w	r5, r2, r3, lsl #12
   846fa:	f43f aefd 	beq.w	844f8 <__aeabi_dmul+0x1f8>
   846fe:	4610      	mov	r0, r2
   84700:	4619      	mov	r1, r3
   84702:	e722      	b.n	8454a <__aeabi_dmul+0x24a>
   84704:	ea50 0641 	orrs.w	r6, r0, r1, lsl #1
   84708:	bf18      	it	ne
   8470a:	ea52 0643 	orrsne.w	r6, r2, r3, lsl #1
   8470e:	f47f aec5 	bne.w	8449c <__aeabi_dmul+0x19c>
   84712:	ea50 0441 	orrs.w	r4, r0, r1, lsl #1
   84716:	f47f af0d 	bne.w	84534 <__aeabi_dmul+0x234>
   8471a:	ea52 0543 	orrs.w	r5, r2, r3, lsl #1
   8471e:	f47f aeeb 	bne.w	844f8 <__aeabi_dmul+0x1f8>
   84722:	e712      	b.n	8454a <__aeabi_dmul+0x24a>

00084724 <__gedf2>:
   84724:	f04f 3cff 	mov.w	ip, #4294967295
   84728:	e006      	b.n	84738 <__cmpdf2+0x4>
   8472a:	bf00      	nop

0008472c <__ledf2>:
   8472c:	f04f 0c01 	mov.w	ip, #1
   84730:	e002      	b.n	84738 <__cmpdf2+0x4>
   84732:	bf00      	nop

00084734 <__cmpdf2>:
   84734:	f04f 0c01 	mov.w	ip, #1
   84738:	f84d cd04 	str.w	ip, [sp, #-4]!
   8473c:	ea4f 0c41 	mov.w	ip, r1, lsl #1
   84740:	ea7f 5c6c 	mvns.w	ip, ip, asr #21
   84744:	ea4f 0c43 	mov.w	ip, r3, lsl #1
   84748:	bf18      	it	ne
   8474a:	ea7f 5c6c 	mvnsne.w	ip, ip, asr #21
   8474e:	d01b      	beq.n	84788 <__cmpdf2+0x54>
   84750:	b001      	add	sp, #4
   84752:	ea50 0c41 	orrs.w	ip, r0, r1, lsl #1
   84756:	bf0c      	ite	eq
   84758:	ea52 0c43 	orrseq.w	ip, r2, r3, lsl #1
   8475c:	ea91 0f03 	teqne	r1, r3
   84760:	bf02      	ittt	eq
   84762:	ea90 0f02 	teqeq	r0, r2
   84766:	2000      	moveq	r0, #0
   84768:	4770      	bxeq	lr
   8476a:	f110 0f00 	cmn.w	r0, #0
   8476e:	ea91 0f03 	teq	r1, r3
   84772:	bf58      	it	pl
   84774:	4299      	cmppl	r1, r3
   84776:	bf08      	it	eq
   84778:	4290      	cmpeq	r0, r2
   8477a:	bf2c      	ite	cs
   8477c:	17d8      	asrcs	r0, r3, #31
   8477e:	ea6f 70e3 	mvncc.w	r0, r3, asr #31
   84782:	f040 0001 	orr.w	r0, r0, #1
   84786:	4770      	bx	lr
   84788:	ea4f 0c41 	mov.w	ip, r1, lsl #1
   8478c:	ea7f 5c6c 	mvns.w	ip, ip, asr #21
   84790:	d102      	bne.n	84798 <__cmpdf2+0x64>
   84792:	ea50 3c01 	orrs.w	ip, r0, r1, lsl #12
   84796:	d107      	bne.n	847a8 <__cmpdf2+0x74>
   84798:	ea4f 0c43 	mov.w	ip, r3, lsl #1
   8479c:	ea7f 5c6c 	mvns.w	ip, ip, asr #21
   847a0:	d1d6      	bne.n	84750 <__cmpdf2+0x1c>
   847a2:	ea52 3c03 	orrs.w	ip, r2, r3, lsl #12
   847a6:	d0d3      	beq.n	84750 <__cmpdf2+0x1c>
   847a8:	f85d 0b04 	ldr.w	r0, [sp], #4
   847ac:	4770      	bx	lr
   847ae:	bf00      	nop

000847b0 <__aeabi_cdrcmple>:
   847b0:	4684      	mov	ip, r0
   847b2:	4610      	mov	r0, r2
   847b4:	4662      	mov	r2, ip
   847b6:	468c      	mov	ip, r1
   847b8:	4619      	mov	r1, r3
   847ba:	4663      	mov	r3, ip
   847bc:	e000      	b.n	847c0 <__aeabi_cdcmpeq>
   847be:	bf00      	nop

000847c0 <__aeabi_cdcmpeq>:
   847c0:	b501      	push	{r0, lr}
   847c2:	f7ff ffb7 	bl	84734 <__cmpdf2>
   847c6:	2800      	cmp	r0, #0
   847c8:	bf48      	it	mi
   847ca:	f110 0f00 	cmnmi.w	r0, #0
   847ce:	bd01      	pop	{r0, pc}

000847d0 <__aeabi_dcmpeq>:
   847d0:	f84d ed08 	str.w	lr, [sp, #-8]!
   847d4:	f7ff fff4 	bl	847c0 <__aeabi_cdcmpeq>
   847d8:	bf0c      	ite	eq
   847da:	2001      	moveq	r0, #1
   847dc:	2000      	movne	r0, #0
   847de:	f85d fb08 	ldr.w	pc, [sp], #8
   847e2:	bf00      	nop

000847e4 <__aeabi_dcmplt>:
   847e4:	f84d ed08 	str.w	lr, [sp, #-8]!
   847e8:	f7ff ffea 	bl	847c0 <__aeabi_cdcmpeq>
   847ec:	bf34      	ite	cc
   847ee:	2001      	movcc	r0, #1
   847f0:	2000      	movcs	r0, #0
   847f2:	f85d fb08 	ldr.w	pc, [sp], #8
   847f6:	bf00      	nop

000847f8 <__aeabi_dcmple>:
   847f8:	f84d ed08 	str.w	lr, [sp, #-8]!
   847fc:	f7ff ffe0 	bl	847c0 <__aeabi_cdcmpeq>
   84800:	bf94      	ite	ls
   84802:	2001      	movls	r0, #1
   84804:	2000      	movhi	r0, #0
   84806:	f85d fb08 	ldr.w	pc, [sp], #8
   8480a:	bf00      	nop

0008480c <__aeabi_dcmpge>:
   8480c:	f84d ed08 	str.w	lr, [sp, #-8]!
   84810:	f7ff ffce 	bl	847b0 <__aeabi_cdrcmple>
   84814:	bf94      	ite	ls
   84816:	2001      	movls	r0, #1
   84818:	2000      	movhi	r0, #0
   8481a:	f85d fb08 	ldr.w	pc, [sp], #8
   8481e:	bf00      	nop

00084820 <__aeabi_dcmpgt>:
   84820:	f84d ed08 	str.w	lr, [sp, #-8]!
   84824:	f7ff ffc4 	bl	847b0 <__aeabi_cdrcmple>
   84828:	bf34      	ite	cc
   8482a:	2001      	movcc	r0, #1
   8482c:	2000      	movcs	r0, #0
   8482e:	f85d fb08 	ldr.w	pc, [sp], #8
   84832:	bf00      	nop

00084834 <__aeabi_d2iz>:
   84834:	ea4f 0241 	mov.w	r2, r1, lsl #1
   84838:	f512 1200 	adds.w	r2, r2, #2097152	; 0x200000
   8483c:	d215      	bcs.n	8486a <__aeabi_d2iz+0x36>
   8483e:	d511      	bpl.n	84864 <__aeabi_d2iz+0x30>
   84840:	f46f 7378 	mvn.w	r3, #992	; 0x3e0
   84844:	ebb3 5262 	subs.w	r2, r3, r2, asr #21
   84848:	d912      	bls.n	84870 <__aeabi_d2iz+0x3c>
   8484a:	ea4f 23c1 	mov.w	r3, r1, lsl #11
   8484e:	f043 4300 	orr.w	r3, r3, #2147483648	; 0x80000000
   84852:	ea43 5350 	orr.w	r3, r3, r0, lsr #21
   84856:	f011 4f00 	tst.w	r1, #2147483648	; 0x80000000
   8485a:	fa23 f002 	lsr.w	r0, r3, r2
   8485e:	bf18      	it	ne
   84860:	4240      	negne	r0, r0
   84862:	4770      	bx	lr
   84864:	f04f 0000 	mov.w	r0, #0
   84868:	4770      	bx	lr
   8486a:	ea50 3001 	orrs.w	r0, r0, r1, lsl #12
   8486e:	d105      	bne.n	8487c <__aeabi_d2iz+0x48>
   84870:	f011 4000 	ands.w	r0, r1, #2147483648	; 0x80000000
   84874:	bf08      	it	eq
   84876:	f06f 4000 	mvneq.w	r0, #2147483648	; 0x80000000
   8487a:	4770      	bx	lr
   8487c:	f04f 0000 	mov.w	r0, #0
   84880:	4770      	bx	lr
   84882:	bf00      	nop

00084884 <__aeabi_d2uiz>:
   84884:	004a      	lsls	r2, r1, #1
   84886:	d211      	bcs.n	848ac <__aeabi_d2uiz+0x28>
   84888:	f512 1200 	adds.w	r2, r2, #2097152	; 0x200000
   8488c:	d211      	bcs.n	848b2 <__aeabi_d2uiz+0x2e>
   8488e:	d50d      	bpl.n	848ac <__aeabi_d2uiz+0x28>
   84890:	f46f 7378 	mvn.w	r3, #992	; 0x3e0
   84894:	ebb3 5262 	subs.w	r2, r3, r2, asr #21
   84898:	d40e      	bmi.n	848b8 <__aeabi_d2uiz+0x34>
   8489a:	ea4f 23c1 	mov.w	r3, r1, lsl #11
   8489e:	f043 4300 	orr.w	r3, r3, #2147483648	; 0x80000000
   848a2:	ea43 5350 	orr.w	r3, r3, r0, lsr #21
   848a6:	fa23 f002 	lsr.w	r0, r3, r2
   848aa:	4770      	bx	lr
   848ac:	f04f 0000 	mov.w	r0, #0
   848b0:	4770      	bx	lr
   848b2:	ea50 3001 	orrs.w	r0, r0, r1, lsl #12
   848b6:	d102      	bne.n	848be <__aeabi_d2uiz+0x3a>
   848b8:	f04f 30ff 	mov.w	r0, #4294967295
   848bc:	4770      	bx	lr
   848be:	f04f 0000 	mov.w	r0, #0
   848c2:	4770      	bx	lr

000848c4 <__aeabi_frsub>:
   848c4:	f080 4000 	eor.w	r0, r0, #2147483648	; 0x80000000
   848c8:	e002      	b.n	848d0 <__addsf3>
   848ca:	bf00      	nop

000848cc <__aeabi_fsub>:
   848cc:	f081 4100 	eor.w	r1, r1, #2147483648	; 0x80000000

000848d0 <__addsf3>:
   848d0:	0042      	lsls	r2, r0, #1
   848d2:	bf1f      	itttt	ne
   848d4:	ea5f 0341 	movsne.w	r3, r1, lsl #1
   848d8:	ea92 0f03 	teqne	r2, r3
   848dc:	ea7f 6c22 	mvnsne.w	ip, r2, asr #24
   848e0:	ea7f 6c23 	mvnsne.w	ip, r3, asr #24
   848e4:	d06a      	beq.n	849bc <__addsf3+0xec>
   848e6:	ea4f 6212 	mov.w	r2, r2, lsr #24
   848ea:	ebd2 6313 	rsbs	r3, r2, r3, lsr #24
   848ee:	bfc1      	itttt	gt
   848f0:	18d2      	addgt	r2, r2, r3
   848f2:	4041      	eorgt	r1, r0
   848f4:	4048      	eorgt	r0, r1
   848f6:	4041      	eorgt	r1, r0
   848f8:	bfb8      	it	lt
   848fa:	425b      	neglt	r3, r3
   848fc:	2b19      	cmp	r3, #25
   848fe:	bf88      	it	hi
   84900:	4770      	bxhi	lr
   84902:	f010 4f00 	tst.w	r0, #2147483648	; 0x80000000
   84906:	f440 0000 	orr.w	r0, r0, #8388608	; 0x800000
   8490a:	f020 407f 	bic.w	r0, r0, #4278190080	; 0xff000000
   8490e:	bf18      	it	ne
   84910:	4240      	negne	r0, r0
   84912:	f011 4f00 	tst.w	r1, #2147483648	; 0x80000000
   84916:	f441 0100 	orr.w	r1, r1, #8388608	; 0x800000
   8491a:	f021 417f 	bic.w	r1, r1, #4278190080	; 0xff000000
   8491e:	bf18      	it	ne
   84920:	4249      	negne	r1, r1
   84922:	ea92 0f03 	teq	r2, r3
   84926:	d03f      	beq.n	849a8 <__addsf3+0xd8>
   84928:	f1a2 0201 	sub.w	r2, r2, #1
   8492c:	fa41 fc03 	asr.w	ip, r1, r3
   84930:	eb10 000c 	adds.w	r0, r0, ip
   84934:	f1c3 0320 	rsb	r3, r3, #32
   84938:	fa01 f103 	lsl.w	r1, r1, r3
   8493c:	f000 4300 	and.w	r3, r0, #2147483648	; 0x80000000
   84940:	d502      	bpl.n	84948 <__addsf3+0x78>
   84942:	4249      	negs	r1, r1
   84944:	eb60 0040 	sbc.w	r0, r0, r0, lsl #1
   84948:	f5b0 0f00 	cmp.w	r0, #8388608	; 0x800000
   8494c:	d313      	bcc.n	84976 <__addsf3+0xa6>
   8494e:	f1b0 7f80 	cmp.w	r0, #16777216	; 0x1000000
   84952:	d306      	bcc.n	84962 <__addsf3+0x92>
   84954:	0840      	lsrs	r0, r0, #1
   84956:	ea4f 0131 	mov.w	r1, r1, rrx
   8495a:	f102 0201 	add.w	r2, r2, #1
   8495e:	2afe      	cmp	r2, #254	; 0xfe
   84960:	d251      	bcs.n	84a06 <__addsf3+0x136>
   84962:	f1b1 4f00 	cmp.w	r1, #2147483648	; 0x80000000
   84966:	eb40 50c2 	adc.w	r0, r0, r2, lsl #23
   8496a:	bf08      	it	eq
   8496c:	f020 0001 	biceq.w	r0, r0, #1
   84970:	ea40 0003 	orr.w	r0, r0, r3
   84974:	4770      	bx	lr
   84976:	0049      	lsls	r1, r1, #1
   84978:	eb40 0000 	adc.w	r0, r0, r0
   8497c:	f410 0f00 	tst.w	r0, #8388608	; 0x800000
   84980:	f1a2 0201 	sub.w	r2, r2, #1
   84984:	d1ed      	bne.n	84962 <__addsf3+0x92>
   84986:	fab0 fc80 	clz	ip, r0
   8498a:	f1ac 0c08 	sub.w	ip, ip, #8
   8498e:	ebb2 020c 	subs.w	r2, r2, ip
   84992:	fa00 f00c 	lsl.w	r0, r0, ip
   84996:	bfaa      	itet	ge
   84998:	eb00 50c2 	addge.w	r0, r0, r2, lsl #23
   8499c:	4252      	neglt	r2, r2
   8499e:	4318      	orrge	r0, r3
   849a0:	bfbc      	itt	lt
   849a2:	40d0      	lsrlt	r0, r2
   849a4:	4318      	orrlt	r0, r3
   849a6:	4770      	bx	lr
   849a8:	f092 0f00 	teq	r2, #0
   849ac:	f481 0100 	eor.w	r1, r1, #8388608	; 0x800000
   849b0:	bf06      	itte	eq
   849b2:	f480 0000 	eoreq.w	r0, r0, #8388608	; 0x800000
   849b6:	3201      	addeq	r2, #1
   849b8:	3b01      	subne	r3, #1
   849ba:	e7b5      	b.n	84928 <__addsf3+0x58>
   849bc:	ea4f 0341 	mov.w	r3, r1, lsl #1
   849c0:	ea7f 6c22 	mvns.w	ip, r2, asr #24
   849c4:	bf18      	it	ne
   849c6:	ea7f 6c23 	mvnsne.w	ip, r3, asr #24
   849ca:	d021      	beq.n	84a10 <__addsf3+0x140>
   849cc:	ea92 0f03 	teq	r2, r3
   849d0:	d004      	beq.n	849dc <__addsf3+0x10c>
   849d2:	f092 0f00 	teq	r2, #0
   849d6:	bf08      	it	eq
   849d8:	4608      	moveq	r0, r1
   849da:	4770      	bx	lr
   849dc:	ea90 0f01 	teq	r0, r1
   849e0:	bf1c      	itt	ne
   849e2:	2000      	movne	r0, #0
   849e4:	4770      	bxne	lr
   849e6:	f012 4f7f 	tst.w	r2, #4278190080	; 0xff000000
   849ea:	d104      	bne.n	849f6 <__addsf3+0x126>
   849ec:	0040      	lsls	r0, r0, #1
   849ee:	bf28      	it	cs
   849f0:	f040 4000 	orrcs.w	r0, r0, #2147483648	; 0x80000000
   849f4:	4770      	bx	lr
   849f6:	f112 7200 	adds.w	r2, r2, #33554432	; 0x2000000
   849fa:	bf3c      	itt	cc
   849fc:	f500 0000 	addcc.w	r0, r0, #8388608	; 0x800000
   84a00:	4770      	bxcc	lr
   84a02:	f000 4300 	and.w	r3, r0, #2147483648	; 0x80000000
   84a06:	f043 40fe 	orr.w	r0, r3, #2130706432	; 0x7f000000
   84a0a:	f440 0000 	orr.w	r0, r0, #8388608	; 0x800000
   84a0e:	4770      	bx	lr
   84a10:	ea7f 6222 	mvns.w	r2, r2, asr #24
   84a14:	bf16      	itet	ne
   84a16:	4608      	movne	r0, r1
   84a18:	ea7f 6323 	mvnseq.w	r3, r3, asr #24
   84a1c:	4601      	movne	r1, r0
   84a1e:	0242      	lsls	r2, r0, #9
   84a20:	bf06      	itte	eq
   84a22:	ea5f 2341 	movseq.w	r3, r1, lsl #9
   84a26:	ea90 0f01 	teqeq	r0, r1
   84a2a:	f440 0080 	orrne.w	r0, r0, #4194304	; 0x400000
   84a2e:	4770      	bx	lr

00084a30 <__aeabi_ui2f>:
   84a30:	f04f 0300 	mov.w	r3, #0
   84a34:	e004      	b.n	84a40 <__aeabi_i2f+0x8>
   84a36:	bf00      	nop

00084a38 <__aeabi_i2f>:
   84a38:	f010 4300 	ands.w	r3, r0, #2147483648	; 0x80000000
   84a3c:	bf48      	it	mi
   84a3e:	4240      	negmi	r0, r0
   84a40:	ea5f 0c00 	movs.w	ip, r0
   84a44:	bf08      	it	eq
   84a46:	4770      	bxeq	lr
   84a48:	f043 4396 	orr.w	r3, r3, #1258291200	; 0x4b000000
   84a4c:	4601      	mov	r1, r0
   84a4e:	f04f 0000 	mov.w	r0, #0
   84a52:	e01c      	b.n	84a8e <__aeabi_l2f+0x2a>

00084a54 <__aeabi_ul2f>:
   84a54:	ea50 0201 	orrs.w	r2, r0, r1
   84a58:	bf08      	it	eq
   84a5a:	4770      	bxeq	lr
   84a5c:	f04f 0300 	mov.w	r3, #0
   84a60:	e00a      	b.n	84a78 <__aeabi_l2f+0x14>
   84a62:	bf00      	nop

00084a64 <__aeabi_l2f>:
   84a64:	ea50 0201 	orrs.w	r2, r0, r1
   84a68:	bf08      	it	eq
   84a6a:	4770      	bxeq	lr
   84a6c:	f011 4300 	ands.w	r3, r1, #2147483648	; 0x80000000
   84a70:	d502      	bpl.n	84a78 <__aeabi_l2f+0x14>
   84a72:	4240      	negs	r0, r0
   84a74:	eb61 0141 	sbc.w	r1, r1, r1, lsl #1
   84a78:	ea5f 0c01 	movs.w	ip, r1
   84a7c:	bf02      	ittt	eq
   84a7e:	4684      	moveq	ip, r0
   84a80:	4601      	moveq	r1, r0
   84a82:	2000      	moveq	r0, #0
   84a84:	f043 43b6 	orr.w	r3, r3, #1526726656	; 0x5b000000
   84a88:	bf08      	it	eq
   84a8a:	f1a3 5380 	subeq.w	r3, r3, #268435456	; 0x10000000
   84a8e:	f5a3 0300 	sub.w	r3, r3, #8388608	; 0x800000
   84a92:	fabc f28c 	clz	r2, ip
   84a96:	3a08      	subs	r2, #8
   84a98:	eba3 53c2 	sub.w	r3, r3, r2, lsl #23
   84a9c:	db10      	blt.n	84ac0 <__aeabi_l2f+0x5c>
   84a9e:	fa01 fc02 	lsl.w	ip, r1, r2
   84aa2:	4463      	add	r3, ip
   84aa4:	fa00 fc02 	lsl.w	ip, r0, r2
   84aa8:	f1c2 0220 	rsb	r2, r2, #32
   84aac:	f1bc 4f00 	cmp.w	ip, #2147483648	; 0x80000000
   84ab0:	fa20 f202 	lsr.w	r2, r0, r2
   84ab4:	eb43 0002 	adc.w	r0, r3, r2
   84ab8:	bf08      	it	eq
   84aba:	f020 0001 	biceq.w	r0, r0, #1
   84abe:	4770      	bx	lr
   84ac0:	f102 0220 	add.w	r2, r2, #32
   84ac4:	fa01 fc02 	lsl.w	ip, r1, r2
   84ac8:	f1c2 0220 	rsb	r2, r2, #32
   84acc:	ea50 004c 	orrs.w	r0, r0, ip, lsl #1
   84ad0:	fa21 f202 	lsr.w	r2, r1, r2
   84ad4:	eb43 0002 	adc.w	r0, r3, r2
   84ad8:	bf08      	it	eq
   84ada:	ea20 70dc 	biceq.w	r0, r0, ip, lsr #31
   84ade:	4770      	bx	lr

00084ae0 <__gesf2>:
   84ae0:	f04f 3cff 	mov.w	ip, #4294967295
   84ae4:	e006      	b.n	84af4 <__cmpsf2+0x4>
   84ae6:	bf00      	nop

00084ae8 <__lesf2>:
   84ae8:	f04f 0c01 	mov.w	ip, #1
   84aec:	e002      	b.n	84af4 <__cmpsf2+0x4>
   84aee:	bf00      	nop

00084af0 <__cmpsf2>:
   84af0:	f04f 0c01 	mov.w	ip, #1
   84af4:	f84d cd04 	str.w	ip, [sp, #-4]!
   84af8:	ea4f 0240 	mov.w	r2, r0, lsl #1
   84afc:	ea4f 0341 	mov.w	r3, r1, lsl #1
   84b00:	ea7f 6c22 	mvns.w	ip, r2, asr #24
   84b04:	bf18      	it	ne
   84b06:	ea7f 6c23 	mvnsne.w	ip, r3, asr #24
   84b0a:	d011      	beq.n	84b30 <__cmpsf2+0x40>
   84b0c:	b001      	add	sp, #4
   84b0e:	ea52 0c53 	orrs.w	ip, r2, r3, lsr #1
   84b12:	bf18      	it	ne
   84b14:	ea90 0f01 	teqne	r0, r1
   84b18:	bf58      	it	pl
   84b1a:	ebb2 0003 	subspl.w	r0, r2, r3
   84b1e:	bf88      	it	hi
   84b20:	17c8      	asrhi	r0, r1, #31
   84b22:	bf38      	it	cc
   84b24:	ea6f 70e1 	mvncc.w	r0, r1, asr #31
   84b28:	bf18      	it	ne
   84b2a:	f040 0001 	orrne.w	r0, r0, #1
   84b2e:	4770      	bx	lr
   84b30:	ea7f 6c22 	mvns.w	ip, r2, asr #24
   84b34:	d102      	bne.n	84b3c <__cmpsf2+0x4c>
   84b36:	ea5f 2c40 	movs.w	ip, r0, lsl #9
   84b3a:	d105      	bne.n	84b48 <__cmpsf2+0x58>
   84b3c:	ea7f 6c23 	mvns.w	ip, r3, asr #24
   84b40:	d1e4      	bne.n	84b0c <__cmpsf2+0x1c>
   84b42:	ea5f 2c41 	movs.w	ip, r1, lsl #9
   84b46:	d0e1      	beq.n	84b0c <__cmpsf2+0x1c>
   84b48:	f85d 0b04 	ldr.w	r0, [sp], #4
   84b4c:	4770      	bx	lr
   84b4e:	bf00      	nop

00084b50 <__aeabi_cfrcmple>:
   84b50:	4684      	mov	ip, r0
   84b52:	4608      	mov	r0, r1
   84b54:	4661      	mov	r1, ip
   84b56:	e7ff      	b.n	84b58 <__aeabi_cfcmpeq>

00084b58 <__aeabi_cfcmpeq>:
   84b58:	b50f      	push	{r0, r1, r2, r3, lr}
   84b5a:	f7ff ffc9 	bl	84af0 <__cmpsf2>
   84b5e:	2800      	cmp	r0, #0
   84b60:	bf48      	it	mi
   84b62:	f110 0f00 	cmnmi.w	r0, #0
   84b66:	bd0f      	pop	{r0, r1, r2, r3, pc}

00084b68 <__aeabi_fcmpeq>:
   84b68:	f84d ed08 	str.w	lr, [sp, #-8]!
   84b6c:	f7ff fff4 	bl	84b58 <__aeabi_cfcmpeq>
   84b70:	bf0c      	ite	eq
   84b72:	2001      	moveq	r0, #1
   84b74:	2000      	movne	r0, #0
   84b76:	f85d fb08 	ldr.w	pc, [sp], #8
   84b7a:	bf00      	nop

00084b7c <__aeabi_fcmplt>:
   84b7c:	f84d ed08 	str.w	lr, [sp, #-8]!
   84b80:	f7ff ffea 	bl	84b58 <__aeabi_cfcmpeq>
   84b84:	bf34      	ite	cc
   84b86:	2001      	movcc	r0, #1
   84b88:	2000      	movcs	r0, #0
   84b8a:	f85d fb08 	ldr.w	pc, [sp], #8
   84b8e:	bf00      	nop

00084b90 <__aeabi_fcmple>:
   84b90:	f84d ed08 	str.w	lr, [sp, #-8]!
   84b94:	f7ff ffe0 	bl	84b58 <__aeabi_cfcmpeq>
   84b98:	bf94      	ite	ls
   84b9a:	2001      	movls	r0, #1
   84b9c:	2000      	movhi	r0, #0
   84b9e:	f85d fb08 	ldr.w	pc, [sp], #8
   84ba2:	bf00      	nop

00084ba4 <__aeabi_fcmpge>:
   84ba4:	f84d ed08 	str.w	lr, [sp, #-8]!
   84ba8:	f7ff ffd2 	bl	84b50 <__aeabi_cfrcmple>
   84bac:	bf94      	ite	ls
   84bae:	2001      	movls	r0, #1
   84bb0:	2000      	movhi	r0, #0
   84bb2:	f85d fb08 	ldr.w	pc, [sp], #8
   84bb6:	bf00      	nop

00084bb8 <__aeabi_fcmpgt>:
   84bb8:	f84d ed08 	str.w	lr, [sp, #-8]!
   84bbc:	f7ff ffc8 	bl	84b50 <__aeabi_cfrcmple>
   84bc0:	bf34      	ite	cc
   84bc2:	2001      	movcc	r0, #1
   84bc4:	2000      	movcs	r0, #0
   84bc6:	f85d fb08 	ldr.w	pc, [sp], #8
   84bca:	bf00      	nop

00084bcc <__errno>:
   84bcc:	4b01      	ldr	r3, [pc, #4]	; (84bd4 <__errno+0x8>)
   84bce:	6818      	ldr	r0, [r3, #0]
   84bd0:	4770      	bx	lr
   84bd2:	bf00      	nop
   84bd4:	200705d0 	.word	0x200705d0

00084bd8 <__libc_init_array>:
   84bd8:	b570      	push	{r4, r5, r6, lr}
   84bda:	4e0f      	ldr	r6, [pc, #60]	; (84c18 <__libc_init_array+0x40>)
   84bdc:	4d0f      	ldr	r5, [pc, #60]	; (84c1c <__libc_init_array+0x44>)
   84bde:	1b76      	subs	r6, r6, r5
   84be0:	10b6      	asrs	r6, r6, #2
   84be2:	bf18      	it	ne
   84be4:	2400      	movne	r4, #0
   84be6:	d005      	beq.n	84bf4 <__libc_init_array+0x1c>
   84be8:	3401      	adds	r4, #1
   84bea:	f855 3b04 	ldr.w	r3, [r5], #4
   84bee:	4798      	blx	r3
   84bf0:	42a6      	cmp	r6, r4
   84bf2:	d1f9      	bne.n	84be8 <__libc_init_array+0x10>
   84bf4:	4e0a      	ldr	r6, [pc, #40]	; (84c20 <__libc_init_array+0x48>)
   84bf6:	4d0b      	ldr	r5, [pc, #44]	; (84c24 <__libc_init_array+0x4c>)
   84bf8:	f003 f94a 	bl	87e90 <_init>
   84bfc:	1b76      	subs	r6, r6, r5
   84bfe:	10b6      	asrs	r6, r6, #2
   84c00:	bf18      	it	ne
   84c02:	2400      	movne	r4, #0
   84c04:	d006      	beq.n	84c14 <__libc_init_array+0x3c>
   84c06:	3401      	adds	r4, #1
   84c08:	f855 3b04 	ldr.w	r3, [r5], #4
   84c0c:	4798      	blx	r3
   84c0e:	42a6      	cmp	r6, r4
   84c10:	d1f9      	bne.n	84c06 <__libc_init_array+0x2e>
   84c12:	bd70      	pop	{r4, r5, r6, pc}
   84c14:	bd70      	pop	{r4, r5, r6, pc}
   84c16:	bf00      	nop
   84c18:	00087e9c 	.word	0x00087e9c
   84c1c:	00087e9c 	.word	0x00087e9c
   84c20:	00087ea4 	.word	0x00087ea4
   84c24:	00087e9c 	.word	0x00087e9c

00084c28 <iprintf>:
   84c28:	b40f      	push	{r0, r1, r2, r3}
   84c2a:	b510      	push	{r4, lr}
   84c2c:	4b07      	ldr	r3, [pc, #28]	; (84c4c <iprintf+0x24>)
   84c2e:	b082      	sub	sp, #8
   84c30:	ac04      	add	r4, sp, #16
   84c32:	f854 2b04 	ldr.w	r2, [r4], #4
   84c36:	6818      	ldr	r0, [r3, #0]
   84c38:	4623      	mov	r3, r4
   84c3a:	6881      	ldr	r1, [r0, #8]
   84c3c:	9401      	str	r4, [sp, #4]
   84c3e:	f000 f9ed 	bl	8501c <_vfiprintf_r>
   84c42:	b002      	add	sp, #8
   84c44:	e8bd 4010 	ldmia.w	sp!, {r4, lr}
   84c48:	b004      	add	sp, #16
   84c4a:	4770      	bx	lr
   84c4c:	200705d0 	.word	0x200705d0

00084c50 <memcpy>:
   84c50:	4684      	mov	ip, r0
   84c52:	ea41 0300 	orr.w	r3, r1, r0
   84c56:	f013 0303 	ands.w	r3, r3, #3
   84c5a:	d149      	bne.n	84cf0 <memcpy+0xa0>
   84c5c:	3a40      	subs	r2, #64	; 0x40
   84c5e:	d323      	bcc.n	84ca8 <memcpy+0x58>
   84c60:	680b      	ldr	r3, [r1, #0]
   84c62:	6003      	str	r3, [r0, #0]
   84c64:	684b      	ldr	r3, [r1, #4]
   84c66:	6043      	str	r3, [r0, #4]
   84c68:	688b      	ldr	r3, [r1, #8]
   84c6a:	6083      	str	r3, [r0, #8]
   84c6c:	68cb      	ldr	r3, [r1, #12]
   84c6e:	60c3      	str	r3, [r0, #12]
   84c70:	690b      	ldr	r3, [r1, #16]
   84c72:	6103      	str	r3, [r0, #16]
   84c74:	694b      	ldr	r3, [r1, #20]
   84c76:	6143      	str	r3, [r0, #20]
   84c78:	698b      	ldr	r3, [r1, #24]
   84c7a:	6183      	str	r3, [r0, #24]
   84c7c:	69cb      	ldr	r3, [r1, #28]
   84c7e:	61c3      	str	r3, [r0, #28]
   84c80:	6a0b      	ldr	r3, [r1, #32]
   84c82:	6203      	str	r3, [r0, #32]
   84c84:	6a4b      	ldr	r3, [r1, #36]	; 0x24
   84c86:	6243      	str	r3, [r0, #36]	; 0x24
   84c88:	6a8b      	ldr	r3, [r1, #40]	; 0x28
   84c8a:	6283      	str	r3, [r0, #40]	; 0x28
   84c8c:	6acb      	ldr	r3, [r1, #44]	; 0x2c
   84c8e:	62c3      	str	r3, [r0, #44]	; 0x2c
   84c90:	6b0b      	ldr	r3, [r1, #48]	; 0x30
   84c92:	6303      	str	r3, [r0, #48]	; 0x30
   84c94:	6b4b      	ldr	r3, [r1, #52]	; 0x34
   84c96:	6343      	str	r3, [r0, #52]	; 0x34
   84c98:	6b8b      	ldr	r3, [r1, #56]	; 0x38
   84c9a:	6383      	str	r3, [r0, #56]	; 0x38
   84c9c:	6bcb      	ldr	r3, [r1, #60]	; 0x3c
   84c9e:	63c3      	str	r3, [r0, #60]	; 0x3c
   84ca0:	3040      	adds	r0, #64	; 0x40
   84ca2:	3140      	adds	r1, #64	; 0x40
   84ca4:	3a40      	subs	r2, #64	; 0x40
   84ca6:	d2db      	bcs.n	84c60 <memcpy+0x10>
   84ca8:	3230      	adds	r2, #48	; 0x30
   84caa:	d30b      	bcc.n	84cc4 <memcpy+0x74>
   84cac:	680b      	ldr	r3, [r1, #0]
   84cae:	6003      	str	r3, [r0, #0]
   84cb0:	684b      	ldr	r3, [r1, #4]
   84cb2:	6043      	str	r3, [r0, #4]
   84cb4:	688b      	ldr	r3, [r1, #8]
   84cb6:	6083      	str	r3, [r0, #8]
   84cb8:	68cb      	ldr	r3, [r1, #12]
   84cba:	60c3      	str	r3, [r0, #12]
   84cbc:	3010      	adds	r0, #16
   84cbe:	3110      	adds	r1, #16
   84cc0:	3a10      	subs	r2, #16
   84cc2:	d2f3      	bcs.n	84cac <memcpy+0x5c>
   84cc4:	320c      	adds	r2, #12
   84cc6:	d305      	bcc.n	84cd4 <memcpy+0x84>
   84cc8:	f851 3b04 	ldr.w	r3, [r1], #4
   84ccc:	f840 3b04 	str.w	r3, [r0], #4
   84cd0:	3a04      	subs	r2, #4
   84cd2:	d2f9      	bcs.n	84cc8 <memcpy+0x78>
   84cd4:	3204      	adds	r2, #4
   84cd6:	d008      	beq.n	84cea <memcpy+0x9a>
   84cd8:	07d2      	lsls	r2, r2, #31
   84cda:	bf1c      	itt	ne
   84cdc:	f811 3b01 	ldrbne.w	r3, [r1], #1
   84ce0:	f800 3b01 	strbne.w	r3, [r0], #1
   84ce4:	d301      	bcc.n	84cea <memcpy+0x9a>
   84ce6:	880b      	ldrh	r3, [r1, #0]
   84ce8:	8003      	strh	r3, [r0, #0]
   84cea:	4660      	mov	r0, ip
   84cec:	4770      	bx	lr
   84cee:	bf00      	nop
   84cf0:	2a08      	cmp	r2, #8
   84cf2:	d313      	bcc.n	84d1c <memcpy+0xcc>
   84cf4:	078b      	lsls	r3, r1, #30
   84cf6:	d0b1      	beq.n	84c5c <memcpy+0xc>
   84cf8:	f010 0303 	ands.w	r3, r0, #3
   84cfc:	d0ae      	beq.n	84c5c <memcpy+0xc>
   84cfe:	f1c3 0304 	rsb	r3, r3, #4
   84d02:	1ad2      	subs	r2, r2, r3
   84d04:	07db      	lsls	r3, r3, #31
   84d06:	bf1c      	itt	ne
   84d08:	f811 3b01 	ldrbne.w	r3, [r1], #1
   84d0c:	f800 3b01 	strbne.w	r3, [r0], #1
   84d10:	d3a4      	bcc.n	84c5c <memcpy+0xc>
   84d12:	f831 3b02 	ldrh.w	r3, [r1], #2
   84d16:	f820 3b02 	strh.w	r3, [r0], #2
   84d1a:	e79f      	b.n	84c5c <memcpy+0xc>
   84d1c:	3a04      	subs	r2, #4
   84d1e:	d3d9      	bcc.n	84cd4 <memcpy+0x84>
   84d20:	3a01      	subs	r2, #1
   84d22:	f811 3b01 	ldrb.w	r3, [r1], #1
   84d26:	f800 3b01 	strb.w	r3, [r0], #1
   84d2a:	d2f9      	bcs.n	84d20 <memcpy+0xd0>
   84d2c:	780b      	ldrb	r3, [r1, #0]
   84d2e:	7003      	strb	r3, [r0, #0]
   84d30:	784b      	ldrb	r3, [r1, #1]
   84d32:	7043      	strb	r3, [r0, #1]
   84d34:	788b      	ldrb	r3, [r1, #2]
   84d36:	7083      	strb	r3, [r0, #2]
   84d38:	4660      	mov	r0, ip
   84d3a:	4770      	bx	lr

00084d3c <memset>:
   84d3c:	b470      	push	{r4, r5, r6}
   84d3e:	0784      	lsls	r4, r0, #30
   84d40:	d046      	beq.n	84dd0 <memset+0x94>
   84d42:	1e54      	subs	r4, r2, #1
   84d44:	2a00      	cmp	r2, #0
   84d46:	d041      	beq.n	84dcc <memset+0x90>
   84d48:	b2cd      	uxtb	r5, r1
   84d4a:	4603      	mov	r3, r0
   84d4c:	e002      	b.n	84d54 <memset+0x18>
   84d4e:	1e62      	subs	r2, r4, #1
   84d50:	b3e4      	cbz	r4, 84dcc <memset+0x90>
   84d52:	4614      	mov	r4, r2
   84d54:	f803 5b01 	strb.w	r5, [r3], #1
   84d58:	079a      	lsls	r2, r3, #30
   84d5a:	d1f8      	bne.n	84d4e <memset+0x12>
   84d5c:	2c03      	cmp	r4, #3
   84d5e:	d92e      	bls.n	84dbe <memset+0x82>
   84d60:	b2cd      	uxtb	r5, r1
   84d62:	ea45 2505 	orr.w	r5, r5, r5, lsl #8
   84d66:	2c0f      	cmp	r4, #15
   84d68:	ea45 4505 	orr.w	r5, r5, r5, lsl #16
   84d6c:	d919      	bls.n	84da2 <memset+0x66>
   84d6e:	4626      	mov	r6, r4
   84d70:	f103 0210 	add.w	r2, r3, #16
   84d74:	3e10      	subs	r6, #16
   84d76:	2e0f      	cmp	r6, #15
   84d78:	f842 5c10 	str.w	r5, [r2, #-16]
   84d7c:	f842 5c0c 	str.w	r5, [r2, #-12]
   84d80:	f842 5c08 	str.w	r5, [r2, #-8]
   84d84:	f842 5c04 	str.w	r5, [r2, #-4]
   84d88:	f102 0210 	add.w	r2, r2, #16
   84d8c:	d8f2      	bhi.n	84d74 <memset+0x38>
   84d8e:	f1a4 0210 	sub.w	r2, r4, #16
   84d92:	f022 020f 	bic.w	r2, r2, #15
   84d96:	f004 040f 	and.w	r4, r4, #15
   84d9a:	3210      	adds	r2, #16
   84d9c:	2c03      	cmp	r4, #3
   84d9e:	4413      	add	r3, r2
   84da0:	d90d      	bls.n	84dbe <memset+0x82>
   84da2:	461e      	mov	r6, r3
   84da4:	4622      	mov	r2, r4
   84da6:	3a04      	subs	r2, #4
   84da8:	2a03      	cmp	r2, #3
   84daa:	f846 5b04 	str.w	r5, [r6], #4
   84dae:	d8fa      	bhi.n	84da6 <memset+0x6a>
   84db0:	1f22      	subs	r2, r4, #4
   84db2:	f022 0203 	bic.w	r2, r2, #3
   84db6:	3204      	adds	r2, #4
   84db8:	4413      	add	r3, r2
   84dba:	f004 0403 	and.w	r4, r4, #3
   84dbe:	b12c      	cbz	r4, 84dcc <memset+0x90>
   84dc0:	b2c9      	uxtb	r1, r1
   84dc2:	441c      	add	r4, r3
   84dc4:	f803 1b01 	strb.w	r1, [r3], #1
   84dc8:	42a3      	cmp	r3, r4
   84dca:	d1fb      	bne.n	84dc4 <memset+0x88>
   84dcc:	bc70      	pop	{r4, r5, r6}
   84dce:	4770      	bx	lr
   84dd0:	4614      	mov	r4, r2
   84dd2:	4603      	mov	r3, r0
   84dd4:	e7c2      	b.n	84d5c <memset+0x20>
   84dd6:	bf00      	nop

00084dd8 <setbuf>:
   84dd8:	2900      	cmp	r1, #0
   84dda:	bf0c      	ite	eq
   84ddc:	2202      	moveq	r2, #2
   84dde:	2200      	movne	r2, #0
   84de0:	f44f 6380 	mov.w	r3, #1024	; 0x400
   84de4:	f000 b800 	b.w	84de8 <setvbuf>

00084de8 <setvbuf>:
   84de8:	e92d 41f0 	stmdb	sp!, {r4, r5, r6, r7, r8, lr}
   84dec:	4d3a      	ldr	r5, [pc, #232]	; (84ed8 <setvbuf+0xf0>)
   84dee:	4604      	mov	r4, r0
   84df0:	682e      	ldr	r6, [r5, #0]
   84df2:	4690      	mov	r8, r2
   84df4:	460d      	mov	r5, r1
   84df6:	461f      	mov	r7, r3
   84df8:	b116      	cbz	r6, 84e00 <setvbuf+0x18>
   84dfa:	6bb3      	ldr	r3, [r6, #56]	; 0x38
   84dfc:	2b00      	cmp	r3, #0
   84dfe:	d03c      	beq.n	84e7a <setvbuf+0x92>
   84e00:	f1b8 0f02 	cmp.w	r8, #2
   84e04:	d82f      	bhi.n	84e66 <setvbuf+0x7e>
   84e06:	2f00      	cmp	r7, #0
   84e08:	db2d      	blt.n	84e66 <setvbuf+0x7e>
   84e0a:	4621      	mov	r1, r4
   84e0c:	4630      	mov	r0, r6
   84e0e:	f001 f861 	bl	85ed4 <_fflush_r>
   84e12:	89a1      	ldrh	r1, [r4, #12]
   84e14:	2300      	movs	r3, #0
   84e16:	6063      	str	r3, [r4, #4]
   84e18:	61a3      	str	r3, [r4, #24]
   84e1a:	060b      	lsls	r3, r1, #24
   84e1c:	d427      	bmi.n	84e6e <setvbuf+0x86>
   84e1e:	f021 0183 	bic.w	r1, r1, #131	; 0x83
   84e22:	b289      	uxth	r1, r1
   84e24:	f1b8 0f02 	cmp.w	r8, #2
   84e28:	81a1      	strh	r1, [r4, #12]
   84e2a:	d02a      	beq.n	84e82 <setvbuf+0x9a>
   84e2c:	2d00      	cmp	r5, #0
   84e2e:	d036      	beq.n	84e9e <setvbuf+0xb6>
   84e30:	f1b8 0f01 	cmp.w	r8, #1
   84e34:	d011      	beq.n	84e5a <setvbuf+0x72>
   84e36:	b289      	uxth	r1, r1
   84e38:	f001 0008 	and.w	r0, r1, #8
   84e3c:	4b27      	ldr	r3, [pc, #156]	; (84edc <setvbuf+0xf4>)
   84e3e:	b280      	uxth	r0, r0
   84e40:	63f3      	str	r3, [r6, #60]	; 0x3c
   84e42:	6025      	str	r5, [r4, #0]
   84e44:	6125      	str	r5, [r4, #16]
   84e46:	6167      	str	r7, [r4, #20]
   84e48:	b178      	cbz	r0, 84e6a <setvbuf+0x82>
   84e4a:	f011 0f03 	tst.w	r1, #3
   84e4e:	bf18      	it	ne
   84e50:	2700      	movne	r7, #0
   84e52:	2000      	movs	r0, #0
   84e54:	60a7      	str	r7, [r4, #8]
   84e56:	e8bd 81f0 	ldmia.w	sp!, {r4, r5, r6, r7, r8, pc}
   84e5a:	f041 0101 	orr.w	r1, r1, #1
   84e5e:	427b      	negs	r3, r7
   84e60:	81a1      	strh	r1, [r4, #12]
   84e62:	61a3      	str	r3, [r4, #24]
   84e64:	e7e7      	b.n	84e36 <setvbuf+0x4e>
   84e66:	f04f 30ff 	mov.w	r0, #4294967295
   84e6a:	e8bd 81f0 	ldmia.w	sp!, {r4, r5, r6, r7, r8, pc}
   84e6e:	6921      	ldr	r1, [r4, #16]
   84e70:	4630      	mov	r0, r6
   84e72:	f001 f99b 	bl	861ac <_free_r>
   84e76:	89a1      	ldrh	r1, [r4, #12]
   84e78:	e7d1      	b.n	84e1e <setvbuf+0x36>
   84e7a:	4630      	mov	r0, r6
   84e7c:	f001 f8be 	bl	85ffc <__sinit>
   84e80:	e7be      	b.n	84e00 <setvbuf+0x18>
   84e82:	2000      	movs	r0, #0
   84e84:	f104 0343 	add.w	r3, r4, #67	; 0x43
   84e88:	f041 0102 	orr.w	r1, r1, #2
   84e8c:	2500      	movs	r5, #0
   84e8e:	2201      	movs	r2, #1
   84e90:	81a1      	strh	r1, [r4, #12]
   84e92:	60a5      	str	r5, [r4, #8]
   84e94:	6023      	str	r3, [r4, #0]
   84e96:	6123      	str	r3, [r4, #16]
   84e98:	6162      	str	r2, [r4, #20]
   84e9a:	e8bd 81f0 	ldmia.w	sp!, {r4, r5, r6, r7, r8, pc}
   84e9e:	2f00      	cmp	r7, #0
   84ea0:	bf08      	it	eq
   84ea2:	f44f 6780 	moveq.w	r7, #1024	; 0x400
   84ea6:	4638      	mov	r0, r7
   84ea8:	f001 fc8a 	bl	867c0 <malloc>
   84eac:	4605      	mov	r5, r0
   84eae:	b128      	cbz	r0, 84ebc <setvbuf+0xd4>
   84eb0:	89a1      	ldrh	r1, [r4, #12]
   84eb2:	f041 0180 	orr.w	r1, r1, #128	; 0x80
   84eb6:	b289      	uxth	r1, r1
   84eb8:	81a1      	strh	r1, [r4, #12]
   84eba:	e7b9      	b.n	84e30 <setvbuf+0x48>
   84ebc:	f44f 6080 	mov.w	r0, #1024	; 0x400
   84ec0:	f001 fc7e 	bl	867c0 <malloc>
   84ec4:	4605      	mov	r5, r0
   84ec6:	b918      	cbnz	r0, 84ed0 <setvbuf+0xe8>
   84ec8:	89a1      	ldrh	r1, [r4, #12]
   84eca:	f04f 30ff 	mov.w	r0, #4294967295
   84ece:	e7d9      	b.n	84e84 <setvbuf+0x9c>
   84ed0:	f44f 6780 	mov.w	r7, #1024	; 0x400
   84ed4:	e7ec      	b.n	84eb0 <setvbuf+0xc8>
   84ed6:	bf00      	nop
   84ed8:	200705d0 	.word	0x200705d0
   84edc:	00085f01 	.word	0x00085f01

00084ee0 <strlen>:
   84ee0:	f020 0103 	bic.w	r1, r0, #3
   84ee4:	f010 0003 	ands.w	r0, r0, #3
   84ee8:	f1c0 0000 	rsb	r0, r0, #0
   84eec:	f851 3b04 	ldr.w	r3, [r1], #4
   84ef0:	f100 0c04 	add.w	ip, r0, #4
   84ef4:	ea4f 0ccc 	mov.w	ip, ip, lsl #3
   84ef8:	f06f 0200 	mvn.w	r2, #0
   84efc:	bf1c      	itt	ne
   84efe:	fa22 f20c 	lsrne.w	r2, r2, ip
   84f02:	4313      	orrne	r3, r2
   84f04:	f04f 0c01 	mov.w	ip, #1
   84f08:	ea4c 2c0c 	orr.w	ip, ip, ip, lsl #8
   84f0c:	ea4c 4c0c 	orr.w	ip, ip, ip, lsl #16
   84f10:	eba3 020c 	sub.w	r2, r3, ip
   84f14:	ea22 0203 	bic.w	r2, r2, r3
   84f18:	ea12 12cc 	ands.w	r2, r2, ip, lsl #7
   84f1c:	bf04      	itt	eq
   84f1e:	f851 3b04 	ldreq.w	r3, [r1], #4
   84f22:	3004      	addeq	r0, #4
   84f24:	d0f4      	beq.n	84f10 <strlen+0x30>
   84f26:	f1c2 0100 	rsb	r1, r2, #0
   84f2a:	ea02 0201 	and.w	r2, r2, r1
   84f2e:	fab2 f282 	clz	r2, r2
   84f32:	f1c2 021f 	rsb	r2, r2, #31
   84f36:	eb00 00d2 	add.w	r0, r0, r2, lsr #3
   84f3a:	4770      	bx	lr

00084f3c <strncpy>:
   84f3c:	ea40 0301 	orr.w	r3, r0, r1
   84f40:	079b      	lsls	r3, r3, #30
   84f42:	b470      	push	{r4, r5, r6}
   84f44:	d12b      	bne.n	84f9e <strncpy+0x62>
   84f46:	2a03      	cmp	r2, #3
   84f48:	d929      	bls.n	84f9e <strncpy+0x62>
   84f4a:	460c      	mov	r4, r1
   84f4c:	4603      	mov	r3, r0
   84f4e:	4621      	mov	r1, r4
   84f50:	f854 6b04 	ldr.w	r6, [r4], #4
   84f54:	f1a6 3501 	sub.w	r5, r6, #16843009	; 0x1010101
   84f58:	ea25 0506 	bic.w	r5, r5, r6
   84f5c:	f015 3f80 	tst.w	r5, #2155905152	; 0x80808080
   84f60:	d105      	bne.n	84f6e <strncpy+0x32>
   84f62:	3a04      	subs	r2, #4
   84f64:	2a03      	cmp	r2, #3
   84f66:	f843 6b04 	str.w	r6, [r3], #4
   84f6a:	4621      	mov	r1, r4
   84f6c:	d8ef      	bhi.n	84f4e <strncpy+0x12>
   84f6e:	b1a2      	cbz	r2, 84f9a <strncpy+0x5e>
   84f70:	780c      	ldrb	r4, [r1, #0]
   84f72:	3a01      	subs	r2, #1
   84f74:	701c      	strb	r4, [r3, #0]
   84f76:	3101      	adds	r1, #1
   84f78:	3301      	adds	r3, #1
   84f7a:	b13c      	cbz	r4, 84f8c <strncpy+0x50>
   84f7c:	b16a      	cbz	r2, 84f9a <strncpy+0x5e>
   84f7e:	f811 4b01 	ldrb.w	r4, [r1], #1
   84f82:	3a01      	subs	r2, #1
   84f84:	f803 4b01 	strb.w	r4, [r3], #1
   84f88:	2c00      	cmp	r4, #0
   84f8a:	d1f7      	bne.n	84f7c <strncpy+0x40>
   84f8c:	b12a      	cbz	r2, 84f9a <strncpy+0x5e>
   84f8e:	441a      	add	r2, r3
   84f90:	2100      	movs	r1, #0
   84f92:	f803 1b01 	strb.w	r1, [r3], #1
   84f96:	4293      	cmp	r3, r2
   84f98:	d1fb      	bne.n	84f92 <strncpy+0x56>
   84f9a:	bc70      	pop	{r4, r5, r6}
   84f9c:	4770      	bx	lr
   84f9e:	4603      	mov	r3, r0
   84fa0:	e7e5      	b.n	84f6e <strncpy+0x32>
   84fa2:	bf00      	nop

00084fa4 <__sprint_r.part.0>:
   84fa4:	6e4b      	ldr	r3, [r1, #100]	; 0x64
   84fa6:	e92d 47f0 	stmdb	sp!, {r4, r5, r6, r7, r8, r9, sl, lr}
   84faa:	049c      	lsls	r4, r3, #18
   84fac:	460f      	mov	r7, r1
   84fae:	4692      	mov	sl, r2
   84fb0:	d52b      	bpl.n	8500a <__sprint_r.part.0+0x66>
   84fb2:	6893      	ldr	r3, [r2, #8]
   84fb4:	6812      	ldr	r2, [r2, #0]
   84fb6:	b333      	cbz	r3, 85006 <__sprint_r.part.0+0x62>
   84fb8:	4680      	mov	r8, r0
   84fba:	f102 0908 	add.w	r9, r2, #8
   84fbe:	e919 0060 	ldmdb	r9, {r5, r6}
   84fc2:	08b6      	lsrs	r6, r6, #2
   84fc4:	d017      	beq.n	84ff6 <__sprint_r.part.0+0x52>
   84fc6:	3d04      	subs	r5, #4
   84fc8:	2400      	movs	r4, #0
   84fca:	e001      	b.n	84fd0 <__sprint_r.part.0+0x2c>
   84fcc:	42a6      	cmp	r6, r4
   84fce:	d010      	beq.n	84ff2 <__sprint_r.part.0+0x4e>
   84fd0:	4640      	mov	r0, r8
   84fd2:	f855 1f04 	ldr.w	r1, [r5, #4]!
   84fd6:	463a      	mov	r2, r7
   84fd8:	f001 f888 	bl	860ec <_fputwc_r>
   84fdc:	1c43      	adds	r3, r0, #1
   84fde:	f104 0401 	add.w	r4, r4, #1
   84fe2:	d1f3      	bne.n	84fcc <__sprint_r.part.0+0x28>
   84fe4:	2300      	movs	r3, #0
   84fe6:	f8ca 3008 	str.w	r3, [sl, #8]
   84fea:	f8ca 3004 	str.w	r3, [sl, #4]
   84fee:	e8bd 87f0 	ldmia.w	sp!, {r4, r5, r6, r7, r8, r9, sl, pc}
   84ff2:	f8da 3008 	ldr.w	r3, [sl, #8]
   84ff6:	eba3 0386 	sub.w	r3, r3, r6, lsl #2
   84ffa:	f8ca 3008 	str.w	r3, [sl, #8]
   84ffe:	f109 0908 	add.w	r9, r9, #8
   85002:	2b00      	cmp	r3, #0
   85004:	d1db      	bne.n	84fbe <__sprint_r.part.0+0x1a>
   85006:	2000      	movs	r0, #0
   85008:	e7ec      	b.n	84fe4 <__sprint_r.part.0+0x40>
   8500a:	f001 f9a7 	bl	8635c <__sfvwrite_r>
   8500e:	2300      	movs	r3, #0
   85010:	f8ca 3008 	str.w	r3, [sl, #8]
   85014:	f8ca 3004 	str.w	r3, [sl, #4]
   85018:	e8bd 87f0 	ldmia.w	sp!, {r4, r5, r6, r7, r8, r9, sl, pc}

0008501c <_vfiprintf_r>:
   8501c:	e92d 4ff0 	stmdb	sp!, {r4, r5, r6, r7, r8, r9, sl, fp, lr}
   85020:	b0ab      	sub	sp, #172	; 0xac
   85022:	461c      	mov	r4, r3
   85024:	9100      	str	r1, [sp, #0]
   85026:	4693      	mov	fp, r2
   85028:	9304      	str	r3, [sp, #16]
   8502a:	9001      	str	r0, [sp, #4]
   8502c:	b118      	cbz	r0, 85036 <_vfiprintf_r+0x1a>
   8502e:	6b83      	ldr	r3, [r0, #56]	; 0x38
   85030:	2b00      	cmp	r3, #0
   85032:	f000 80e3 	beq.w	851fc <_vfiprintf_r+0x1e0>
   85036:	9b00      	ldr	r3, [sp, #0]
   85038:	8999      	ldrh	r1, [r3, #12]
   8503a:	b28a      	uxth	r2, r1
   8503c:	0490      	lsls	r0, r2, #18
   8503e:	d408      	bmi.n	85052 <_vfiprintf_r+0x36>
   85040:	4618      	mov	r0, r3
   85042:	6e5b      	ldr	r3, [r3, #100]	; 0x64
   85044:	f441 5200 	orr.w	r2, r1, #8192	; 0x2000
   85048:	f423 5300 	bic.w	r3, r3, #8192	; 0x2000
   8504c:	8182      	strh	r2, [r0, #12]
   8504e:	6643      	str	r3, [r0, #100]	; 0x64
   85050:	b292      	uxth	r2, r2
   85052:	0711      	lsls	r1, r2, #28
   85054:	f140 80b2 	bpl.w	851bc <_vfiprintf_r+0x1a0>
   85058:	9b00      	ldr	r3, [sp, #0]
   8505a:	691b      	ldr	r3, [r3, #16]
   8505c:	2b00      	cmp	r3, #0
   8505e:	f000 80ad 	beq.w	851bc <_vfiprintf_r+0x1a0>
   85062:	f002 021a 	and.w	r2, r2, #26
   85066:	2a0a      	cmp	r2, #10
   85068:	f000 80b4 	beq.w	851d4 <_vfiprintf_r+0x1b8>
   8506c:	f10d 0a68 	add.w	sl, sp, #104	; 0x68
   85070:	4654      	mov	r4, sl
   85072:	2300      	movs	r3, #0
   85074:	9309      	str	r3, [sp, #36]	; 0x24
   85076:	9302      	str	r3, [sp, #8]
   85078:	930f      	str	r3, [sp, #60]	; 0x3c
   8507a:	930e      	str	r3, [sp, #56]	; 0x38
   8507c:	f8cd a034 	str.w	sl, [sp, #52]	; 0x34
   85080:	f89b 3000 	ldrb.w	r3, [fp]
   85084:	2b00      	cmp	r3, #0
   85086:	f000 84a3 	beq.w	859d0 <_vfiprintf_r+0x9b4>
   8508a:	2b25      	cmp	r3, #37	; 0x25
   8508c:	f000 84a0 	beq.w	859d0 <_vfiprintf_r+0x9b4>
   85090:	465a      	mov	r2, fp
   85092:	e001      	b.n	85098 <_vfiprintf_r+0x7c>
   85094:	2b25      	cmp	r3, #37	; 0x25
   85096:	d003      	beq.n	850a0 <_vfiprintf_r+0x84>
   85098:	f812 3f01 	ldrb.w	r3, [r2, #1]!
   8509c:	2b00      	cmp	r3, #0
   8509e:	d1f9      	bne.n	85094 <_vfiprintf_r+0x78>
   850a0:	ebcb 0602 	rsb	r6, fp, r2
   850a4:	4615      	mov	r5, r2
   850a6:	b196      	cbz	r6, 850ce <_vfiprintf_r+0xb2>
   850a8:	9b0e      	ldr	r3, [sp, #56]	; 0x38
   850aa:	9a0f      	ldr	r2, [sp, #60]	; 0x3c
   850ac:	3301      	adds	r3, #1
   850ae:	4432      	add	r2, r6
   850b0:	2b07      	cmp	r3, #7
   850b2:	f8c4 b000 	str.w	fp, [r4]
   850b6:	6066      	str	r6, [r4, #4]
   850b8:	920f      	str	r2, [sp, #60]	; 0x3c
   850ba:	930e      	str	r3, [sp, #56]	; 0x38
   850bc:	dd79      	ble.n	851b2 <_vfiprintf_r+0x196>
   850be:	2a00      	cmp	r2, #0
   850c0:	f040 84ad 	bne.w	85a1e <_vfiprintf_r+0xa02>
   850c4:	4654      	mov	r4, sl
   850c6:	9b02      	ldr	r3, [sp, #8]
   850c8:	920e      	str	r2, [sp, #56]	; 0x38
   850ca:	4433      	add	r3, r6
   850cc:	9302      	str	r3, [sp, #8]
   850ce:	782b      	ldrb	r3, [r5, #0]
   850d0:	2b00      	cmp	r3, #0
   850d2:	f000 835f 	beq.w	85794 <_vfiprintf_r+0x778>
   850d6:	f04f 0300 	mov.w	r3, #0
   850da:	2100      	movs	r1, #0
   850dc:	f04f 3cff 	mov.w	ip, #4294967295
   850e0:	f88d 302f 	strb.w	r3, [sp, #47]	; 0x2f
   850e4:	1c68      	adds	r0, r5, #1
   850e6:	786b      	ldrb	r3, [r5, #1]
   850e8:	4688      	mov	r8, r1
   850ea:	460d      	mov	r5, r1
   850ec:	4666      	mov	r6, ip
   850ee:	f100 0b01 	add.w	fp, r0, #1
   850f2:	f1a3 0220 	sub.w	r2, r3, #32
   850f6:	2a58      	cmp	r2, #88	; 0x58
   850f8:	f200 82aa 	bhi.w	85650 <_vfiprintf_r+0x634>
   850fc:	e8df f012 	tbh	[pc, r2, lsl #1]
   85100:	02a8029a 	.word	0x02a8029a
   85104:	02a202a8 	.word	0x02a202a8
   85108:	02a802a8 	.word	0x02a802a8
   8510c:	02a802a8 	.word	0x02a802a8
   85110:	02a802a8 	.word	0x02a802a8
   85114:	02600254 	.word	0x02600254
   85118:	010d02a8 	.word	0x010d02a8
   8511c:	02a8026c 	.word	0x02a8026c
   85120:	012f0129 	.word	0x012f0129
   85124:	012f012f 	.word	0x012f012f
   85128:	012f012f 	.word	0x012f012f
   8512c:	012f012f 	.word	0x012f012f
   85130:	012f012f 	.word	0x012f012f
   85134:	02a802a8 	.word	0x02a802a8
   85138:	02a802a8 	.word	0x02a802a8
   8513c:	02a802a8 	.word	0x02a802a8
   85140:	02a802a8 	.word	0x02a802a8
   85144:	02a802a8 	.word	0x02a802a8
   85148:	02a8013d 	.word	0x02a8013d
   8514c:	02a802a8 	.word	0x02a802a8
   85150:	02a802a8 	.word	0x02a802a8
   85154:	02a802a8 	.word	0x02a802a8
   85158:	02a802a8 	.word	0x02a802a8
   8515c:	017402a8 	.word	0x017402a8
   85160:	02a802a8 	.word	0x02a802a8
   85164:	02a802a8 	.word	0x02a802a8
   85168:	018b02a8 	.word	0x018b02a8
   8516c:	02a802a8 	.word	0x02a802a8
   85170:	02a801a3 	.word	0x02a801a3
   85174:	02a802a8 	.word	0x02a802a8
   85178:	02a802a8 	.word	0x02a802a8
   8517c:	02a802a8 	.word	0x02a802a8
   85180:	02a802a8 	.word	0x02a802a8
   85184:	01c702a8 	.word	0x01c702a8
   85188:	02a801da 	.word	0x02a801da
   8518c:	02a802a8 	.word	0x02a802a8
   85190:	01da0123 	.word	0x01da0123
   85194:	02a802a8 	.word	0x02a802a8
   85198:	02a8024b 	.word	0x02a8024b
   8519c:	01130288 	.word	0x01130288
   851a0:	020701f4 	.word	0x020701f4
   851a4:	020d02a8 	.word	0x020d02a8
   851a8:	008102a8 	.word	0x008102a8
   851ac:	02a802a8 	.word	0x02a802a8
   851b0:	0232      	.short	0x0232
   851b2:	3408      	adds	r4, #8
   851b4:	9b02      	ldr	r3, [sp, #8]
   851b6:	4433      	add	r3, r6
   851b8:	9302      	str	r3, [sp, #8]
   851ba:	e788      	b.n	850ce <_vfiprintf_r+0xb2>
   851bc:	9801      	ldr	r0, [sp, #4]
   851be:	9900      	ldr	r1, [sp, #0]
   851c0:	f000 fd72 	bl	85ca8 <__swsetup_r>
   851c4:	b9a8      	cbnz	r0, 851f2 <_vfiprintf_r+0x1d6>
   851c6:	9b00      	ldr	r3, [sp, #0]
   851c8:	899a      	ldrh	r2, [r3, #12]
   851ca:	f002 021a 	and.w	r2, r2, #26
   851ce:	2a0a      	cmp	r2, #10
   851d0:	f47f af4c 	bne.w	8506c <_vfiprintf_r+0x50>
   851d4:	9b00      	ldr	r3, [sp, #0]
   851d6:	f9b3 300e 	ldrsh.w	r3, [r3, #14]
   851da:	2b00      	cmp	r3, #0
   851dc:	f6ff af46 	blt.w	8506c <_vfiprintf_r+0x50>
   851e0:	9801      	ldr	r0, [sp, #4]
   851e2:	9900      	ldr	r1, [sp, #0]
   851e4:	465a      	mov	r2, fp
   851e6:	4623      	mov	r3, r4
   851e8:	f000 fd20 	bl	85c2c <__sbprintf>
   851ec:	b02b      	add	sp, #172	; 0xac
   851ee:	e8bd 8ff0 	ldmia.w	sp!, {r4, r5, r6, r7, r8, r9, sl, fp, pc}
   851f2:	f04f 30ff 	mov.w	r0, #4294967295
   851f6:	b02b      	add	sp, #172	; 0xac
   851f8:	e8bd 8ff0 	ldmia.w	sp!, {r4, r5, r6, r7, r8, r9, sl, fp, pc}
   851fc:	f000 fefe 	bl	85ffc <__sinit>
   85200:	e719      	b.n	85036 <_vfiprintf_r+0x1a>
   85202:	f018 0f20 	tst.w	r8, #32
   85206:	9503      	str	r5, [sp, #12]
   85208:	46b4      	mov	ip, r6
   8520a:	f000 810c 	beq.w	85426 <_vfiprintf_r+0x40a>
   8520e:	9b04      	ldr	r3, [sp, #16]
   85210:	3307      	adds	r3, #7
   85212:	f023 0307 	bic.w	r3, r3, #7
   85216:	f103 0208 	add.w	r2, r3, #8
   8521a:	e9d3 6700 	ldrd	r6, r7, [r3]
   8521e:	9204      	str	r2, [sp, #16]
   85220:	2301      	movs	r3, #1
   85222:	f04f 0200 	mov.w	r2, #0
   85226:	46e1      	mov	r9, ip
   85228:	f88d 202f 	strb.w	r2, [sp, #47]	; 0x2f
   8522c:	2500      	movs	r5, #0
   8522e:	f1bc 0f00 	cmp.w	ip, #0
   85232:	bfa8      	it	ge
   85234:	f028 0880 	bicge.w	r8, r8, #128	; 0x80
   85238:	ea56 0207 	orrs.w	r2, r6, r7
   8523c:	f040 80c4 	bne.w	853c8 <_vfiprintf_r+0x3ac>
   85240:	f1bc 0f00 	cmp.w	ip, #0
   85244:	f000 8380 	beq.w	85948 <_vfiprintf_r+0x92c>
   85248:	2b01      	cmp	r3, #1
   8524a:	f000 80c5 	beq.w	853d8 <_vfiprintf_r+0x3bc>
   8524e:	2b02      	cmp	r3, #2
   85250:	f000 8386 	beq.w	85960 <_vfiprintf_r+0x944>
   85254:	4651      	mov	r1, sl
   85256:	08f2      	lsrs	r2, r6, #3
   85258:	ea42 7247 	orr.w	r2, r2, r7, lsl #29
   8525c:	08f8      	lsrs	r0, r7, #3
   8525e:	f006 0307 	and.w	r3, r6, #7
   85262:	4607      	mov	r7, r0
   85264:	4616      	mov	r6, r2
   85266:	3330      	adds	r3, #48	; 0x30
   85268:	ea56 0207 	orrs.w	r2, r6, r7
   8526c:	f801 3d01 	strb.w	r3, [r1, #-1]!
   85270:	d1f1      	bne.n	85256 <_vfiprintf_r+0x23a>
   85272:	f018 0f01 	tst.w	r8, #1
   85276:	9107      	str	r1, [sp, #28]
   85278:	f040 83fa 	bne.w	85a70 <_vfiprintf_r+0xa54>
   8527c:	ebc1 090a 	rsb	r9, r1, sl
   85280:	45e1      	cmp	r9, ip
   85282:	464e      	mov	r6, r9
   85284:	bfb8      	it	lt
   85286:	4666      	movlt	r6, ip
   85288:	b105      	cbz	r5, 8528c <_vfiprintf_r+0x270>
   8528a:	3601      	adds	r6, #1
   8528c:	f018 0302 	ands.w	r3, r8, #2
   85290:	9305      	str	r3, [sp, #20]
   85292:	bf18      	it	ne
   85294:	3602      	addne	r6, #2
   85296:	f018 0384 	ands.w	r3, r8, #132	; 0x84
   8529a:	9306      	str	r3, [sp, #24]
   8529c:	f040 81f9 	bne.w	85692 <_vfiprintf_r+0x676>
   852a0:	9b03      	ldr	r3, [sp, #12]
   852a2:	1b9d      	subs	r5, r3, r6
   852a4:	2d00      	cmp	r5, #0
   852a6:	f340 81f4 	ble.w	85692 <_vfiprintf_r+0x676>
   852aa:	2d10      	cmp	r5, #16
   852ac:	f340 848a 	ble.w	85bc4 <_vfiprintf_r+0xba8>
   852b0:	4620      	mov	r0, r4
   852b2:	f8dd e038 	ldr.w	lr, [sp, #56]	; 0x38
   852b6:	4664      	mov	r4, ip
   852b8:	9a0f      	ldr	r2, [sp, #60]	; 0x3c
   852ba:	4fc4      	ldr	r7, [pc, #784]	; (855cc <_vfiprintf_r+0x5b0>)
   852bc:	2310      	movs	r3, #16
   852be:	4671      	mov	r1, lr
   852c0:	4684      	mov	ip, r0
   852c2:	e007      	b.n	852d4 <_vfiprintf_r+0x2b8>
   852c4:	f101 0e02 	add.w	lr, r1, #2
   852c8:	4601      	mov	r1, r0
   852ca:	f10c 0c08 	add.w	ip, ip, #8
   852ce:	3d10      	subs	r5, #16
   852d0:	2d10      	cmp	r5, #16
   852d2:	dd13      	ble.n	852fc <_vfiprintf_r+0x2e0>
   852d4:	1c48      	adds	r0, r1, #1
   852d6:	3210      	adds	r2, #16
   852d8:	2807      	cmp	r0, #7
   852da:	920f      	str	r2, [sp, #60]	; 0x3c
   852dc:	f8cc 7000 	str.w	r7, [ip]
   852e0:	f8cc 3004 	str.w	r3, [ip, #4]
   852e4:	900e      	str	r0, [sp, #56]	; 0x38
   852e6:	dded      	ble.n	852c4 <_vfiprintf_r+0x2a8>
   852e8:	2a00      	cmp	r2, #0
   852ea:	f040 81c2 	bne.w	85672 <_vfiprintf_r+0x656>
   852ee:	3d10      	subs	r5, #16
   852f0:	2d10      	cmp	r5, #16
   852f2:	4611      	mov	r1, r2
   852f4:	f04f 0e01 	mov.w	lr, #1
   852f8:	46d4      	mov	ip, sl
   852fa:	dceb      	bgt.n	852d4 <_vfiprintf_r+0x2b8>
   852fc:	4663      	mov	r3, ip
   852fe:	4671      	mov	r1, lr
   85300:	46a4      	mov	ip, r4
   85302:	461c      	mov	r4, r3
   85304:	442a      	add	r2, r5
   85306:	2907      	cmp	r1, #7
   85308:	920f      	str	r2, [sp, #60]	; 0x3c
   8530a:	6027      	str	r7, [r4, #0]
   8530c:	6065      	str	r5, [r4, #4]
   8530e:	910e      	str	r1, [sp, #56]	; 0x38
   85310:	f300 8346 	bgt.w	859a0 <_vfiprintf_r+0x984>
   85314:	3408      	adds	r4, #8
   85316:	1c48      	adds	r0, r1, #1
   85318:	e1be      	b.n	85698 <_vfiprintf_r+0x67c>
   8531a:	4658      	mov	r0, fp
   8531c:	f048 0804 	orr.w	r8, r8, #4
   85320:	f89b 3000 	ldrb.w	r3, [fp]
   85324:	e6e3      	b.n	850ee <_vfiprintf_r+0xd2>
   85326:	f018 0320 	ands.w	r3, r8, #32
   8532a:	9503      	str	r5, [sp, #12]
   8532c:	46b4      	mov	ip, r6
   8532e:	d062      	beq.n	853f6 <_vfiprintf_r+0x3da>
   85330:	9b04      	ldr	r3, [sp, #16]
   85332:	3307      	adds	r3, #7
   85334:	f023 0307 	bic.w	r3, r3, #7
   85338:	f103 0208 	add.w	r2, r3, #8
   8533c:	e9d3 6700 	ldrd	r6, r7, [r3]
   85340:	9204      	str	r2, [sp, #16]
   85342:	2300      	movs	r3, #0
   85344:	e76d      	b.n	85222 <_vfiprintf_r+0x206>
   85346:	f048 0840 	orr.w	r8, r8, #64	; 0x40
   8534a:	f89b 3000 	ldrb.w	r3, [fp]
   8534e:	4658      	mov	r0, fp
   85350:	e6cd      	b.n	850ee <_vfiprintf_r+0xd2>
   85352:	f048 0880 	orr.w	r8, r8, #128	; 0x80
   85356:	f89b 3000 	ldrb.w	r3, [fp]
   8535a:	4658      	mov	r0, fp
   8535c:	e6c7      	b.n	850ee <_vfiprintf_r+0xd2>
   8535e:	f1a3 0230 	sub.w	r2, r3, #48	; 0x30
   85362:	2500      	movs	r5, #0
   85364:	f81b 3b01 	ldrb.w	r3, [fp], #1
   85368:	eb05 0585 	add.w	r5, r5, r5, lsl #2
   8536c:	eb02 0545 	add.w	r5, r2, r5, lsl #1
   85370:	f1a3 0230 	sub.w	r2, r3, #48	; 0x30
   85374:	2a09      	cmp	r2, #9
   85376:	d9f5      	bls.n	85364 <_vfiprintf_r+0x348>
   85378:	e6bb      	b.n	850f2 <_vfiprintf_r+0xd6>
   8537a:	f048 0810 	orr.w	r8, r8, #16
   8537e:	f018 0f20 	tst.w	r8, #32
   85382:	9503      	str	r5, [sp, #12]
   85384:	46b4      	mov	ip, r6
   85386:	f88d 102f 	strb.w	r1, [sp, #47]	; 0x2f
   8538a:	f000 809b 	beq.w	854c4 <_vfiprintf_r+0x4a8>
   8538e:	9904      	ldr	r1, [sp, #16]
   85390:	3107      	adds	r1, #7
   85392:	f021 0107 	bic.w	r1, r1, #7
   85396:	e9d1 2300 	ldrd	r2, r3, [r1]
   8539a:	4616      	mov	r6, r2
   8539c:	461f      	mov	r7, r3
   8539e:	3108      	adds	r1, #8
   853a0:	9104      	str	r1, [sp, #16]
   853a2:	2a00      	cmp	r2, #0
   853a4:	f173 0300 	sbcs.w	r3, r3, #0
   853a8:	f2c0 83a4 	blt.w	85af4 <_vfiprintf_r+0xad8>
   853ac:	f1bc 0f00 	cmp.w	ip, #0
   853b0:	bfa8      	it	ge
   853b2:	f028 0880 	bicge.w	r8, r8, #128	; 0x80
   853b6:	ea56 0207 	orrs.w	r2, r6, r7
   853ba:	f89d 502f 	ldrb.w	r5, [sp, #47]	; 0x2f
   853be:	46e1      	mov	r9, ip
   853c0:	f04f 0301 	mov.w	r3, #1
   853c4:	f43f af3c 	beq.w	85240 <_vfiprintf_r+0x224>
   853c8:	2b01      	cmp	r3, #1
   853ca:	f47f af40 	bne.w	8524e <_vfiprintf_r+0x232>
   853ce:	2f00      	cmp	r7, #0
   853d0:	bf08      	it	eq
   853d2:	2e0a      	cmpeq	r6, #10
   853d4:	f080 8332 	bcs.w	85a3c <_vfiprintf_r+0xa20>
   853d8:	ab2a      	add	r3, sp, #168	; 0xa8
   853da:	3630      	adds	r6, #48	; 0x30
   853dc:	f803 6d41 	strb.w	r6, [r3, #-65]!
   853e0:	ebc3 090a 	rsb	r9, r3, sl
   853e4:	9307      	str	r3, [sp, #28]
   853e6:	e74b      	b.n	85280 <_vfiprintf_r+0x264>
   853e8:	f048 0810 	orr.w	r8, r8, #16
   853ec:	f018 0320 	ands.w	r3, r8, #32
   853f0:	9503      	str	r5, [sp, #12]
   853f2:	46b4      	mov	ip, r6
   853f4:	d19c      	bne.n	85330 <_vfiprintf_r+0x314>
   853f6:	f018 0210 	ands.w	r2, r8, #16
   853fa:	f040 82f7 	bne.w	859ec <_vfiprintf_r+0x9d0>
   853fe:	f018 0340 	ands.w	r3, r8, #64	; 0x40
   85402:	f000 82f3 	beq.w	859ec <_vfiprintf_r+0x9d0>
   85406:	9904      	ldr	r1, [sp, #16]
   85408:	4613      	mov	r3, r2
   8540a:	460a      	mov	r2, r1
   8540c:	3204      	adds	r2, #4
   8540e:	880e      	ldrh	r6, [r1, #0]
   85410:	2700      	movs	r7, #0
   85412:	9204      	str	r2, [sp, #16]
   85414:	e705      	b.n	85222 <_vfiprintf_r+0x206>
   85416:	f048 0810 	orr.w	r8, r8, #16
   8541a:	f018 0f20 	tst.w	r8, #32
   8541e:	9503      	str	r5, [sp, #12]
   85420:	46b4      	mov	ip, r6
   85422:	f47f aef4 	bne.w	8520e <_vfiprintf_r+0x1f2>
   85426:	9a04      	ldr	r2, [sp, #16]
   85428:	f018 0f10 	tst.w	r8, #16
   8542c:	4613      	mov	r3, r2
   8542e:	f040 82e4 	bne.w	859fa <_vfiprintf_r+0x9de>
   85432:	f018 0f40 	tst.w	r8, #64	; 0x40
   85436:	f000 82e0 	beq.w	859fa <_vfiprintf_r+0x9de>
   8543a:	8816      	ldrh	r6, [r2, #0]
   8543c:	3204      	adds	r2, #4
   8543e:	2700      	movs	r7, #0
   85440:	2301      	movs	r3, #1
   85442:	9204      	str	r2, [sp, #16]
   85444:	e6ed      	b.n	85222 <_vfiprintf_r+0x206>
   85446:	4a62      	ldr	r2, [pc, #392]	; (855d0 <_vfiprintf_r+0x5b4>)
   85448:	f018 0f20 	tst.w	r8, #32
   8544c:	9503      	str	r5, [sp, #12]
   8544e:	46b4      	mov	ip, r6
   85450:	f88d 102f 	strb.w	r1, [sp, #47]	; 0x2f
   85454:	9209      	str	r2, [sp, #36]	; 0x24
   85456:	f000 808f 	beq.w	85578 <_vfiprintf_r+0x55c>
   8545a:	9a04      	ldr	r2, [sp, #16]
   8545c:	3207      	adds	r2, #7
   8545e:	f022 0207 	bic.w	r2, r2, #7
   85462:	f102 0108 	add.w	r1, r2, #8
   85466:	9104      	str	r1, [sp, #16]
   85468:	e9d2 6700 	ldrd	r6, r7, [r2]
   8546c:	f018 0f01 	tst.w	r8, #1
   85470:	f000 828f 	beq.w	85992 <_vfiprintf_r+0x976>
   85474:	ea56 0207 	orrs.w	r2, r6, r7
   85478:	f000 828b 	beq.w	85992 <_vfiprintf_r+0x976>
   8547c:	2230      	movs	r2, #48	; 0x30
   8547e:	f88d 3031 	strb.w	r3, [sp, #49]	; 0x31
   85482:	f048 0802 	orr.w	r8, r8, #2
   85486:	f88d 2030 	strb.w	r2, [sp, #48]	; 0x30
   8548a:	2302      	movs	r3, #2
   8548c:	e6c9      	b.n	85222 <_vfiprintf_r+0x206>
   8548e:	9a04      	ldr	r2, [sp, #16]
   85490:	2601      	movs	r6, #1
   85492:	6813      	ldr	r3, [r2, #0]
   85494:	f04f 0100 	mov.w	r1, #0
   85498:	f88d 3040 	strb.w	r3, [sp, #64]	; 0x40
   8549c:	4613      	mov	r3, r2
   8549e:	46b1      	mov	r9, r6
   854a0:	3304      	adds	r3, #4
   854a2:	9304      	str	r3, [sp, #16]
   854a4:	ab10      	add	r3, sp, #64	; 0x40
   854a6:	9503      	str	r5, [sp, #12]
   854a8:	f88d 102f 	strb.w	r1, [sp, #47]	; 0x2f
   854ac:	9307      	str	r3, [sp, #28]
   854ae:	f04f 0c00 	mov.w	ip, #0
   854b2:	e6eb      	b.n	8528c <_vfiprintf_r+0x270>
   854b4:	f018 0f20 	tst.w	r8, #32
   854b8:	9503      	str	r5, [sp, #12]
   854ba:	46b4      	mov	ip, r6
   854bc:	f88d 102f 	strb.w	r1, [sp, #47]	; 0x2f
   854c0:	f47f af65 	bne.w	8538e <_vfiprintf_r+0x372>
   854c4:	9a04      	ldr	r2, [sp, #16]
   854c6:	f018 0f10 	tst.w	r8, #16
   854ca:	4613      	mov	r3, r2
   854cc:	f040 82a0 	bne.w	85a10 <_vfiprintf_r+0x9f4>
   854d0:	f018 0f40 	tst.w	r8, #64	; 0x40
   854d4:	f000 829c 	beq.w	85a10 <_vfiprintf_r+0x9f4>
   854d8:	f9b2 6000 	ldrsh.w	r6, [r2]
   854dc:	3304      	adds	r3, #4
   854de:	17f7      	asrs	r7, r6, #31
   854e0:	9304      	str	r3, [sp, #16]
   854e2:	4632      	mov	r2, r6
   854e4:	463b      	mov	r3, r7
   854e6:	e75c      	b.n	853a2 <_vfiprintf_r+0x386>
   854e8:	9904      	ldr	r1, [sp, #16]
   854ea:	2378      	movs	r3, #120	; 0x78
   854ec:	f88d 3031 	strb.w	r3, [sp, #49]	; 0x31
   854f0:	4b38      	ldr	r3, [pc, #224]	; (855d4 <_vfiprintf_r+0x5b8>)
   854f2:	46b4      	mov	ip, r6
   854f4:	2230      	movs	r2, #48	; 0x30
   854f6:	680e      	ldr	r6, [r1, #0]
   854f8:	3104      	adds	r1, #4
   854fa:	9309      	str	r3, [sp, #36]	; 0x24
   854fc:	9503      	str	r5, [sp, #12]
   854fe:	f048 0802 	orr.w	r8, r8, #2
   85502:	9104      	str	r1, [sp, #16]
   85504:	2700      	movs	r7, #0
   85506:	f88d 2030 	strb.w	r2, [sp, #48]	; 0x30
   8550a:	2302      	movs	r3, #2
   8550c:	e689      	b.n	85222 <_vfiprintf_r+0x206>
   8550e:	f048 0820 	orr.w	r8, r8, #32
   85512:	f89b 3000 	ldrb.w	r3, [fp]
   85516:	4658      	mov	r0, fp
   85518:	e5e9      	b.n	850ee <_vfiprintf_r+0xd2>
   8551a:	f04f 0100 	mov.w	r1, #0
   8551e:	9a04      	ldr	r2, [sp, #16]
   85520:	9503      	str	r5, [sp, #12]
   85522:	6813      	ldr	r3, [r2, #0]
   85524:	46b4      	mov	ip, r6
   85526:	9307      	str	r3, [sp, #28]
   85528:	f88d 102f 	strb.w	r1, [sp, #47]	; 0x2f
   8552c:	1d15      	adds	r5, r2, #4
   8552e:	2b00      	cmp	r3, #0
   85530:	f000 834e 	beq.w	85bd0 <_vfiprintf_r+0xbb4>
   85534:	2e00      	cmp	r6, #0
   85536:	f2c0 8329 	blt.w	85b8c <_vfiprintf_r+0xb70>
   8553a:	9e07      	ldr	r6, [sp, #28]
   8553c:	4662      	mov	r2, ip
   8553e:	4630      	mov	r0, r6
   85540:	2100      	movs	r1, #0
   85542:	f8cd c010 	str.w	ip, [sp, #16]
   85546:	f001 fbc9 	bl	86cdc <memchr>
   8554a:	f8dd c010 	ldr.w	ip, [sp, #16]
   8554e:	2800      	cmp	r0, #0
   85550:	f000 834e 	beq.w	85bf0 <_vfiprintf_r+0xbd4>
   85554:	9504      	str	r5, [sp, #16]
   85556:	ebc6 0900 	rsb	r9, r6, r0
   8555a:	f89d 502f 	ldrb.w	r5, [sp, #47]	; 0x2f
   8555e:	f04f 0c00 	mov.w	ip, #0
   85562:	e68d      	b.n	85280 <_vfiprintf_r+0x264>
   85564:	4a1b      	ldr	r2, [pc, #108]	; (855d4 <_vfiprintf_r+0x5b8>)
   85566:	f018 0f20 	tst.w	r8, #32
   8556a:	9503      	str	r5, [sp, #12]
   8556c:	46b4      	mov	ip, r6
   8556e:	9209      	str	r2, [sp, #36]	; 0x24
   85570:	f88d 102f 	strb.w	r1, [sp, #47]	; 0x2f
   85574:	f47f af71 	bne.w	8545a <_vfiprintf_r+0x43e>
   85578:	9904      	ldr	r1, [sp, #16]
   8557a:	f018 0f10 	tst.w	r8, #16
   8557e:	460a      	mov	r2, r1
   85580:	f040 8241 	bne.w	85a06 <_vfiprintf_r+0x9ea>
   85584:	f018 0f40 	tst.w	r8, #64	; 0x40
   85588:	f000 823d 	beq.w	85a06 <_vfiprintf_r+0x9ea>
   8558c:	3204      	adds	r2, #4
   8558e:	880e      	ldrh	r6, [r1, #0]
   85590:	2700      	movs	r7, #0
   85592:	9204      	str	r2, [sp, #16]
   85594:	e76a      	b.n	8546c <_vfiprintf_r+0x450>
   85596:	f89b 3000 	ldrb.w	r3, [fp]
   8559a:	2b6c      	cmp	r3, #108	; 0x6c
   8559c:	f000 82e9 	beq.w	85b72 <_vfiprintf_r+0xb56>
   855a0:	f048 0810 	orr.w	r8, r8, #16
   855a4:	4658      	mov	r0, fp
   855a6:	e5a2      	b.n	850ee <_vfiprintf_r+0xd2>
   855a8:	9a04      	ldr	r2, [sp, #16]
   855aa:	4613      	mov	r3, r2
   855ac:	6815      	ldr	r5, [r2, #0]
   855ae:	3304      	adds	r3, #4
   855b0:	2d00      	cmp	r5, #0
   855b2:	f2c0 82e6 	blt.w	85b82 <_vfiprintf_r+0xb66>
   855b6:	9304      	str	r3, [sp, #16]
   855b8:	f89b 3000 	ldrb.w	r3, [fp]
   855bc:	4658      	mov	r0, fp
   855be:	e596      	b.n	850ee <_vfiprintf_r+0xd2>
   855c0:	f89b 3000 	ldrb.w	r3, [fp]
   855c4:	4658      	mov	r0, fp
   855c6:	212b      	movs	r1, #43	; 0x2b
   855c8:	e591      	b.n	850ee <_vfiprintf_r+0xd2>
   855ca:	bf00      	nop
   855cc:	00087e80 	.word	0x00087e80
   855d0:	00087e50 	.word	0x00087e50
   855d4:	00087e64 	.word	0x00087e64
   855d8:	f89b 3000 	ldrb.w	r3, [fp]
   855dc:	f10b 0001 	add.w	r0, fp, #1
   855e0:	2b2a      	cmp	r3, #42	; 0x2a
   855e2:	f000 830f 	beq.w	85c04 <_vfiprintf_r+0xbe8>
   855e6:	f1a3 0230 	sub.w	r2, r3, #48	; 0x30
   855ea:	2a09      	cmp	r2, #9
   855ec:	4683      	mov	fp, r0
   855ee:	f04f 0600 	mov.w	r6, #0
   855f2:	f63f ad7e 	bhi.w	850f2 <_vfiprintf_r+0xd6>
   855f6:	f81b 3b01 	ldrb.w	r3, [fp], #1
   855fa:	eb06 0686 	add.w	r6, r6, r6, lsl #2
   855fe:	eb02 0646 	add.w	r6, r2, r6, lsl #1
   85602:	f1a3 0230 	sub.w	r2, r3, #48	; 0x30
   85606:	2a09      	cmp	r2, #9
   85608:	d9f5      	bls.n	855f6 <_vfiprintf_r+0x5da>
   8560a:	ea46 76e6 	orr.w	r6, r6, r6, asr #31
   8560e:	e570      	b.n	850f2 <_vfiprintf_r+0xd6>
   85610:	f018 0f20 	tst.w	r8, #32
   85614:	f88d 102f 	strb.w	r1, [sp, #47]	; 0x2f
   85618:	f000 8283 	beq.w	85b22 <_vfiprintf_r+0xb06>
   8561c:	9a04      	ldr	r2, [sp, #16]
   8561e:	4613      	mov	r3, r2
   85620:	3304      	adds	r3, #4
   85622:	9304      	str	r3, [sp, #16]
   85624:	9b02      	ldr	r3, [sp, #8]
   85626:	6811      	ldr	r1, [r2, #0]
   85628:	17df      	asrs	r7, r3, #31
   8562a:	461a      	mov	r2, r3
   8562c:	463b      	mov	r3, r7
   8562e:	e9c1 2300 	strd	r2, r3, [r1]
   85632:	e525      	b.n	85080 <_vfiprintf_r+0x64>
   85634:	4658      	mov	r0, fp
   85636:	f89b 3000 	ldrb.w	r3, [fp]
   8563a:	2900      	cmp	r1, #0
   8563c:	f47f ad57 	bne.w	850ee <_vfiprintf_r+0xd2>
   85640:	2120      	movs	r1, #32
   85642:	e554      	b.n	850ee <_vfiprintf_r+0xd2>
   85644:	f048 0801 	orr.w	r8, r8, #1
   85648:	4658      	mov	r0, fp
   8564a:	f89b 3000 	ldrb.w	r3, [fp]
   8564e:	e54e      	b.n	850ee <_vfiprintf_r+0xd2>
   85650:	9503      	str	r5, [sp, #12]
   85652:	f88d 102f 	strb.w	r1, [sp, #47]	; 0x2f
   85656:	2b00      	cmp	r3, #0
   85658:	f000 809c 	beq.w	85794 <_vfiprintf_r+0x778>
   8565c:	f88d 3040 	strb.w	r3, [sp, #64]	; 0x40
   85660:	f04f 0300 	mov.w	r3, #0
   85664:	2601      	movs	r6, #1
   85666:	f88d 302f 	strb.w	r3, [sp, #47]	; 0x2f
   8566a:	ab10      	add	r3, sp, #64	; 0x40
   8566c:	46b1      	mov	r9, r6
   8566e:	9307      	str	r3, [sp, #28]
   85670:	e71d      	b.n	854ae <_vfiprintf_r+0x492>
   85672:	9801      	ldr	r0, [sp, #4]
   85674:	9900      	ldr	r1, [sp, #0]
   85676:	aa0d      	add	r2, sp, #52	; 0x34
   85678:	9308      	str	r3, [sp, #32]
   8567a:	f7ff fc93 	bl	84fa4 <__sprint_r.part.0>
   8567e:	2800      	cmp	r0, #0
   85680:	f040 808f 	bne.w	857a2 <_vfiprintf_r+0x786>
   85684:	990e      	ldr	r1, [sp, #56]	; 0x38
   85686:	46d4      	mov	ip, sl
   85688:	9a0f      	ldr	r2, [sp, #60]	; 0x3c
   8568a:	f101 0e01 	add.w	lr, r1, #1
   8568e:	9b08      	ldr	r3, [sp, #32]
   85690:	e61d      	b.n	852ce <_vfiprintf_r+0x2b2>
   85692:	990e      	ldr	r1, [sp, #56]	; 0x38
   85694:	9a0f      	ldr	r2, [sp, #60]	; 0x3c
   85696:	1c48      	adds	r0, r1, #1
   85698:	f89d 302f 	ldrb.w	r3, [sp, #47]	; 0x2f
   8569c:	b16b      	cbz	r3, 856ba <_vfiprintf_r+0x69e>
   8569e:	3201      	adds	r2, #1
   856a0:	f10d 032f 	add.w	r3, sp, #47	; 0x2f
   856a4:	2101      	movs	r1, #1
   856a6:	2807      	cmp	r0, #7
   856a8:	920f      	str	r2, [sp, #60]	; 0x3c
   856aa:	900e      	str	r0, [sp, #56]	; 0x38
   856ac:	6023      	str	r3, [r4, #0]
   856ae:	6061      	str	r1, [r4, #4]
   856b0:	f300 8134 	bgt.w	8591c <_vfiprintf_r+0x900>
   856b4:	4601      	mov	r1, r0
   856b6:	3408      	adds	r4, #8
   856b8:	3001      	adds	r0, #1
   856ba:	9b05      	ldr	r3, [sp, #20]
   856bc:	b163      	cbz	r3, 856d8 <_vfiprintf_r+0x6bc>
   856be:	3202      	adds	r2, #2
   856c0:	a90c      	add	r1, sp, #48	; 0x30
   856c2:	2302      	movs	r3, #2
   856c4:	2807      	cmp	r0, #7
   856c6:	920f      	str	r2, [sp, #60]	; 0x3c
   856c8:	900e      	str	r0, [sp, #56]	; 0x38
   856ca:	e884 000a 	stmia.w	r4, {r1, r3}
   856ce:	f300 8134 	bgt.w	8593a <_vfiprintf_r+0x91e>
   856d2:	4601      	mov	r1, r0
   856d4:	3408      	adds	r4, #8
   856d6:	3001      	adds	r0, #1
   856d8:	9b06      	ldr	r3, [sp, #24]
   856da:	2b80      	cmp	r3, #128	; 0x80
   856dc:	f000 80d4 	beq.w	85888 <_vfiprintf_r+0x86c>
   856e0:	ebc9 070c 	rsb	r7, r9, ip
   856e4:	2f00      	cmp	r7, #0
   856e6:	dd2b      	ble.n	85740 <_vfiprintf_r+0x724>
   856e8:	2f10      	cmp	r7, #16
   856ea:	4dab      	ldr	r5, [pc, #684]	; (85998 <_vfiprintf_r+0x97c>)
   856ec:	dd1f      	ble.n	8572e <_vfiprintf_r+0x712>
   856ee:	46a6      	mov	lr, r4
   856f0:	2310      	movs	r3, #16
   856f2:	9c01      	ldr	r4, [sp, #4]
   856f4:	e007      	b.n	85706 <_vfiprintf_r+0x6ea>
   856f6:	f101 0c02 	add.w	ip, r1, #2
   856fa:	4601      	mov	r1, r0
   856fc:	f10e 0e08 	add.w	lr, lr, #8
   85700:	3f10      	subs	r7, #16
   85702:	2f10      	cmp	r7, #16
   85704:	dd11      	ble.n	8572a <_vfiprintf_r+0x70e>
   85706:	1c48      	adds	r0, r1, #1
   85708:	3210      	adds	r2, #16
   8570a:	2807      	cmp	r0, #7
   8570c:	920f      	str	r2, [sp, #60]	; 0x3c
   8570e:	f8ce 5000 	str.w	r5, [lr]
   85712:	f8ce 3004 	str.w	r3, [lr, #4]
   85716:	900e      	str	r0, [sp, #56]	; 0x38
   85718:	dded      	ble.n	856f6 <_vfiprintf_r+0x6da>
   8571a:	bb6a      	cbnz	r2, 85778 <_vfiprintf_r+0x75c>
   8571c:	3f10      	subs	r7, #16
   8571e:	2f10      	cmp	r7, #16
   85720:	f04f 0c01 	mov.w	ip, #1
   85724:	4611      	mov	r1, r2
   85726:	46d6      	mov	lr, sl
   85728:	dced      	bgt.n	85706 <_vfiprintf_r+0x6ea>
   8572a:	4674      	mov	r4, lr
   8572c:	4660      	mov	r0, ip
   8572e:	443a      	add	r2, r7
   85730:	2807      	cmp	r0, #7
   85732:	920f      	str	r2, [sp, #60]	; 0x3c
   85734:	e884 00a0 	stmia.w	r4, {r5, r7}
   85738:	900e      	str	r0, [sp, #56]	; 0x38
   8573a:	dc3b      	bgt.n	857b4 <_vfiprintf_r+0x798>
   8573c:	3408      	adds	r4, #8
   8573e:	3001      	adds	r0, #1
   85740:	eb02 0309 	add.w	r3, r2, r9
   85744:	9a07      	ldr	r2, [sp, #28]
   85746:	2807      	cmp	r0, #7
   85748:	930f      	str	r3, [sp, #60]	; 0x3c
   8574a:	e884 0204 	stmia.w	r4, {r2, r9}
   8574e:	900e      	str	r0, [sp, #56]	; 0x38
   85750:	dd3d      	ble.n	857ce <_vfiprintf_r+0x7b2>
   85752:	2b00      	cmp	r3, #0
   85754:	f040 813f 	bne.w	859d6 <_vfiprintf_r+0x9ba>
   85758:	f018 0f04 	tst.w	r8, #4
   8575c:	930e      	str	r3, [sp, #56]	; 0x38
   8575e:	f040 8130 	bne.w	859c2 <_vfiprintf_r+0x9a6>
   85762:	9b02      	ldr	r3, [sp, #8]
   85764:	9a03      	ldr	r2, [sp, #12]
   85766:	4296      	cmp	r6, r2
   85768:	bfac      	ite	ge
   8576a:	199b      	addge	r3, r3, r6
   8576c:	189b      	addlt	r3, r3, r2
   8576e:	9302      	str	r3, [sp, #8]
   85770:	2300      	movs	r3, #0
   85772:	930e      	str	r3, [sp, #56]	; 0x38
   85774:	4654      	mov	r4, sl
   85776:	e483      	b.n	85080 <_vfiprintf_r+0x64>
   85778:	4620      	mov	r0, r4
   8577a:	9900      	ldr	r1, [sp, #0]
   8577c:	aa0d      	add	r2, sp, #52	; 0x34
   8577e:	9305      	str	r3, [sp, #20]
   85780:	f7ff fc10 	bl	84fa4 <__sprint_r.part.0>
   85784:	b968      	cbnz	r0, 857a2 <_vfiprintf_r+0x786>
   85786:	990e      	ldr	r1, [sp, #56]	; 0x38
   85788:	46d6      	mov	lr, sl
   8578a:	9a0f      	ldr	r2, [sp, #60]	; 0x3c
   8578c:	f101 0c01 	add.w	ip, r1, #1
   85790:	9b05      	ldr	r3, [sp, #20]
   85792:	e7b5      	b.n	85700 <_vfiprintf_r+0x6e4>
   85794:	9b0f      	ldr	r3, [sp, #60]	; 0x3c
   85796:	b123      	cbz	r3, 857a2 <_vfiprintf_r+0x786>
   85798:	9801      	ldr	r0, [sp, #4]
   8579a:	9900      	ldr	r1, [sp, #0]
   8579c:	aa0d      	add	r2, sp, #52	; 0x34
   8579e:	f7ff fc01 	bl	84fa4 <__sprint_r.part.0>
   857a2:	9b00      	ldr	r3, [sp, #0]
   857a4:	899b      	ldrh	r3, [r3, #12]
   857a6:	065b      	lsls	r3, r3, #25
   857a8:	f53f ad23 	bmi.w	851f2 <_vfiprintf_r+0x1d6>
   857ac:	9802      	ldr	r0, [sp, #8]
   857ae:	b02b      	add	sp, #172	; 0xac
   857b0:	e8bd 8ff0 	ldmia.w	sp!, {r4, r5, r6, r7, r8, r9, sl, fp, pc}
   857b4:	2a00      	cmp	r2, #0
   857b6:	f040 8190 	bne.w	85ada <_vfiprintf_r+0xabe>
   857ba:	464b      	mov	r3, r9
   857bc:	4654      	mov	r4, sl
   857be:	9907      	ldr	r1, [sp, #28]
   857c0:	2201      	movs	r2, #1
   857c2:	f8cd 906c 	str.w	r9, [sp, #108]	; 0x6c
   857c6:	f8cd 903c 	str.w	r9, [sp, #60]	; 0x3c
   857ca:	911a      	str	r1, [sp, #104]	; 0x68
   857cc:	920e      	str	r2, [sp, #56]	; 0x38
   857ce:	f104 0208 	add.w	r2, r4, #8
   857d2:	f018 0f04 	tst.w	r8, #4
   857d6:	d039      	beq.n	8584c <_vfiprintf_r+0x830>
   857d8:	9903      	ldr	r1, [sp, #12]
   857da:	1b8d      	subs	r5, r1, r6
   857dc:	2d00      	cmp	r5, #0
   857de:	dd35      	ble.n	8584c <_vfiprintf_r+0x830>
   857e0:	2d10      	cmp	r5, #16
   857e2:	f340 8200 	ble.w	85be6 <_vfiprintf_r+0xbca>
   857e6:	980e      	ldr	r0, [sp, #56]	; 0x38
   857e8:	4f6c      	ldr	r7, [pc, #432]	; (8599c <_vfiprintf_r+0x980>)
   857ea:	2410      	movs	r4, #16
   857ec:	f8dd 8004 	ldr.w	r8, [sp, #4]
   857f0:	f8dd 9000 	ldr.w	r9, [sp]
   857f4:	e006      	b.n	85804 <_vfiprintf_r+0x7e8>
   857f6:	f100 0e02 	add.w	lr, r0, #2
   857fa:	4608      	mov	r0, r1
   857fc:	3208      	adds	r2, #8
   857fe:	3d10      	subs	r5, #16
   85800:	2d10      	cmp	r5, #16
   85802:	dd10      	ble.n	85826 <_vfiprintf_r+0x80a>
   85804:	1c41      	adds	r1, r0, #1
   85806:	3310      	adds	r3, #16
   85808:	2907      	cmp	r1, #7
   8580a:	930f      	str	r3, [sp, #60]	; 0x3c
   8580c:	6017      	str	r7, [r2, #0]
   8580e:	6054      	str	r4, [r2, #4]
   85810:	910e      	str	r1, [sp, #56]	; 0x38
   85812:	ddf0      	ble.n	857f6 <_vfiprintf_r+0x7da>
   85814:	2b00      	cmp	r3, #0
   85816:	d12a      	bne.n	8586e <_vfiprintf_r+0x852>
   85818:	3d10      	subs	r5, #16
   8581a:	2d10      	cmp	r5, #16
   8581c:	f04f 0e01 	mov.w	lr, #1
   85820:	4618      	mov	r0, r3
   85822:	4652      	mov	r2, sl
   85824:	dcee      	bgt.n	85804 <_vfiprintf_r+0x7e8>
   85826:	442b      	add	r3, r5
   85828:	f1be 0f07 	cmp.w	lr, #7
   8582c:	930f      	str	r3, [sp, #60]	; 0x3c
   8582e:	6017      	str	r7, [r2, #0]
   85830:	6055      	str	r5, [r2, #4]
   85832:	f8cd e038 	str.w	lr, [sp, #56]	; 0x38
   85836:	dd09      	ble.n	8584c <_vfiprintf_r+0x830>
   85838:	2b00      	cmp	r3, #0
   8583a:	d092      	beq.n	85762 <_vfiprintf_r+0x746>
   8583c:	9801      	ldr	r0, [sp, #4]
   8583e:	9900      	ldr	r1, [sp, #0]
   85840:	aa0d      	add	r2, sp, #52	; 0x34
   85842:	f7ff fbaf 	bl	84fa4 <__sprint_r.part.0>
   85846:	2800      	cmp	r0, #0
   85848:	d1ab      	bne.n	857a2 <_vfiprintf_r+0x786>
   8584a:	9b0f      	ldr	r3, [sp, #60]	; 0x3c
   8584c:	9a02      	ldr	r2, [sp, #8]
   8584e:	9903      	ldr	r1, [sp, #12]
   85850:	428e      	cmp	r6, r1
   85852:	bfac      	ite	ge
   85854:	1992      	addge	r2, r2, r6
   85856:	1852      	addlt	r2, r2, r1
   85858:	9202      	str	r2, [sp, #8]
   8585a:	2b00      	cmp	r3, #0
   8585c:	d088      	beq.n	85770 <_vfiprintf_r+0x754>
   8585e:	9801      	ldr	r0, [sp, #4]
   85860:	9900      	ldr	r1, [sp, #0]
   85862:	aa0d      	add	r2, sp, #52	; 0x34
   85864:	f7ff fb9e 	bl	84fa4 <__sprint_r.part.0>
   85868:	2800      	cmp	r0, #0
   8586a:	d081      	beq.n	85770 <_vfiprintf_r+0x754>
   8586c:	e799      	b.n	857a2 <_vfiprintf_r+0x786>
   8586e:	4640      	mov	r0, r8
   85870:	4649      	mov	r1, r9
   85872:	aa0d      	add	r2, sp, #52	; 0x34
   85874:	f7ff fb96 	bl	84fa4 <__sprint_r.part.0>
   85878:	2800      	cmp	r0, #0
   8587a:	d192      	bne.n	857a2 <_vfiprintf_r+0x786>
   8587c:	980e      	ldr	r0, [sp, #56]	; 0x38
   8587e:	4652      	mov	r2, sl
   85880:	9b0f      	ldr	r3, [sp, #60]	; 0x3c
   85882:	f100 0e01 	add.w	lr, r0, #1
   85886:	e7ba      	b.n	857fe <_vfiprintf_r+0x7e2>
   85888:	9b03      	ldr	r3, [sp, #12]
   8588a:	1b9f      	subs	r7, r3, r6
   8588c:	2f00      	cmp	r7, #0
   8588e:	f77f af27 	ble.w	856e0 <_vfiprintf_r+0x6c4>
   85892:	2f10      	cmp	r7, #16
   85894:	f340 81b3 	ble.w	85bfe <_vfiprintf_r+0xbe2>
   85898:	4620      	mov	r0, r4
   8589a:	4d3f      	ldr	r5, [pc, #252]	; (85998 <_vfiprintf_r+0x97c>)
   8589c:	4664      	mov	r4, ip
   8589e:	2310      	movs	r3, #16
   858a0:	4684      	mov	ip, r0
   858a2:	e007      	b.n	858b4 <_vfiprintf_r+0x898>
   858a4:	f101 0e02 	add.w	lr, r1, #2
   858a8:	4601      	mov	r1, r0
   858aa:	f10c 0c08 	add.w	ip, ip, #8
   858ae:	3f10      	subs	r7, #16
   858b0:	2f10      	cmp	r7, #16
   858b2:	dd11      	ble.n	858d8 <_vfiprintf_r+0x8bc>
   858b4:	1c48      	adds	r0, r1, #1
   858b6:	3210      	adds	r2, #16
   858b8:	2807      	cmp	r0, #7
   858ba:	920f      	str	r2, [sp, #60]	; 0x3c
   858bc:	f8cc 5000 	str.w	r5, [ip]
   858c0:	f8cc 3004 	str.w	r3, [ip, #4]
   858c4:	900e      	str	r0, [sp, #56]	; 0x38
   858c6:	dded      	ble.n	858a4 <_vfiprintf_r+0x888>
   858c8:	b9c2      	cbnz	r2, 858fc <_vfiprintf_r+0x8e0>
   858ca:	3f10      	subs	r7, #16
   858cc:	2f10      	cmp	r7, #16
   858ce:	f04f 0e01 	mov.w	lr, #1
   858d2:	4611      	mov	r1, r2
   858d4:	46d4      	mov	ip, sl
   858d6:	dced      	bgt.n	858b4 <_vfiprintf_r+0x898>
   858d8:	4663      	mov	r3, ip
   858da:	46a4      	mov	ip, r4
   858dc:	461c      	mov	r4, r3
   858de:	443a      	add	r2, r7
   858e0:	f1be 0f07 	cmp.w	lr, #7
   858e4:	920f      	str	r2, [sp, #60]	; 0x3c
   858e6:	e884 00a0 	stmia.w	r4, {r5, r7}
   858ea:	f8cd e038 	str.w	lr, [sp, #56]	; 0x38
   858ee:	f300 80ee 	bgt.w	85ace <_vfiprintf_r+0xab2>
   858f2:	3408      	adds	r4, #8
   858f4:	f10e 0001 	add.w	r0, lr, #1
   858f8:	4671      	mov	r1, lr
   858fa:	e6f1      	b.n	856e0 <_vfiprintf_r+0x6c4>
   858fc:	9801      	ldr	r0, [sp, #4]
   858fe:	9900      	ldr	r1, [sp, #0]
   85900:	aa0d      	add	r2, sp, #52	; 0x34
   85902:	9305      	str	r3, [sp, #20]
   85904:	f7ff fb4e 	bl	84fa4 <__sprint_r.part.0>
   85908:	2800      	cmp	r0, #0
   8590a:	f47f af4a 	bne.w	857a2 <_vfiprintf_r+0x786>
   8590e:	990e      	ldr	r1, [sp, #56]	; 0x38
   85910:	46d4      	mov	ip, sl
   85912:	9a0f      	ldr	r2, [sp, #60]	; 0x3c
   85914:	f101 0e01 	add.w	lr, r1, #1
   85918:	9b05      	ldr	r3, [sp, #20]
   8591a:	e7c8      	b.n	858ae <_vfiprintf_r+0x892>
   8591c:	2a00      	cmp	r2, #0
   8591e:	f040 80c5 	bne.w	85aac <_vfiprintf_r+0xa90>
   85922:	9b05      	ldr	r3, [sp, #20]
   85924:	2b00      	cmp	r3, #0
   85926:	f000 8085 	beq.w	85a34 <_vfiprintf_r+0xa18>
   8592a:	aa0c      	add	r2, sp, #48	; 0x30
   8592c:	2302      	movs	r3, #2
   8592e:	921a      	str	r2, [sp, #104]	; 0x68
   85930:	4608      	mov	r0, r1
   85932:	931b      	str	r3, [sp, #108]	; 0x6c
   85934:	461a      	mov	r2, r3
   85936:	4654      	mov	r4, sl
   85938:	e6cb      	b.n	856d2 <_vfiprintf_r+0x6b6>
   8593a:	2a00      	cmp	r2, #0
   8593c:	f040 80a5 	bne.w	85a8a <_vfiprintf_r+0xa6e>
   85940:	2001      	movs	r0, #1
   85942:	4611      	mov	r1, r2
   85944:	4654      	mov	r4, sl
   85946:	e6c7      	b.n	856d8 <_vfiprintf_r+0x6bc>
   85948:	bb03      	cbnz	r3, 8598c <_vfiprintf_r+0x970>
   8594a:	f018 0f01 	tst.w	r8, #1
   8594e:	d01d      	beq.n	8598c <_vfiprintf_r+0x970>
   85950:	ab2a      	add	r3, sp, #168	; 0xa8
   85952:	2230      	movs	r2, #48	; 0x30
   85954:	f803 2d41 	strb.w	r2, [r3, #-65]!
   85958:	ebc3 090a 	rsb	r9, r3, sl
   8595c:	9307      	str	r3, [sp, #28]
   8595e:	e48f      	b.n	85280 <_vfiprintf_r+0x264>
   85960:	46d1      	mov	r9, sl
   85962:	9809      	ldr	r0, [sp, #36]	; 0x24
   85964:	0933      	lsrs	r3, r6, #4
   85966:	ea43 7307 	orr.w	r3, r3, r7, lsl #28
   8596a:	0939      	lsrs	r1, r7, #4
   8596c:	f006 020f 	and.w	r2, r6, #15
   85970:	460f      	mov	r7, r1
   85972:	461e      	mov	r6, r3
   85974:	5c83      	ldrb	r3, [r0, r2]
   85976:	f809 3d01 	strb.w	r3, [r9, #-1]!
   8597a:	ea56 0307 	orrs.w	r3, r6, r7
   8597e:	d1f1      	bne.n	85964 <_vfiprintf_r+0x948>
   85980:	464b      	mov	r3, r9
   85982:	f8cd 901c 	str.w	r9, [sp, #28]
   85986:	ebc3 090a 	rsb	r9, r3, sl
   8598a:	e479      	b.n	85280 <_vfiprintf_r+0x264>
   8598c:	f8cd a01c 	str.w	sl, [sp, #28]
   85990:	e476      	b.n	85280 <_vfiprintf_r+0x264>
   85992:	2302      	movs	r3, #2
   85994:	e445      	b.n	85222 <_vfiprintf_r+0x206>
   85996:	bf00      	nop
   85998:	00087e40 	.word	0x00087e40
   8599c:	00087e80 	.word	0x00087e80
   859a0:	2a00      	cmp	r2, #0
   859a2:	f040 80d5 	bne.w	85b50 <_vfiprintf_r+0xb34>
   859a6:	f89d 302f 	ldrb.w	r3, [sp, #47]	; 0x2f
   859aa:	2b00      	cmp	r3, #0
   859ac:	f000 80ac 	beq.w	85b08 <_vfiprintf_r+0xaec>
   859b0:	2301      	movs	r3, #1
   859b2:	f10d 012f 	add.w	r1, sp, #47	; 0x2f
   859b6:	4618      	mov	r0, r3
   859b8:	931b      	str	r3, [sp, #108]	; 0x6c
   859ba:	461a      	mov	r2, r3
   859bc:	911a      	str	r1, [sp, #104]	; 0x68
   859be:	4654      	mov	r4, sl
   859c0:	e678      	b.n	856b4 <_vfiprintf_r+0x698>
   859c2:	9a03      	ldr	r2, [sp, #12]
   859c4:	1b95      	subs	r5, r2, r6
   859c6:	2d00      	cmp	r5, #0
   859c8:	4652      	mov	r2, sl
   859ca:	f73f af09 	bgt.w	857e0 <_vfiprintf_r+0x7c4>
   859ce:	e6c8      	b.n	85762 <_vfiprintf_r+0x746>
   859d0:	465d      	mov	r5, fp
   859d2:	f7ff bb7c 	b.w	850ce <_vfiprintf_r+0xb2>
   859d6:	9801      	ldr	r0, [sp, #4]
   859d8:	9900      	ldr	r1, [sp, #0]
   859da:	aa0d      	add	r2, sp, #52	; 0x34
   859dc:	f7ff fae2 	bl	84fa4 <__sprint_r.part.0>
   859e0:	2800      	cmp	r0, #0
   859e2:	f47f aede 	bne.w	857a2 <_vfiprintf_r+0x786>
   859e6:	4652      	mov	r2, sl
   859e8:	9b0f      	ldr	r3, [sp, #60]	; 0x3c
   859ea:	e6f2      	b.n	857d2 <_vfiprintf_r+0x7b6>
   859ec:	9904      	ldr	r1, [sp, #16]
   859ee:	2700      	movs	r7, #0
   859f0:	460a      	mov	r2, r1
   859f2:	3204      	adds	r2, #4
   859f4:	680e      	ldr	r6, [r1, #0]
   859f6:	9204      	str	r2, [sp, #16]
   859f8:	e413      	b.n	85222 <_vfiprintf_r+0x206>
   859fa:	3204      	adds	r2, #4
   859fc:	681e      	ldr	r6, [r3, #0]
   859fe:	2700      	movs	r7, #0
   85a00:	2301      	movs	r3, #1
   85a02:	9204      	str	r2, [sp, #16]
   85a04:	e40d      	b.n	85222 <_vfiprintf_r+0x206>
   85a06:	6816      	ldr	r6, [r2, #0]
   85a08:	3204      	adds	r2, #4
   85a0a:	9204      	str	r2, [sp, #16]
   85a0c:	2700      	movs	r7, #0
   85a0e:	e52d      	b.n	8546c <_vfiprintf_r+0x450>
   85a10:	681e      	ldr	r6, [r3, #0]
   85a12:	3304      	adds	r3, #4
   85a14:	17f7      	asrs	r7, r6, #31
   85a16:	9304      	str	r3, [sp, #16]
   85a18:	4632      	mov	r2, r6
   85a1a:	463b      	mov	r3, r7
   85a1c:	e4c1      	b.n	853a2 <_vfiprintf_r+0x386>
   85a1e:	9801      	ldr	r0, [sp, #4]
   85a20:	9900      	ldr	r1, [sp, #0]
   85a22:	aa0d      	add	r2, sp, #52	; 0x34
   85a24:	f7ff fabe 	bl	84fa4 <__sprint_r.part.0>
   85a28:	2800      	cmp	r0, #0
   85a2a:	f47f aeba 	bne.w	857a2 <_vfiprintf_r+0x786>
   85a2e:	4654      	mov	r4, sl
   85a30:	f7ff bbc0 	b.w	851b4 <_vfiprintf_r+0x198>
   85a34:	4608      	mov	r0, r1
   85a36:	4654      	mov	r4, sl
   85a38:	4611      	mov	r1, r2
   85a3a:	e64d      	b.n	856d8 <_vfiprintf_r+0x6bc>
   85a3c:	46d1      	mov	r9, sl
   85a3e:	f8cd c014 	str.w	ip, [sp, #20]
   85a42:	4630      	mov	r0, r6
   85a44:	4639      	mov	r1, r7
   85a46:	220a      	movs	r2, #10
   85a48:	2300      	movs	r3, #0
   85a4a:	f001 fdd1 	bl	875f0 <__aeabi_uldivmod>
   85a4e:	3230      	adds	r2, #48	; 0x30
   85a50:	4630      	mov	r0, r6
   85a52:	4639      	mov	r1, r7
   85a54:	f809 2d01 	strb.w	r2, [r9, #-1]!
   85a58:	2300      	movs	r3, #0
   85a5a:	220a      	movs	r2, #10
   85a5c:	f001 fdc8 	bl	875f0 <__aeabi_uldivmod>
   85a60:	4606      	mov	r6, r0
   85a62:	460f      	mov	r7, r1
   85a64:	ea56 0307 	orrs.w	r3, r6, r7
   85a68:	d1eb      	bne.n	85a42 <_vfiprintf_r+0xa26>
   85a6a:	f8dd c014 	ldr.w	ip, [sp, #20]
   85a6e:	e787      	b.n	85980 <_vfiprintf_r+0x964>
   85a70:	2b30      	cmp	r3, #48	; 0x30
   85a72:	9b07      	ldr	r3, [sp, #28]
   85a74:	d087      	beq.n	85986 <_vfiprintf_r+0x96a>
   85a76:	3b01      	subs	r3, #1
   85a78:	461a      	mov	r2, r3
   85a7a:	9307      	str	r3, [sp, #28]
   85a7c:	2330      	movs	r3, #48	; 0x30
   85a7e:	ebc2 090a 	rsb	r9, r2, sl
   85a82:	f801 3c01 	strb.w	r3, [r1, #-1]
   85a86:	f7ff bbfb 	b.w	85280 <_vfiprintf_r+0x264>
   85a8a:	9801      	ldr	r0, [sp, #4]
   85a8c:	9900      	ldr	r1, [sp, #0]
   85a8e:	aa0d      	add	r2, sp, #52	; 0x34
   85a90:	f8cd c014 	str.w	ip, [sp, #20]
   85a94:	f7ff fa86 	bl	84fa4 <__sprint_r.part.0>
   85a98:	2800      	cmp	r0, #0
   85a9a:	f47f ae82 	bne.w	857a2 <_vfiprintf_r+0x786>
   85a9e:	990e      	ldr	r1, [sp, #56]	; 0x38
   85aa0:	4654      	mov	r4, sl
   85aa2:	9a0f      	ldr	r2, [sp, #60]	; 0x3c
   85aa4:	1c48      	adds	r0, r1, #1
   85aa6:	f8dd c014 	ldr.w	ip, [sp, #20]
   85aaa:	e615      	b.n	856d8 <_vfiprintf_r+0x6bc>
   85aac:	9801      	ldr	r0, [sp, #4]
   85aae:	9900      	ldr	r1, [sp, #0]
   85ab0:	aa0d      	add	r2, sp, #52	; 0x34
   85ab2:	f8cd c020 	str.w	ip, [sp, #32]
   85ab6:	f7ff fa75 	bl	84fa4 <__sprint_r.part.0>
   85aba:	2800      	cmp	r0, #0
   85abc:	f47f ae71 	bne.w	857a2 <_vfiprintf_r+0x786>
   85ac0:	990e      	ldr	r1, [sp, #56]	; 0x38
   85ac2:	4654      	mov	r4, sl
   85ac4:	9a0f      	ldr	r2, [sp, #60]	; 0x3c
   85ac6:	1c48      	adds	r0, r1, #1
   85ac8:	f8dd c020 	ldr.w	ip, [sp, #32]
   85acc:	e5f5      	b.n	856ba <_vfiprintf_r+0x69e>
   85ace:	2a00      	cmp	r2, #0
   85ad0:	d167      	bne.n	85ba2 <_vfiprintf_r+0xb86>
   85ad2:	2001      	movs	r0, #1
   85ad4:	4611      	mov	r1, r2
   85ad6:	4654      	mov	r4, sl
   85ad8:	e602      	b.n	856e0 <_vfiprintf_r+0x6c4>
   85ada:	9801      	ldr	r0, [sp, #4]
   85adc:	9900      	ldr	r1, [sp, #0]
   85ade:	aa0d      	add	r2, sp, #52	; 0x34
   85ae0:	f7ff fa60 	bl	84fa4 <__sprint_r.part.0>
   85ae4:	2800      	cmp	r0, #0
   85ae6:	f47f ae5c 	bne.w	857a2 <_vfiprintf_r+0x786>
   85aea:	980e      	ldr	r0, [sp, #56]	; 0x38
   85aec:	4654      	mov	r4, sl
   85aee:	9a0f      	ldr	r2, [sp, #60]	; 0x3c
   85af0:	3001      	adds	r0, #1
   85af2:	e625      	b.n	85740 <_vfiprintf_r+0x724>
   85af4:	252d      	movs	r5, #45	; 0x2d
   85af6:	4276      	negs	r6, r6
   85af8:	eb67 0747 	sbc.w	r7, r7, r7, lsl #1
   85afc:	f88d 502f 	strb.w	r5, [sp, #47]	; 0x2f
   85b00:	46e1      	mov	r9, ip
   85b02:	2301      	movs	r3, #1
   85b04:	f7ff bb93 	b.w	8522e <_vfiprintf_r+0x212>
   85b08:	9b05      	ldr	r3, [sp, #20]
   85b0a:	4611      	mov	r1, r2
   85b0c:	2001      	movs	r0, #1
   85b0e:	4654      	mov	r4, sl
   85b10:	2b00      	cmp	r3, #0
   85b12:	f43f ade5 	beq.w	856e0 <_vfiprintf_r+0x6c4>
   85b16:	aa0c      	add	r2, sp, #48	; 0x30
   85b18:	2302      	movs	r3, #2
   85b1a:	e88a 000c 	stmia.w	sl, {r2, r3}
   85b1e:	461a      	mov	r2, r3
   85b20:	e5d7      	b.n	856d2 <_vfiprintf_r+0x6b6>
   85b22:	f018 0f10 	tst.w	r8, #16
   85b26:	d10b      	bne.n	85b40 <_vfiprintf_r+0xb24>
   85b28:	f018 0f40 	tst.w	r8, #64	; 0x40
   85b2c:	d008      	beq.n	85b40 <_vfiprintf_r+0xb24>
   85b2e:	9a04      	ldr	r2, [sp, #16]
   85b30:	6813      	ldr	r3, [r2, #0]
   85b32:	3204      	adds	r2, #4
   85b34:	9204      	str	r2, [sp, #16]
   85b36:	f8bd 2008 	ldrh.w	r2, [sp, #8]
   85b3a:	801a      	strh	r2, [r3, #0]
   85b3c:	f7ff baa0 	b.w	85080 <_vfiprintf_r+0x64>
   85b40:	9a04      	ldr	r2, [sp, #16]
   85b42:	6813      	ldr	r3, [r2, #0]
   85b44:	3204      	adds	r2, #4
   85b46:	9204      	str	r2, [sp, #16]
   85b48:	9a02      	ldr	r2, [sp, #8]
   85b4a:	601a      	str	r2, [r3, #0]
   85b4c:	f7ff ba98 	b.w	85080 <_vfiprintf_r+0x64>
   85b50:	9801      	ldr	r0, [sp, #4]
   85b52:	9900      	ldr	r1, [sp, #0]
   85b54:	aa0d      	add	r2, sp, #52	; 0x34
   85b56:	f8cd c020 	str.w	ip, [sp, #32]
   85b5a:	f7ff fa23 	bl	84fa4 <__sprint_r.part.0>
   85b5e:	2800      	cmp	r0, #0
   85b60:	f47f ae1f 	bne.w	857a2 <_vfiprintf_r+0x786>
   85b64:	990e      	ldr	r1, [sp, #56]	; 0x38
   85b66:	4654      	mov	r4, sl
   85b68:	9a0f      	ldr	r2, [sp, #60]	; 0x3c
   85b6a:	1c48      	adds	r0, r1, #1
   85b6c:	f8dd c020 	ldr.w	ip, [sp, #32]
   85b70:	e592      	b.n	85698 <_vfiprintf_r+0x67c>
   85b72:	f048 0820 	orr.w	r8, r8, #32
   85b76:	f10b 0001 	add.w	r0, fp, #1
   85b7a:	f89b 3001 	ldrb.w	r3, [fp, #1]
   85b7e:	f7ff bab6 	b.w	850ee <_vfiprintf_r+0xd2>
   85b82:	426d      	negs	r5, r5
   85b84:	9304      	str	r3, [sp, #16]
   85b86:	4658      	mov	r0, fp
   85b88:	f7ff bbc8 	b.w	8531c <_vfiprintf_r+0x300>
   85b8c:	9807      	ldr	r0, [sp, #28]
   85b8e:	9504      	str	r5, [sp, #16]
   85b90:	f7ff f9a6 	bl	84ee0 <strlen>
   85b94:	f89d 502f 	ldrb.w	r5, [sp, #47]	; 0x2f
   85b98:	4681      	mov	r9, r0
   85b9a:	f04f 0c00 	mov.w	ip, #0
   85b9e:	f7ff bb6f 	b.w	85280 <_vfiprintf_r+0x264>
   85ba2:	9801      	ldr	r0, [sp, #4]
   85ba4:	9900      	ldr	r1, [sp, #0]
   85ba6:	aa0d      	add	r2, sp, #52	; 0x34
   85ba8:	f8cd c014 	str.w	ip, [sp, #20]
   85bac:	f7ff f9fa 	bl	84fa4 <__sprint_r.part.0>
   85bb0:	2800      	cmp	r0, #0
   85bb2:	f47f adf6 	bne.w	857a2 <_vfiprintf_r+0x786>
   85bb6:	990e      	ldr	r1, [sp, #56]	; 0x38
   85bb8:	4654      	mov	r4, sl
   85bba:	9a0f      	ldr	r2, [sp, #60]	; 0x3c
   85bbc:	1c48      	adds	r0, r1, #1
   85bbe:	f8dd c014 	ldr.w	ip, [sp, #20]
   85bc2:	e58d      	b.n	856e0 <_vfiprintf_r+0x6c4>
   85bc4:	990e      	ldr	r1, [sp, #56]	; 0x38
   85bc6:	9a0f      	ldr	r2, [sp, #60]	; 0x3c
   85bc8:	3101      	adds	r1, #1
   85bca:	4f15      	ldr	r7, [pc, #84]	; (85c20 <_vfiprintf_r+0xc04>)
   85bcc:	f7ff bb9a 	b.w	85304 <_vfiprintf_r+0x2e8>
   85bd0:	2e06      	cmp	r6, #6
   85bd2:	4b14      	ldr	r3, [pc, #80]	; (85c24 <_vfiprintf_r+0xc08>)
   85bd4:	bf28      	it	cs
   85bd6:	f04f 0c06 	movcs.w	ip, #6
   85bda:	46e1      	mov	r9, ip
   85bdc:	9504      	str	r5, [sp, #16]
   85bde:	ea2c 76ec 	bic.w	r6, ip, ip, asr #31
   85be2:	9307      	str	r3, [sp, #28]
   85be4:	e463      	b.n	854ae <_vfiprintf_r+0x492>
   85be6:	990e      	ldr	r1, [sp, #56]	; 0x38
   85be8:	4f0d      	ldr	r7, [pc, #52]	; (85c20 <_vfiprintf_r+0xc04>)
   85bea:	f101 0e01 	add.w	lr, r1, #1
   85bee:	e61a      	b.n	85826 <_vfiprintf_r+0x80a>
   85bf0:	46e1      	mov	r9, ip
   85bf2:	9504      	str	r5, [sp, #16]
   85bf4:	4684      	mov	ip, r0
   85bf6:	f89d 502f 	ldrb.w	r5, [sp, #47]	; 0x2f
   85bfa:	f7ff bb41 	b.w	85280 <_vfiprintf_r+0x264>
   85bfe:	4686      	mov	lr, r0
   85c00:	4d09      	ldr	r5, [pc, #36]	; (85c28 <_vfiprintf_r+0xc0c>)
   85c02:	e66c      	b.n	858de <_vfiprintf_r+0x8c2>
   85c04:	9a04      	ldr	r2, [sp, #16]
   85c06:	f89b 3001 	ldrb.w	r3, [fp, #1]
   85c0a:	6816      	ldr	r6, [r2, #0]
   85c0c:	3204      	adds	r2, #4
   85c0e:	2e00      	cmp	r6, #0
   85c10:	9204      	str	r2, [sp, #16]
   85c12:	f6bf aa6c 	bge.w	850ee <_vfiprintf_r+0xd2>
   85c16:	f04f 36ff 	mov.w	r6, #4294967295
   85c1a:	f7ff ba68 	b.w	850ee <_vfiprintf_r+0xd2>
   85c1e:	bf00      	nop
   85c20:	00087e80 	.word	0x00087e80
   85c24:	00087e78 	.word	0x00087e78
   85c28:	00087e40 	.word	0x00087e40

00085c2c <__sbprintf>:
   85c2c:	e92d 45f0 	stmdb	sp!, {r4, r5, r6, r7, r8, sl, lr}
   85c30:	4688      	mov	r8, r1
   85c32:	6e4f      	ldr	r7, [r1, #100]	; 0x64
   85c34:	f2ad 4d6c 	subw	sp, sp, #1132	; 0x46c
   85c38:	9719      	str	r7, [sp, #100]	; 0x64
   85c3a:	f8d8 701c 	ldr.w	r7, [r8, #28]
   85c3e:	f8b1 e00c 	ldrh.w	lr, [r1, #12]
   85c42:	f8b1 a00e 	ldrh.w	sl, [r1, #14]
   85c46:	9707      	str	r7, [sp, #28]
   85c48:	f8d8 7024 	ldr.w	r7, [r8, #36]	; 0x24
   85c4c:	ac1a      	add	r4, sp, #104	; 0x68
   85c4e:	f44f 6580 	mov.w	r5, #1024	; 0x400
   85c52:	f02e 0e02 	bic.w	lr, lr, #2
   85c56:	2600      	movs	r6, #0
   85c58:	4669      	mov	r1, sp
   85c5a:	9400      	str	r4, [sp, #0]
   85c5c:	9404      	str	r4, [sp, #16]
   85c5e:	9502      	str	r5, [sp, #8]
   85c60:	9505      	str	r5, [sp, #20]
   85c62:	f8ad e00c 	strh.w	lr, [sp, #12]
   85c66:	f8ad a00e 	strh.w	sl, [sp, #14]
   85c6a:	9709      	str	r7, [sp, #36]	; 0x24
   85c6c:	9606      	str	r6, [sp, #24]
   85c6e:	4605      	mov	r5, r0
   85c70:	f7ff f9d4 	bl	8501c <_vfiprintf_r>
   85c74:	1e04      	subs	r4, r0, #0
   85c76:	db07      	blt.n	85c88 <__sbprintf+0x5c>
   85c78:	4628      	mov	r0, r5
   85c7a:	4669      	mov	r1, sp
   85c7c:	f000 f92a 	bl	85ed4 <_fflush_r>
   85c80:	42b0      	cmp	r0, r6
   85c82:	bf18      	it	ne
   85c84:	f04f 34ff 	movne.w	r4, #4294967295
   85c88:	f8bd 300c 	ldrh.w	r3, [sp, #12]
   85c8c:	065b      	lsls	r3, r3, #25
   85c8e:	d505      	bpl.n	85c9c <__sbprintf+0x70>
   85c90:	f8b8 300c 	ldrh.w	r3, [r8, #12]
   85c94:	f043 0340 	orr.w	r3, r3, #64	; 0x40
   85c98:	f8a8 300c 	strh.w	r3, [r8, #12]
   85c9c:	4620      	mov	r0, r4
   85c9e:	f20d 4d6c 	addw	sp, sp, #1132	; 0x46c
   85ca2:	e8bd 85f0 	ldmia.w	sp!, {r4, r5, r6, r7, r8, sl, pc}
   85ca6:	bf00      	nop

00085ca8 <__swsetup_r>:
   85ca8:	b538      	push	{r3, r4, r5, lr}
   85caa:	4b2f      	ldr	r3, [pc, #188]	; (85d68 <__swsetup_r+0xc0>)
   85cac:	4605      	mov	r5, r0
   85cae:	6818      	ldr	r0, [r3, #0]
   85cb0:	460c      	mov	r4, r1
   85cb2:	b110      	cbz	r0, 85cba <__swsetup_r+0x12>
   85cb4:	6b83      	ldr	r3, [r0, #56]	; 0x38
   85cb6:	2b00      	cmp	r3, #0
   85cb8:	d036      	beq.n	85d28 <__swsetup_r+0x80>
   85cba:	89a2      	ldrh	r2, [r4, #12]
   85cbc:	b293      	uxth	r3, r2
   85cbe:	0718      	lsls	r0, r3, #28
   85cc0:	d50c      	bpl.n	85cdc <__swsetup_r+0x34>
   85cc2:	6920      	ldr	r0, [r4, #16]
   85cc4:	b1a8      	cbz	r0, 85cf2 <__swsetup_r+0x4a>
   85cc6:	f013 0201 	ands.w	r2, r3, #1
   85cca:	d01e      	beq.n	85d0a <__swsetup_r+0x62>
   85ccc:	6963      	ldr	r3, [r4, #20]
   85cce:	2200      	movs	r2, #0
   85cd0:	425b      	negs	r3, r3
   85cd2:	61a3      	str	r3, [r4, #24]
   85cd4:	60a2      	str	r2, [r4, #8]
   85cd6:	b1f0      	cbz	r0, 85d16 <__swsetup_r+0x6e>
   85cd8:	2000      	movs	r0, #0
   85cda:	bd38      	pop	{r3, r4, r5, pc}
   85cdc:	06d9      	lsls	r1, r3, #27
   85cde:	d53a      	bpl.n	85d56 <__swsetup_r+0xae>
   85ce0:	0758      	lsls	r0, r3, #29
   85ce2:	d424      	bmi.n	85d2e <__swsetup_r+0x86>
   85ce4:	6920      	ldr	r0, [r4, #16]
   85ce6:	f042 0308 	orr.w	r3, r2, #8
   85cea:	81a3      	strh	r3, [r4, #12]
   85cec:	b29b      	uxth	r3, r3
   85cee:	2800      	cmp	r0, #0
   85cf0:	d1e9      	bne.n	85cc6 <__swsetup_r+0x1e>
   85cf2:	f403 7220 	and.w	r2, r3, #640	; 0x280
   85cf6:	f5b2 7f00 	cmp.w	r2, #512	; 0x200
   85cfa:	d0e4      	beq.n	85cc6 <__swsetup_r+0x1e>
   85cfc:	4628      	mov	r0, r5
   85cfe:	4621      	mov	r1, r4
   85d00:	f000 fcee 	bl	866e0 <__smakebuf_r>
   85d04:	89a3      	ldrh	r3, [r4, #12]
   85d06:	6920      	ldr	r0, [r4, #16]
   85d08:	e7dd      	b.n	85cc6 <__swsetup_r+0x1e>
   85d0a:	0799      	lsls	r1, r3, #30
   85d0c:	bf58      	it	pl
   85d0e:	6962      	ldrpl	r2, [r4, #20]
   85d10:	60a2      	str	r2, [r4, #8]
   85d12:	2800      	cmp	r0, #0
   85d14:	d1e0      	bne.n	85cd8 <__swsetup_r+0x30>
   85d16:	89a3      	ldrh	r3, [r4, #12]
   85d18:	061a      	lsls	r2, r3, #24
   85d1a:	d5de      	bpl.n	85cda <__swsetup_r+0x32>
   85d1c:	f043 0340 	orr.w	r3, r3, #64	; 0x40
   85d20:	81a3      	strh	r3, [r4, #12]
   85d22:	f04f 30ff 	mov.w	r0, #4294967295
   85d26:	bd38      	pop	{r3, r4, r5, pc}
   85d28:	f000 f968 	bl	85ffc <__sinit>
   85d2c:	e7c5      	b.n	85cba <__swsetup_r+0x12>
   85d2e:	6b21      	ldr	r1, [r4, #48]	; 0x30
   85d30:	b149      	cbz	r1, 85d46 <__swsetup_r+0x9e>
   85d32:	f104 0340 	add.w	r3, r4, #64	; 0x40
   85d36:	4299      	cmp	r1, r3
   85d38:	d003      	beq.n	85d42 <__swsetup_r+0x9a>
   85d3a:	4628      	mov	r0, r5
   85d3c:	f000 fa36 	bl	861ac <_free_r>
   85d40:	89a2      	ldrh	r2, [r4, #12]
   85d42:	2300      	movs	r3, #0
   85d44:	6323      	str	r3, [r4, #48]	; 0x30
   85d46:	6920      	ldr	r0, [r4, #16]
   85d48:	f022 0224 	bic.w	r2, r2, #36	; 0x24
   85d4c:	2300      	movs	r3, #0
   85d4e:	b292      	uxth	r2, r2
   85d50:	e884 0009 	stmia.w	r4, {r0, r3}
   85d54:	e7c7      	b.n	85ce6 <__swsetup_r+0x3e>
   85d56:	f042 0240 	orr.w	r2, r2, #64	; 0x40
   85d5a:	2309      	movs	r3, #9
   85d5c:	602b      	str	r3, [r5, #0]
   85d5e:	f04f 30ff 	mov.w	r0, #4294967295
   85d62:	81a2      	strh	r2, [r4, #12]
   85d64:	bd38      	pop	{r3, r4, r5, pc}
   85d66:	bf00      	nop
   85d68:	200705d0 	.word	0x200705d0

00085d6c <register_fini>:
   85d6c:	4b02      	ldr	r3, [pc, #8]	; (85d78 <register_fini+0xc>)
   85d6e:	b113      	cbz	r3, 85d76 <register_fini+0xa>
   85d70:	4802      	ldr	r0, [pc, #8]	; (85d7c <register_fini+0x10>)
   85d72:	f000 b805 	b.w	85d80 <atexit>
   85d76:	4770      	bx	lr
   85d78:	00000000 	.word	0x00000000
   85d7c:	00086011 	.word	0x00086011

00085d80 <atexit>:
   85d80:	4601      	mov	r1, r0
   85d82:	2000      	movs	r0, #0
   85d84:	4602      	mov	r2, r0
   85d86:	4603      	mov	r3, r0
   85d88:	f001 bb3e 	b.w	87408 <__register_exitproc>

00085d8c <__sflush_r>:
   85d8c:	898b      	ldrh	r3, [r1, #12]
   85d8e:	e92d 41f0 	stmdb	sp!, {r4, r5, r6, r7, r8, lr}
   85d92:	b29a      	uxth	r2, r3
   85d94:	460d      	mov	r5, r1
   85d96:	0711      	lsls	r1, r2, #28
   85d98:	4680      	mov	r8, r0
   85d9a:	d43c      	bmi.n	85e16 <__sflush_r+0x8a>
   85d9c:	686a      	ldr	r2, [r5, #4]
   85d9e:	f443 6300 	orr.w	r3, r3, #2048	; 0x800
   85da2:	2a00      	cmp	r2, #0
   85da4:	81ab      	strh	r3, [r5, #12]
   85da6:	dd65      	ble.n	85e74 <__sflush_r+0xe8>
   85da8:	6aae      	ldr	r6, [r5, #40]	; 0x28
   85daa:	2e00      	cmp	r6, #0
   85dac:	d04b      	beq.n	85e46 <__sflush_r+0xba>
   85dae:	b29b      	uxth	r3, r3
   85db0:	f403 5280 	and.w	r2, r3, #4096	; 0x1000
   85db4:	2100      	movs	r1, #0
   85db6:	b292      	uxth	r2, r2
   85db8:	f8d8 4000 	ldr.w	r4, [r8]
   85dbc:	f8c8 1000 	str.w	r1, [r8]
   85dc0:	2a00      	cmp	r2, #0
   85dc2:	d05b      	beq.n	85e7c <__sflush_r+0xf0>
   85dc4:	6d2a      	ldr	r2, [r5, #80]	; 0x50
   85dc6:	075f      	lsls	r7, r3, #29
   85dc8:	d505      	bpl.n	85dd6 <__sflush_r+0x4a>
   85dca:	6869      	ldr	r1, [r5, #4]
   85dcc:	6b2b      	ldr	r3, [r5, #48]	; 0x30
   85dce:	1a52      	subs	r2, r2, r1
   85dd0:	b10b      	cbz	r3, 85dd6 <__sflush_r+0x4a>
   85dd2:	6beb      	ldr	r3, [r5, #60]	; 0x3c
   85dd4:	1ad2      	subs	r2, r2, r3
   85dd6:	4640      	mov	r0, r8
   85dd8:	69e9      	ldr	r1, [r5, #28]
   85dda:	2300      	movs	r3, #0
   85ddc:	47b0      	blx	r6
   85dde:	1c46      	adds	r6, r0, #1
   85de0:	d056      	beq.n	85e90 <__sflush_r+0x104>
   85de2:	89ab      	ldrh	r3, [r5, #12]
   85de4:	692a      	ldr	r2, [r5, #16]
   85de6:	f423 6300 	bic.w	r3, r3, #2048	; 0x800
   85dea:	b29b      	uxth	r3, r3
   85dec:	2100      	movs	r1, #0
   85dee:	602a      	str	r2, [r5, #0]
   85df0:	04da      	lsls	r2, r3, #19
   85df2:	81ab      	strh	r3, [r5, #12]
   85df4:	6069      	str	r1, [r5, #4]
   85df6:	d43b      	bmi.n	85e70 <__sflush_r+0xe4>
   85df8:	6b29      	ldr	r1, [r5, #48]	; 0x30
   85dfa:	f8c8 4000 	str.w	r4, [r8]
   85dfe:	b311      	cbz	r1, 85e46 <__sflush_r+0xba>
   85e00:	f105 0340 	add.w	r3, r5, #64	; 0x40
   85e04:	4299      	cmp	r1, r3
   85e06:	d002      	beq.n	85e0e <__sflush_r+0x82>
   85e08:	4640      	mov	r0, r8
   85e0a:	f000 f9cf 	bl	861ac <_free_r>
   85e0e:	2000      	movs	r0, #0
   85e10:	6328      	str	r0, [r5, #48]	; 0x30
   85e12:	e8bd 81f0 	ldmia.w	sp!, {r4, r5, r6, r7, r8, pc}
   85e16:	692e      	ldr	r6, [r5, #16]
   85e18:	b1ae      	cbz	r6, 85e46 <__sflush_r+0xba>
   85e1a:	0791      	lsls	r1, r2, #30
   85e1c:	682c      	ldr	r4, [r5, #0]
   85e1e:	bf0c      	ite	eq
   85e20:	696b      	ldreq	r3, [r5, #20]
   85e22:	2300      	movne	r3, #0
   85e24:	602e      	str	r6, [r5, #0]
   85e26:	1ba4      	subs	r4, r4, r6
   85e28:	60ab      	str	r3, [r5, #8]
   85e2a:	e00a      	b.n	85e42 <__sflush_r+0xb6>
   85e2c:	4632      	mov	r2, r6
   85e2e:	4623      	mov	r3, r4
   85e30:	6a6f      	ldr	r7, [r5, #36]	; 0x24
   85e32:	4640      	mov	r0, r8
   85e34:	69e9      	ldr	r1, [r5, #28]
   85e36:	47b8      	blx	r7
   85e38:	2800      	cmp	r0, #0
   85e3a:	eba4 0400 	sub.w	r4, r4, r0
   85e3e:	4406      	add	r6, r0
   85e40:	dd04      	ble.n	85e4c <__sflush_r+0xc0>
   85e42:	2c00      	cmp	r4, #0
   85e44:	dcf2      	bgt.n	85e2c <__sflush_r+0xa0>
   85e46:	2000      	movs	r0, #0
   85e48:	e8bd 81f0 	ldmia.w	sp!, {r4, r5, r6, r7, r8, pc}
   85e4c:	89ab      	ldrh	r3, [r5, #12]
   85e4e:	f04f 30ff 	mov.w	r0, #4294967295
   85e52:	f043 0340 	orr.w	r3, r3, #64	; 0x40
   85e56:	81ab      	strh	r3, [r5, #12]
   85e58:	e8bd 81f0 	ldmia.w	sp!, {r4, r5, r6, r7, r8, pc}
   85e5c:	89ab      	ldrh	r3, [r5, #12]
   85e5e:	692a      	ldr	r2, [r5, #16]
   85e60:	f423 6300 	bic.w	r3, r3, #2048	; 0x800
   85e64:	b29b      	uxth	r3, r3
   85e66:	81ab      	strh	r3, [r5, #12]
   85e68:	04db      	lsls	r3, r3, #19
   85e6a:	6069      	str	r1, [r5, #4]
   85e6c:	602a      	str	r2, [r5, #0]
   85e6e:	d5c3      	bpl.n	85df8 <__sflush_r+0x6c>
   85e70:	6528      	str	r0, [r5, #80]	; 0x50
   85e72:	e7c1      	b.n	85df8 <__sflush_r+0x6c>
   85e74:	6bea      	ldr	r2, [r5, #60]	; 0x3c
   85e76:	2a00      	cmp	r2, #0
   85e78:	dc96      	bgt.n	85da8 <__sflush_r+0x1c>
   85e7a:	e7e4      	b.n	85e46 <__sflush_r+0xba>
   85e7c:	2301      	movs	r3, #1
   85e7e:	4640      	mov	r0, r8
   85e80:	69e9      	ldr	r1, [r5, #28]
   85e82:	47b0      	blx	r6
   85e84:	1c43      	adds	r3, r0, #1
   85e86:	4602      	mov	r2, r0
   85e88:	d019      	beq.n	85ebe <__sflush_r+0x132>
   85e8a:	89ab      	ldrh	r3, [r5, #12]
   85e8c:	6aae      	ldr	r6, [r5, #40]	; 0x28
   85e8e:	e79a      	b.n	85dc6 <__sflush_r+0x3a>
   85e90:	f8d8 1000 	ldr.w	r1, [r8]
   85e94:	2900      	cmp	r1, #0
   85e96:	d0e1      	beq.n	85e5c <__sflush_r+0xd0>
   85e98:	291d      	cmp	r1, #29
   85e9a:	d007      	beq.n	85eac <__sflush_r+0x120>
   85e9c:	2916      	cmp	r1, #22
   85e9e:	d005      	beq.n	85eac <__sflush_r+0x120>
   85ea0:	89ab      	ldrh	r3, [r5, #12]
   85ea2:	f043 0340 	orr.w	r3, r3, #64	; 0x40
   85ea6:	81ab      	strh	r3, [r5, #12]
   85ea8:	e8bd 81f0 	ldmia.w	sp!, {r4, r5, r6, r7, r8, pc}
   85eac:	89ab      	ldrh	r3, [r5, #12]
   85eae:	6929      	ldr	r1, [r5, #16]
   85eb0:	f423 6300 	bic.w	r3, r3, #2048	; 0x800
   85eb4:	2200      	movs	r2, #0
   85eb6:	81ab      	strh	r3, [r5, #12]
   85eb8:	e885 0006 	stmia.w	r5, {r1, r2}
   85ebc:	e79c      	b.n	85df8 <__sflush_r+0x6c>
   85ebe:	f8d8 3000 	ldr.w	r3, [r8]
   85ec2:	2b00      	cmp	r3, #0
   85ec4:	d0e1      	beq.n	85e8a <__sflush_r+0xfe>
   85ec6:	2b1d      	cmp	r3, #29
   85ec8:	d001      	beq.n	85ece <__sflush_r+0x142>
   85eca:	2b16      	cmp	r3, #22
   85ecc:	d1be      	bne.n	85e4c <__sflush_r+0xc0>
   85ece:	f8c8 4000 	str.w	r4, [r8]
   85ed2:	e7b8      	b.n	85e46 <__sflush_r+0xba>

00085ed4 <_fflush_r>:
   85ed4:	b510      	push	{r4, lr}
   85ed6:	4604      	mov	r4, r0
   85ed8:	b082      	sub	sp, #8
   85eda:	b108      	cbz	r0, 85ee0 <_fflush_r+0xc>
   85edc:	6b83      	ldr	r3, [r0, #56]	; 0x38
   85ede:	b153      	cbz	r3, 85ef6 <_fflush_r+0x22>
   85ee0:	f9b1 000c 	ldrsh.w	r0, [r1, #12]
   85ee4:	b908      	cbnz	r0, 85eea <_fflush_r+0x16>
   85ee6:	b002      	add	sp, #8
   85ee8:	bd10      	pop	{r4, pc}
   85eea:	4620      	mov	r0, r4
   85eec:	b002      	add	sp, #8
   85eee:	e8bd 4010 	ldmia.w	sp!, {r4, lr}
   85ef2:	f7ff bf4b 	b.w	85d8c <__sflush_r>
   85ef6:	9101      	str	r1, [sp, #4]
   85ef8:	f000 f880 	bl	85ffc <__sinit>
   85efc:	9901      	ldr	r1, [sp, #4]
   85efe:	e7ef      	b.n	85ee0 <_fflush_r+0xc>

00085f00 <_cleanup_r>:
   85f00:	4901      	ldr	r1, [pc, #4]	; (85f08 <_cleanup_r+0x8>)
   85f02:	f000 bbbb 	b.w	8667c <_fwalk_reent>
   85f06:	bf00      	nop
   85f08:	000874d1 	.word	0x000874d1

00085f0c <__sinit.part.1>:
   85f0c:	e92d 4ff0 	stmdb	sp!, {r4, r5, r6, r7, r8, r9, sl, fp, lr}
   85f10:	4607      	mov	r7, r0
   85f12:	4835      	ldr	r0, [pc, #212]	; (85fe8 <__sinit.part.1+0xdc>)
   85f14:	687d      	ldr	r5, [r7, #4]
   85f16:	2400      	movs	r4, #0
   85f18:	f507 723b 	add.w	r2, r7, #748	; 0x2ec
   85f1c:	2304      	movs	r3, #4
   85f1e:	2103      	movs	r1, #3
   85f20:	63f8      	str	r0, [r7, #60]	; 0x3c
   85f22:	f8c7 12e4 	str.w	r1, [r7, #740]	; 0x2e4
   85f26:	f8c7 22e8 	str.w	r2, [r7, #744]	; 0x2e8
   85f2a:	f8c7 42e0 	str.w	r4, [r7, #736]	; 0x2e0
   85f2e:	b083      	sub	sp, #12
   85f30:	602c      	str	r4, [r5, #0]
   85f32:	606c      	str	r4, [r5, #4]
   85f34:	60ac      	str	r4, [r5, #8]
   85f36:	666c      	str	r4, [r5, #100]	; 0x64
   85f38:	81ec      	strh	r4, [r5, #14]
   85f3a:	612c      	str	r4, [r5, #16]
   85f3c:	616c      	str	r4, [r5, #20]
   85f3e:	61ac      	str	r4, [r5, #24]
   85f40:	81ab      	strh	r3, [r5, #12]
   85f42:	4621      	mov	r1, r4
   85f44:	f105 005c 	add.w	r0, r5, #92	; 0x5c
   85f48:	2208      	movs	r2, #8
   85f4a:	f7fe fef7 	bl	84d3c <memset>
   85f4e:	f8df b09c 	ldr.w	fp, [pc, #156]	; 85fec <__sinit.part.1+0xe0>
   85f52:	68be      	ldr	r6, [r7, #8]
   85f54:	f8df a098 	ldr.w	sl, [pc, #152]	; 85ff0 <__sinit.part.1+0xe4>
   85f58:	f8df 9098 	ldr.w	r9, [pc, #152]	; 85ff4 <__sinit.part.1+0xe8>
   85f5c:	f8df 8098 	ldr.w	r8, [pc, #152]	; 85ff8 <__sinit.part.1+0xec>
   85f60:	2301      	movs	r3, #1
   85f62:	2209      	movs	r2, #9
   85f64:	f8c5 b020 	str.w	fp, [r5, #32]
   85f68:	f8c5 a024 	str.w	sl, [r5, #36]	; 0x24
   85f6c:	f8c5 9028 	str.w	r9, [r5, #40]	; 0x28
   85f70:	f8c5 802c 	str.w	r8, [r5, #44]	; 0x2c
   85f74:	61ed      	str	r5, [r5, #28]
   85f76:	4621      	mov	r1, r4
   85f78:	81f3      	strh	r3, [r6, #14]
   85f7a:	81b2      	strh	r2, [r6, #12]
   85f7c:	f106 005c 	add.w	r0, r6, #92	; 0x5c
   85f80:	6034      	str	r4, [r6, #0]
   85f82:	6074      	str	r4, [r6, #4]
   85f84:	60b4      	str	r4, [r6, #8]
   85f86:	6674      	str	r4, [r6, #100]	; 0x64
   85f88:	6134      	str	r4, [r6, #16]
   85f8a:	6174      	str	r4, [r6, #20]
   85f8c:	61b4      	str	r4, [r6, #24]
   85f8e:	2208      	movs	r2, #8
   85f90:	9301      	str	r3, [sp, #4]
   85f92:	f7fe fed3 	bl	84d3c <memset>
   85f96:	68fd      	ldr	r5, [r7, #12]
   85f98:	2012      	movs	r0, #18
   85f9a:	2202      	movs	r2, #2
   85f9c:	61f6      	str	r6, [r6, #28]
   85f9e:	f8c6 b020 	str.w	fp, [r6, #32]
   85fa2:	f8c6 a024 	str.w	sl, [r6, #36]	; 0x24
   85fa6:	f8c6 9028 	str.w	r9, [r6, #40]	; 0x28
   85faa:	f8c6 802c 	str.w	r8, [r6, #44]	; 0x2c
   85fae:	4621      	mov	r1, r4
   85fb0:	81a8      	strh	r0, [r5, #12]
   85fb2:	81ea      	strh	r2, [r5, #14]
   85fb4:	602c      	str	r4, [r5, #0]
   85fb6:	606c      	str	r4, [r5, #4]
   85fb8:	60ac      	str	r4, [r5, #8]
   85fba:	666c      	str	r4, [r5, #100]	; 0x64
   85fbc:	612c      	str	r4, [r5, #16]
   85fbe:	616c      	str	r4, [r5, #20]
   85fc0:	61ac      	str	r4, [r5, #24]
   85fc2:	f105 005c 	add.w	r0, r5, #92	; 0x5c
   85fc6:	2208      	movs	r2, #8
   85fc8:	f7fe feb8 	bl	84d3c <memset>
   85fcc:	9b01      	ldr	r3, [sp, #4]
   85fce:	61ed      	str	r5, [r5, #28]
   85fd0:	f8c5 b020 	str.w	fp, [r5, #32]
   85fd4:	f8c5 a024 	str.w	sl, [r5, #36]	; 0x24
   85fd8:	f8c5 9028 	str.w	r9, [r5, #40]	; 0x28
   85fdc:	f8c5 802c 	str.w	r8, [r5, #44]	; 0x2c
   85fe0:	63bb      	str	r3, [r7, #56]	; 0x38
   85fe2:	b003      	add	sp, #12
   85fe4:	e8bd 8ff0 	ldmia.w	sp!, {r4, r5, r6, r7, r8, r9, sl, fp, pc}
   85fe8:	00085f01 	.word	0x00085f01
   85fec:	00087245 	.word	0x00087245
   85ff0:	00087269 	.word	0x00087269
   85ff4:	000872a1 	.word	0x000872a1
   85ff8:	000872c1 	.word	0x000872c1

00085ffc <__sinit>:
   85ffc:	6b83      	ldr	r3, [r0, #56]	; 0x38
   85ffe:	b103      	cbz	r3, 86002 <__sinit+0x6>
   86000:	4770      	bx	lr
   86002:	f7ff bf83 	b.w	85f0c <__sinit.part.1>
   86006:	bf00      	nop

00086008 <__sfp_lock_acquire>:
   86008:	4770      	bx	lr
   8600a:	bf00      	nop

0008600c <__sfp_lock_release>:
   8600c:	4770      	bx	lr
   8600e:	bf00      	nop

00086010 <__libc_fini_array>:
   86010:	b538      	push	{r3, r4, r5, lr}
   86012:	4b08      	ldr	r3, [pc, #32]	; (86034 <__libc_fini_array+0x24>)
   86014:	4d08      	ldr	r5, [pc, #32]	; (86038 <__libc_fini_array+0x28>)
   86016:	1aed      	subs	r5, r5, r3
   86018:	10ac      	asrs	r4, r5, #2
   8601a:	bf18      	it	ne
   8601c:	18ed      	addne	r5, r5, r3
   8601e:	d005      	beq.n	8602c <__libc_fini_array+0x1c>
   86020:	3c01      	subs	r4, #1
   86022:	f855 3d04 	ldr.w	r3, [r5, #-4]!
   86026:	4798      	blx	r3
   86028:	2c00      	cmp	r4, #0
   8602a:	d1f9      	bne.n	86020 <__libc_fini_array+0x10>
   8602c:	e8bd 4038 	ldmia.w	sp!, {r3, r4, r5, lr}
   86030:	f001 bf38 	b.w	87ea4 <_fini>
   86034:	00087eb0 	.word	0x00087eb0
   86038:	00087eb4 	.word	0x00087eb4

0008603c <__fputwc>:
   8603c:	e92d 41f0 	stmdb	sp!, {r4, r5, r6, r7, r8, lr}
   86040:	b082      	sub	sp, #8
   86042:	4607      	mov	r7, r0
   86044:	460e      	mov	r6, r1
   86046:	4614      	mov	r4, r2
   86048:	f000 fb44 	bl	866d4 <__locale_mb_cur_max>
   8604c:	2801      	cmp	r0, #1
   8604e:	d040      	beq.n	860d2 <__fputwc+0x96>
   86050:	4638      	mov	r0, r7
   86052:	a901      	add	r1, sp, #4
   86054:	4632      	mov	r2, r6
   86056:	f104 035c 	add.w	r3, r4, #92	; 0x5c
   8605a:	f001 f989 	bl	87370 <_wcrtomb_r>
   8605e:	f1b0 3fff 	cmp.w	r0, #4294967295
   86062:	4680      	mov	r8, r0
   86064:	d02e      	beq.n	860c4 <__fputwc+0x88>
   86066:	2800      	cmp	r0, #0
   86068:	d03b      	beq.n	860e2 <__fputwc+0xa6>
   8606a:	f89d 1004 	ldrb.w	r1, [sp, #4]
   8606e:	2500      	movs	r5, #0
   86070:	e009      	b.n	86086 <__fputwc+0x4a>
   86072:	6823      	ldr	r3, [r4, #0]
   86074:	7019      	strb	r1, [r3, #0]
   86076:	6823      	ldr	r3, [r4, #0]
   86078:	3301      	adds	r3, #1
   8607a:	6023      	str	r3, [r4, #0]
   8607c:	3501      	adds	r5, #1
   8607e:	45a8      	cmp	r8, r5
   86080:	d92f      	bls.n	860e2 <__fputwc+0xa6>
   86082:	ab01      	add	r3, sp, #4
   86084:	5d59      	ldrb	r1, [r3, r5]
   86086:	68a3      	ldr	r3, [r4, #8]
   86088:	3b01      	subs	r3, #1
   8608a:	2b00      	cmp	r3, #0
   8608c:	60a3      	str	r3, [r4, #8]
   8608e:	daf0      	bge.n	86072 <__fputwc+0x36>
   86090:	69a2      	ldr	r2, [r4, #24]
   86092:	4293      	cmp	r3, r2
   86094:	db06      	blt.n	860a4 <__fputwc+0x68>
   86096:	6823      	ldr	r3, [r4, #0]
   86098:	7019      	strb	r1, [r3, #0]
   8609a:	6823      	ldr	r3, [r4, #0]
   8609c:	7819      	ldrb	r1, [r3, #0]
   8609e:	3301      	adds	r3, #1
   860a0:	290a      	cmp	r1, #10
   860a2:	d1ea      	bne.n	8607a <__fputwc+0x3e>
   860a4:	4638      	mov	r0, r7
   860a6:	4622      	mov	r2, r4
   860a8:	f001 f90e 	bl	872c8 <__swbuf_r>
   860ac:	f1a0 30ff 	sub.w	r0, r0, #4294967295
   860b0:	fab0 f080 	clz	r0, r0
   860b4:	0940      	lsrs	r0, r0, #5
   860b6:	2800      	cmp	r0, #0
   860b8:	d0e0      	beq.n	8607c <__fputwc+0x40>
   860ba:	f04f 30ff 	mov.w	r0, #4294967295
   860be:	b002      	add	sp, #8
   860c0:	e8bd 81f0 	ldmia.w	sp!, {r4, r5, r6, r7, r8, pc}
   860c4:	89a3      	ldrh	r3, [r4, #12]
   860c6:	f043 0340 	orr.w	r3, r3, #64	; 0x40
   860ca:	81a3      	strh	r3, [r4, #12]
   860cc:	b002      	add	sp, #8
   860ce:	e8bd 81f0 	ldmia.w	sp!, {r4, r5, r6, r7, r8, pc}
   860d2:	1e73      	subs	r3, r6, #1
   860d4:	2bfe      	cmp	r3, #254	; 0xfe
   860d6:	d8bb      	bhi.n	86050 <__fputwc+0x14>
   860d8:	b2f1      	uxtb	r1, r6
   860da:	4680      	mov	r8, r0
   860dc:	f88d 1004 	strb.w	r1, [sp, #4]
   860e0:	e7c5      	b.n	8606e <__fputwc+0x32>
   860e2:	4630      	mov	r0, r6
   860e4:	b002      	add	sp, #8
   860e6:	e8bd 81f0 	ldmia.w	sp!, {r4, r5, r6, r7, r8, pc}
   860ea:	bf00      	nop

000860ec <_fputwc_r>:
   860ec:	8993      	ldrh	r3, [r2, #12]
   860ee:	f413 5f00 	tst.w	r3, #8192	; 0x2000
   860f2:	d10b      	bne.n	8610c <_fputwc_r+0x20>
   860f4:	b410      	push	{r4}
   860f6:	6e54      	ldr	r4, [r2, #100]	; 0x64
   860f8:	f443 5300 	orr.w	r3, r3, #8192	; 0x2000
   860fc:	f444 5400 	orr.w	r4, r4, #8192	; 0x2000
   86100:	6654      	str	r4, [r2, #100]	; 0x64
   86102:	8193      	strh	r3, [r2, #12]
   86104:	f85d 4b04 	ldr.w	r4, [sp], #4
   86108:	f7ff bf98 	b.w	8603c <__fputwc>
   8610c:	f7ff bf96 	b.w	8603c <__fputwc>

00086110 <_malloc_trim_r>:
   86110:	b5f8      	push	{r3, r4, r5, r6, r7, lr}
   86112:	460c      	mov	r4, r1
   86114:	4f22      	ldr	r7, [pc, #136]	; (861a0 <_malloc_trim_r+0x90>)
   86116:	4606      	mov	r6, r0
   86118:	f000 fe8e 	bl	86e38 <__malloc_lock>
   8611c:	68bb      	ldr	r3, [r7, #8]
   8611e:	685d      	ldr	r5, [r3, #4]
   86120:	f025 0503 	bic.w	r5, r5, #3
   86124:	1b29      	subs	r1, r5, r4
   86126:	f601 71ef 	addw	r1, r1, #4079	; 0xfef
   8612a:	f421 617f 	bic.w	r1, r1, #4080	; 0xff0
   8612e:	f021 010f 	bic.w	r1, r1, #15
   86132:	f5a1 5480 	sub.w	r4, r1, #4096	; 0x1000
   86136:	f5b4 5f80 	cmp.w	r4, #4096	; 0x1000
   8613a:	db07      	blt.n	8614c <_malloc_trim_r+0x3c>
   8613c:	4630      	mov	r0, r6
   8613e:	2100      	movs	r1, #0
   86140:	f001 f86e 	bl	87220 <_sbrk_r>
   86144:	68bb      	ldr	r3, [r7, #8]
   86146:	442b      	add	r3, r5
   86148:	4298      	cmp	r0, r3
   8614a:	d004      	beq.n	86156 <_malloc_trim_r+0x46>
   8614c:	4630      	mov	r0, r6
   8614e:	f000 fe75 	bl	86e3c <__malloc_unlock>
   86152:	2000      	movs	r0, #0
   86154:	bdf8      	pop	{r3, r4, r5, r6, r7, pc}
   86156:	4630      	mov	r0, r6
   86158:	4261      	negs	r1, r4
   8615a:	f001 f861 	bl	87220 <_sbrk_r>
   8615e:	3001      	adds	r0, #1
   86160:	d00d      	beq.n	8617e <_malloc_trim_r+0x6e>
   86162:	4b10      	ldr	r3, [pc, #64]	; (861a4 <_malloc_trim_r+0x94>)
   86164:	68ba      	ldr	r2, [r7, #8]
   86166:	6819      	ldr	r1, [r3, #0]
   86168:	1b2d      	subs	r5, r5, r4
   8616a:	f045 0501 	orr.w	r5, r5, #1
   8616e:	4630      	mov	r0, r6
   86170:	1b09      	subs	r1, r1, r4
   86172:	6055      	str	r5, [r2, #4]
   86174:	6019      	str	r1, [r3, #0]
   86176:	f000 fe61 	bl	86e3c <__malloc_unlock>
   8617a:	2001      	movs	r0, #1
   8617c:	bdf8      	pop	{r3, r4, r5, r6, r7, pc}
   8617e:	4630      	mov	r0, r6
   86180:	2100      	movs	r1, #0
   86182:	f001 f84d 	bl	87220 <_sbrk_r>
   86186:	68ba      	ldr	r2, [r7, #8]
   86188:	1a83      	subs	r3, r0, r2
   8618a:	2b0f      	cmp	r3, #15
   8618c:	ddde      	ble.n	8614c <_malloc_trim_r+0x3c>
   8618e:	4c06      	ldr	r4, [pc, #24]	; (861a8 <_malloc_trim_r+0x98>)
   86190:	4904      	ldr	r1, [pc, #16]	; (861a4 <_malloc_trim_r+0x94>)
   86192:	6824      	ldr	r4, [r4, #0]
   86194:	f043 0301 	orr.w	r3, r3, #1
   86198:	1b00      	subs	r0, r0, r4
   8619a:	6053      	str	r3, [r2, #4]
   8619c:	6008      	str	r0, [r1, #0]
   8619e:	e7d5      	b.n	8614c <_malloc_trim_r+0x3c>
   861a0:	200705f8 	.word	0x200705f8
   861a4:	2007acec 	.word	0x2007acec
   861a8:	20070a04 	.word	0x20070a04

000861ac <_free_r>:
   861ac:	2900      	cmp	r1, #0
   861ae:	d04e      	beq.n	8624e <_free_r+0xa2>
   861b0:	e92d 41f0 	stmdb	sp!, {r4, r5, r6, r7, r8, lr}
   861b4:	460c      	mov	r4, r1
   861b6:	4680      	mov	r8, r0
   861b8:	f000 fe3e 	bl	86e38 <__malloc_lock>
   861bc:	f854 7c04 	ldr.w	r7, [r4, #-4]
   861c0:	4962      	ldr	r1, [pc, #392]	; (8634c <_free_r+0x1a0>)
   861c2:	f1a4 0508 	sub.w	r5, r4, #8
   861c6:	f027 0201 	bic.w	r2, r7, #1
   861ca:	18ab      	adds	r3, r5, r2
   861cc:	688e      	ldr	r6, [r1, #8]
   861ce:	6858      	ldr	r0, [r3, #4]
   861d0:	429e      	cmp	r6, r3
   861d2:	f020 0003 	bic.w	r0, r0, #3
   861d6:	d05a      	beq.n	8628e <_free_r+0xe2>
   861d8:	07fe      	lsls	r6, r7, #31
   861da:	6058      	str	r0, [r3, #4]
   861dc:	d40b      	bmi.n	861f6 <_free_r+0x4a>
   861de:	f854 7c08 	ldr.w	r7, [r4, #-8]
   861e2:	f101 0e08 	add.w	lr, r1, #8
   861e6:	1bed      	subs	r5, r5, r7
   861e8:	68ac      	ldr	r4, [r5, #8]
   861ea:	443a      	add	r2, r7
   861ec:	4574      	cmp	r4, lr
   861ee:	d067      	beq.n	862c0 <_free_r+0x114>
   861f0:	68ef      	ldr	r7, [r5, #12]
   861f2:	60e7      	str	r7, [r4, #12]
   861f4:	60bc      	str	r4, [r7, #8]
   861f6:	181c      	adds	r4, r3, r0
   861f8:	6864      	ldr	r4, [r4, #4]
   861fa:	07e4      	lsls	r4, r4, #31
   861fc:	d40c      	bmi.n	86218 <_free_r+0x6c>
   861fe:	4f54      	ldr	r7, [pc, #336]	; (86350 <_free_r+0x1a4>)
   86200:	689c      	ldr	r4, [r3, #8]
   86202:	4402      	add	r2, r0
   86204:	42bc      	cmp	r4, r7
   86206:	d07c      	beq.n	86302 <_free_r+0x156>
   86208:	68d8      	ldr	r0, [r3, #12]
   8620a:	f042 0301 	orr.w	r3, r2, #1
   8620e:	60e0      	str	r0, [r4, #12]
   86210:	6084      	str	r4, [r0, #8]
   86212:	606b      	str	r3, [r5, #4]
   86214:	50aa      	str	r2, [r5, r2]
   86216:	e003      	b.n	86220 <_free_r+0x74>
   86218:	f042 0301 	orr.w	r3, r2, #1
   8621c:	606b      	str	r3, [r5, #4]
   8621e:	50aa      	str	r2, [r5, r2]
   86220:	f5b2 7f00 	cmp.w	r2, #512	; 0x200
   86224:	d214      	bcs.n	86250 <_free_r+0xa4>
   86226:	08d2      	lsrs	r2, r2, #3
   86228:	eb01 03c2 	add.w	r3, r1, r2, lsl #3
   8622c:	2401      	movs	r4, #1
   8622e:	6848      	ldr	r0, [r1, #4]
   86230:	1092      	asrs	r2, r2, #2
   86232:	fa04 f202 	lsl.w	r2, r4, r2
   86236:	689c      	ldr	r4, [r3, #8]
   86238:	4310      	orrs	r0, r2
   8623a:	60ac      	str	r4, [r5, #8]
   8623c:	60eb      	str	r3, [r5, #12]
   8623e:	6048      	str	r0, [r1, #4]
   86240:	609d      	str	r5, [r3, #8]
   86242:	60e5      	str	r5, [r4, #12]
   86244:	4640      	mov	r0, r8
   86246:	e8bd 41f0 	ldmia.w	sp!, {r4, r5, r6, r7, r8, lr}
   8624a:	f000 bdf7 	b.w	86e3c <__malloc_unlock>
   8624e:	4770      	bx	lr
   86250:	0a53      	lsrs	r3, r2, #9
   86252:	2b04      	cmp	r3, #4
   86254:	d847      	bhi.n	862e6 <_free_r+0x13a>
   86256:	0993      	lsrs	r3, r2, #6
   86258:	f103 0438 	add.w	r4, r3, #56	; 0x38
   8625c:	0060      	lsls	r0, r4, #1
   8625e:	eb01 0080 	add.w	r0, r1, r0, lsl #2
   86262:	6883      	ldr	r3, [r0, #8]
   86264:	4939      	ldr	r1, [pc, #228]	; (8634c <_free_r+0x1a0>)
   86266:	4283      	cmp	r3, r0
   86268:	d043      	beq.n	862f2 <_free_r+0x146>
   8626a:	6859      	ldr	r1, [r3, #4]
   8626c:	f021 0103 	bic.w	r1, r1, #3
   86270:	4291      	cmp	r1, r2
   86272:	d902      	bls.n	8627a <_free_r+0xce>
   86274:	689b      	ldr	r3, [r3, #8]
   86276:	4298      	cmp	r0, r3
   86278:	d1f7      	bne.n	8626a <_free_r+0xbe>
   8627a:	68da      	ldr	r2, [r3, #12]
   8627c:	60ea      	str	r2, [r5, #12]
   8627e:	60ab      	str	r3, [r5, #8]
   86280:	4640      	mov	r0, r8
   86282:	6095      	str	r5, [r2, #8]
   86284:	60dd      	str	r5, [r3, #12]
   86286:	e8bd 41f0 	ldmia.w	sp!, {r4, r5, r6, r7, r8, lr}
   8628a:	f000 bdd7 	b.w	86e3c <__malloc_unlock>
   8628e:	07ff      	lsls	r7, r7, #31
   86290:	4402      	add	r2, r0
   86292:	d407      	bmi.n	862a4 <_free_r+0xf8>
   86294:	f854 4c08 	ldr.w	r4, [r4, #-8]
   86298:	1b2d      	subs	r5, r5, r4
   8629a:	68eb      	ldr	r3, [r5, #12]
   8629c:	68a8      	ldr	r0, [r5, #8]
   8629e:	4422      	add	r2, r4
   862a0:	60c3      	str	r3, [r0, #12]
   862a2:	6098      	str	r0, [r3, #8]
   862a4:	4b2b      	ldr	r3, [pc, #172]	; (86354 <_free_r+0x1a8>)
   862a6:	f042 0001 	orr.w	r0, r2, #1
   862aa:	681b      	ldr	r3, [r3, #0]
   862ac:	6068      	str	r0, [r5, #4]
   862ae:	429a      	cmp	r2, r3
   862b0:	608d      	str	r5, [r1, #8]
   862b2:	d3c7      	bcc.n	86244 <_free_r+0x98>
   862b4:	4b28      	ldr	r3, [pc, #160]	; (86358 <_free_r+0x1ac>)
   862b6:	4640      	mov	r0, r8
   862b8:	6819      	ldr	r1, [r3, #0]
   862ba:	f7ff ff29 	bl	86110 <_malloc_trim_r>
   862be:	e7c1      	b.n	86244 <_free_r+0x98>
   862c0:	1819      	adds	r1, r3, r0
   862c2:	6849      	ldr	r1, [r1, #4]
   862c4:	07c9      	lsls	r1, r1, #31
   862c6:	d409      	bmi.n	862dc <_free_r+0x130>
   862c8:	68d9      	ldr	r1, [r3, #12]
   862ca:	4402      	add	r2, r0
   862cc:	689b      	ldr	r3, [r3, #8]
   862ce:	f042 0001 	orr.w	r0, r2, #1
   862d2:	60d9      	str	r1, [r3, #12]
   862d4:	608b      	str	r3, [r1, #8]
   862d6:	6068      	str	r0, [r5, #4]
   862d8:	50aa      	str	r2, [r5, r2]
   862da:	e7b3      	b.n	86244 <_free_r+0x98>
   862dc:	f042 0301 	orr.w	r3, r2, #1
   862e0:	606b      	str	r3, [r5, #4]
   862e2:	50aa      	str	r2, [r5, r2]
   862e4:	e7ae      	b.n	86244 <_free_r+0x98>
   862e6:	2b14      	cmp	r3, #20
   862e8:	d814      	bhi.n	86314 <_free_r+0x168>
   862ea:	f103 045b 	add.w	r4, r3, #91	; 0x5b
   862ee:	0060      	lsls	r0, r4, #1
   862f0:	e7b5      	b.n	8625e <_free_r+0xb2>
   862f2:	684a      	ldr	r2, [r1, #4]
   862f4:	10a4      	asrs	r4, r4, #2
   862f6:	2001      	movs	r0, #1
   862f8:	40a0      	lsls	r0, r4
   862fa:	4302      	orrs	r2, r0
   862fc:	604a      	str	r2, [r1, #4]
   862fe:	461a      	mov	r2, r3
   86300:	e7bc      	b.n	8627c <_free_r+0xd0>
   86302:	f042 0301 	orr.w	r3, r2, #1
   86306:	614d      	str	r5, [r1, #20]
   86308:	610d      	str	r5, [r1, #16]
   8630a:	60ec      	str	r4, [r5, #12]
   8630c:	60ac      	str	r4, [r5, #8]
   8630e:	606b      	str	r3, [r5, #4]
   86310:	50aa      	str	r2, [r5, r2]
   86312:	e797      	b.n	86244 <_free_r+0x98>
   86314:	2b54      	cmp	r3, #84	; 0x54
   86316:	d804      	bhi.n	86322 <_free_r+0x176>
   86318:	0b13      	lsrs	r3, r2, #12
   8631a:	f103 046e 	add.w	r4, r3, #110	; 0x6e
   8631e:	0060      	lsls	r0, r4, #1
   86320:	e79d      	b.n	8625e <_free_r+0xb2>
   86322:	f5b3 7faa 	cmp.w	r3, #340	; 0x154
   86326:	d804      	bhi.n	86332 <_free_r+0x186>
   86328:	0bd3      	lsrs	r3, r2, #15
   8632a:	f103 0477 	add.w	r4, r3, #119	; 0x77
   8632e:	0060      	lsls	r0, r4, #1
   86330:	e795      	b.n	8625e <_free_r+0xb2>
   86332:	f240 5054 	movw	r0, #1364	; 0x554
   86336:	4283      	cmp	r3, r0
   86338:	d804      	bhi.n	86344 <_free_r+0x198>
   8633a:	0c93      	lsrs	r3, r2, #18
   8633c:	f103 047c 	add.w	r4, r3, #124	; 0x7c
   86340:	0060      	lsls	r0, r4, #1
   86342:	e78c      	b.n	8625e <_free_r+0xb2>
   86344:	20fc      	movs	r0, #252	; 0xfc
   86346:	247e      	movs	r4, #126	; 0x7e
   86348:	e789      	b.n	8625e <_free_r+0xb2>
   8634a:	bf00      	nop
   8634c:	200705f8 	.word	0x200705f8
   86350:	20070600 	.word	0x20070600
   86354:	20070a00 	.word	0x20070a00
   86358:	2007ace8 	.word	0x2007ace8

0008635c <__sfvwrite_r>:
   8635c:	6893      	ldr	r3, [r2, #8]
   8635e:	2b00      	cmp	r3, #0
   86360:	f000 80b1 	beq.w	864c6 <__sfvwrite_r+0x16a>
   86364:	e92d 4ff0 	stmdb	sp!, {r4, r5, r6, r7, r8, r9, sl, fp, lr}
   86368:	f8b1 e00c 	ldrh.w	lr, [r1, #12]
   8636c:	b083      	sub	sp, #12
   8636e:	f01e 0f08 	tst.w	lr, #8
   86372:	460c      	mov	r4, r1
   86374:	4681      	mov	r9, r0
   86376:	4616      	mov	r6, r2
   86378:	d028      	beq.n	863cc <__sfvwrite_r+0x70>
   8637a:	690b      	ldr	r3, [r1, #16]
   8637c:	b333      	cbz	r3, 863cc <__sfvwrite_r+0x70>
   8637e:	f00e 0802 	and.w	r8, lr, #2
   86382:	fa1f f088 	uxth.w	r0, r8
   86386:	6835      	ldr	r5, [r6, #0]
   86388:	b380      	cbz	r0, 863ec <__sfvwrite_r+0x90>
   8638a:	f04f 0b00 	mov.w	fp, #0
   8638e:	46d8      	mov	r8, fp
   86390:	f8df a2e4 	ldr.w	sl, [pc, #740]	; 86678 <__sfvwrite_r+0x31c>
   86394:	f1b8 0f00 	cmp.w	r8, #0
   86398:	f000 808f 	beq.w	864ba <__sfvwrite_r+0x15e>
   8639c:	45d0      	cmp	r8, sl
   8639e:	4643      	mov	r3, r8
   863a0:	4648      	mov	r0, r9
   863a2:	bf28      	it	cs
   863a4:	4653      	movcs	r3, sl
   863a6:	69e1      	ldr	r1, [r4, #28]
   863a8:	465a      	mov	r2, fp
   863aa:	6a67      	ldr	r7, [r4, #36]	; 0x24
   863ac:	47b8      	blx	r7
   863ae:	2800      	cmp	r0, #0
   863b0:	f340 80a8 	ble.w	86504 <__sfvwrite_r+0x1a8>
   863b4:	68b3      	ldr	r3, [r6, #8]
   863b6:	4483      	add	fp, r0
   863b8:	1a1b      	subs	r3, r3, r0
   863ba:	ebc0 0808 	rsb	r8, r0, r8
   863be:	60b3      	str	r3, [r6, #8]
   863c0:	2b00      	cmp	r3, #0
   863c2:	d1e7      	bne.n	86394 <__sfvwrite_r+0x38>
   863c4:	2000      	movs	r0, #0
   863c6:	b003      	add	sp, #12
   863c8:	e8bd 8ff0 	ldmia.w	sp!, {r4, r5, r6, r7, r8, r9, sl, fp, pc}
   863cc:	4648      	mov	r0, r9
   863ce:	4621      	mov	r1, r4
   863d0:	f7ff fc6a 	bl	85ca8 <__swsetup_r>
   863d4:	2800      	cmp	r0, #0
   863d6:	f040 8146 	bne.w	86666 <__sfvwrite_r+0x30a>
   863da:	f8b4 e00c 	ldrh.w	lr, [r4, #12]
   863de:	6835      	ldr	r5, [r6, #0]
   863e0:	f00e 0802 	and.w	r8, lr, #2
   863e4:	fa1f f088 	uxth.w	r0, r8
   863e8:	2800      	cmp	r0, #0
   863ea:	d1ce      	bne.n	8638a <__sfvwrite_r+0x2e>
   863ec:	f01e 0b01 	ands.w	fp, lr, #1
   863f0:	f040 8091 	bne.w	86516 <__sfvwrite_r+0x1ba>
   863f4:	46d8      	mov	r8, fp
   863f6:	f1b8 0f00 	cmp.w	r8, #0
   863fa:	d058      	beq.n	864ae <__sfvwrite_r+0x152>
   863fc:	f41e 7f00 	tst.w	lr, #512	; 0x200
   86400:	68a7      	ldr	r7, [r4, #8]
   86402:	d062      	beq.n	864ca <__sfvwrite_r+0x16e>
   86404:	45b8      	cmp	r8, r7
   86406:	46ba      	mov	sl, r7
   86408:	f0c0 80c2 	bcc.w	86590 <__sfvwrite_r+0x234>
   8640c:	f41e 6f90 	tst.w	lr, #1152	; 0x480
   86410:	f000 80c0 	beq.w	86594 <__sfvwrite_r+0x238>
   86414:	6967      	ldr	r7, [r4, #20]
   86416:	6921      	ldr	r1, [r4, #16]
   86418:	6823      	ldr	r3, [r4, #0]
   8641a:	eb07 0747 	add.w	r7, r7, r7, lsl #1
   8641e:	1a5b      	subs	r3, r3, r1
   86420:	eb07 77d7 	add.w	r7, r7, r7, lsr #31
   86424:	1c58      	adds	r0, r3, #1
   86426:	107f      	asrs	r7, r7, #1
   86428:	4440      	add	r0, r8
   8642a:	4287      	cmp	r7, r0
   8642c:	463a      	mov	r2, r7
   8642e:	bf3c      	itt	cc
   86430:	4607      	movcc	r7, r0
   86432:	463a      	movcc	r2, r7
   86434:	f41e 6f80 	tst.w	lr, #1024	; 0x400
   86438:	9300      	str	r3, [sp, #0]
   8643a:	f000 80fb 	beq.w	86634 <__sfvwrite_r+0x2d8>
   8643e:	4611      	mov	r1, r2
   86440:	4648      	mov	r0, r9
   86442:	f000 f9c5 	bl	867d0 <_malloc_r>
   86446:	9b00      	ldr	r3, [sp, #0]
   86448:	4682      	mov	sl, r0
   8644a:	2800      	cmp	r0, #0
   8644c:	f000 810e 	beq.w	8666c <__sfvwrite_r+0x310>
   86450:	461a      	mov	r2, r3
   86452:	6921      	ldr	r1, [r4, #16]
   86454:	9300      	str	r3, [sp, #0]
   86456:	f7fe fbfb 	bl	84c50 <memcpy>
   8645a:	89a2      	ldrh	r2, [r4, #12]
   8645c:	9b00      	ldr	r3, [sp, #0]
   8645e:	f422 6290 	bic.w	r2, r2, #1152	; 0x480
   86462:	f042 0280 	orr.w	r2, r2, #128	; 0x80
   86466:	81a2      	strh	r2, [r4, #12]
   86468:	eb0a 0003 	add.w	r0, sl, r3
   8646c:	f8c4 a010 	str.w	sl, [r4, #16]
   86470:	1afb      	subs	r3, r7, r3
   86472:	6167      	str	r7, [r4, #20]
   86474:	46c2      	mov	sl, r8
   86476:	4647      	mov	r7, r8
   86478:	6020      	str	r0, [r4, #0]
   8647a:	60a3      	str	r3, [r4, #8]
   8647c:	4652      	mov	r2, sl
   8647e:	4659      	mov	r1, fp
   86480:	f000 fc76 	bl	86d70 <memmove>
   86484:	68a0      	ldr	r0, [r4, #8]
   86486:	6822      	ldr	r2, [r4, #0]
   86488:	1bc0      	subs	r0, r0, r7
   8648a:	60a0      	str	r0, [r4, #8]
   8648c:	4640      	mov	r0, r8
   8648e:	eb02 030a 	add.w	r3, r2, sl
   86492:	6023      	str	r3, [r4, #0]
   86494:	68b3      	ldr	r3, [r6, #8]
   86496:	4483      	add	fp, r0
   86498:	1a1b      	subs	r3, r3, r0
   8649a:	ebc0 0808 	rsb	r8, r0, r8
   8649e:	60b3      	str	r3, [r6, #8]
   864a0:	2b00      	cmp	r3, #0
   864a2:	d08f      	beq.n	863c4 <__sfvwrite_r+0x68>
   864a4:	f8b4 e00c 	ldrh.w	lr, [r4, #12]
   864a8:	f1b8 0f00 	cmp.w	r8, #0
   864ac:	d1a6      	bne.n	863fc <__sfvwrite_r+0xa0>
   864ae:	f8d5 b000 	ldr.w	fp, [r5]
   864b2:	f8d5 8004 	ldr.w	r8, [r5, #4]
   864b6:	3508      	adds	r5, #8
   864b8:	e79d      	b.n	863f6 <__sfvwrite_r+0x9a>
   864ba:	f8d5 b000 	ldr.w	fp, [r5]
   864be:	f8d5 8004 	ldr.w	r8, [r5, #4]
   864c2:	3508      	adds	r5, #8
   864c4:	e766      	b.n	86394 <__sfvwrite_r+0x38>
   864c6:	2000      	movs	r0, #0
   864c8:	4770      	bx	lr
   864ca:	6820      	ldr	r0, [r4, #0]
   864cc:	6923      	ldr	r3, [r4, #16]
   864ce:	4298      	cmp	r0, r3
   864d0:	d803      	bhi.n	864da <__sfvwrite_r+0x17e>
   864d2:	6962      	ldr	r2, [r4, #20]
   864d4:	4590      	cmp	r8, r2
   864d6:	f080 8085 	bcs.w	865e4 <__sfvwrite_r+0x288>
   864da:	4547      	cmp	r7, r8
   864dc:	bf28      	it	cs
   864de:	4647      	movcs	r7, r8
   864e0:	4659      	mov	r1, fp
   864e2:	463a      	mov	r2, r7
   864e4:	f000 fc44 	bl	86d70 <memmove>
   864e8:	68a3      	ldr	r3, [r4, #8]
   864ea:	6822      	ldr	r2, [r4, #0]
   864ec:	1bdb      	subs	r3, r3, r7
   864ee:	443a      	add	r2, r7
   864f0:	60a3      	str	r3, [r4, #8]
   864f2:	6022      	str	r2, [r4, #0]
   864f4:	2b00      	cmp	r3, #0
   864f6:	d149      	bne.n	8658c <__sfvwrite_r+0x230>
   864f8:	4648      	mov	r0, r9
   864fa:	4621      	mov	r1, r4
   864fc:	f7ff fcea 	bl	85ed4 <_fflush_r>
   86500:	2800      	cmp	r0, #0
   86502:	d043      	beq.n	8658c <__sfvwrite_r+0x230>
   86504:	89a3      	ldrh	r3, [r4, #12]
   86506:	f043 0340 	orr.w	r3, r3, #64	; 0x40
   8650a:	f04f 30ff 	mov.w	r0, #4294967295
   8650e:	81a3      	strh	r3, [r4, #12]
   86510:	b003      	add	sp, #12
   86512:	e8bd 8ff0 	ldmia.w	sp!, {r4, r5, r6, r7, r8, r9, sl, fp, pc}
   86516:	4680      	mov	r8, r0
   86518:	4683      	mov	fp, r0
   8651a:	4682      	mov	sl, r0
   8651c:	9000      	str	r0, [sp, #0]
   8651e:	f1ba 0f00 	cmp.w	sl, #0
   86522:	d02b      	beq.n	8657c <__sfvwrite_r+0x220>
   86524:	9b00      	ldr	r3, [sp, #0]
   86526:	2b00      	cmp	r3, #0
   86528:	d04f      	beq.n	865ca <__sfvwrite_r+0x26e>
   8652a:	45d0      	cmp	r8, sl
   8652c:	4643      	mov	r3, r8
   8652e:	bf28      	it	cs
   86530:	4653      	movcs	r3, sl
   86532:	6820      	ldr	r0, [r4, #0]
   86534:	6921      	ldr	r1, [r4, #16]
   86536:	461f      	mov	r7, r3
   86538:	4288      	cmp	r0, r1
   8653a:	f8d4 e008 	ldr.w	lr, [r4, #8]
   8653e:	6962      	ldr	r2, [r4, #20]
   86540:	d903      	bls.n	8654a <__sfvwrite_r+0x1ee>
   86542:	eb0e 0c02 	add.w	ip, lr, r2
   86546:	4563      	cmp	r3, ip
   86548:	dc5e      	bgt.n	86608 <__sfvwrite_r+0x2ac>
   8654a:	4293      	cmp	r3, r2
   8654c:	db24      	blt.n	86598 <__sfvwrite_r+0x23c>
   8654e:	4613      	mov	r3, r2
   86550:	6a67      	ldr	r7, [r4, #36]	; 0x24
   86552:	4648      	mov	r0, r9
   86554:	69e1      	ldr	r1, [r4, #28]
   86556:	465a      	mov	r2, fp
   86558:	47b8      	blx	r7
   8655a:	1e07      	subs	r7, r0, #0
   8655c:	ddd2      	ble.n	86504 <__sfvwrite_r+0x1a8>
   8655e:	ebb8 0807 	subs.w	r8, r8, r7
   86562:	d029      	beq.n	865b8 <__sfvwrite_r+0x25c>
   86564:	68b3      	ldr	r3, [r6, #8]
   86566:	44bb      	add	fp, r7
   86568:	1bdb      	subs	r3, r3, r7
   8656a:	ebc7 0a0a 	rsb	sl, r7, sl
   8656e:	60b3      	str	r3, [r6, #8]
   86570:	2b00      	cmp	r3, #0
   86572:	f43f af27 	beq.w	863c4 <__sfvwrite_r+0x68>
   86576:	f1ba 0f00 	cmp.w	sl, #0
   8657a:	d1d3      	bne.n	86524 <__sfvwrite_r+0x1c8>
   8657c:	2300      	movs	r3, #0
   8657e:	f8d5 b000 	ldr.w	fp, [r5]
   86582:	f8d5 a004 	ldr.w	sl, [r5, #4]
   86586:	9300      	str	r3, [sp, #0]
   86588:	3508      	adds	r5, #8
   8658a:	e7c8      	b.n	8651e <__sfvwrite_r+0x1c2>
   8658c:	4638      	mov	r0, r7
   8658e:	e781      	b.n	86494 <__sfvwrite_r+0x138>
   86590:	4647      	mov	r7, r8
   86592:	46c2      	mov	sl, r8
   86594:	6820      	ldr	r0, [r4, #0]
   86596:	e771      	b.n	8647c <__sfvwrite_r+0x120>
   86598:	461a      	mov	r2, r3
   8659a:	4659      	mov	r1, fp
   8659c:	9301      	str	r3, [sp, #4]
   8659e:	f000 fbe7 	bl	86d70 <memmove>
   865a2:	68a2      	ldr	r2, [r4, #8]
   865a4:	6821      	ldr	r1, [r4, #0]
   865a6:	9b01      	ldr	r3, [sp, #4]
   865a8:	ebb8 0807 	subs.w	r8, r8, r7
   865ac:	eba2 0203 	sub.w	r2, r2, r3
   865b0:	440b      	add	r3, r1
   865b2:	60a2      	str	r2, [r4, #8]
   865b4:	6023      	str	r3, [r4, #0]
   865b6:	d1d5      	bne.n	86564 <__sfvwrite_r+0x208>
   865b8:	4648      	mov	r0, r9
   865ba:	4621      	mov	r1, r4
   865bc:	f7ff fc8a 	bl	85ed4 <_fflush_r>
   865c0:	2800      	cmp	r0, #0
   865c2:	d19f      	bne.n	86504 <__sfvwrite_r+0x1a8>
   865c4:	f8cd 8000 	str.w	r8, [sp]
   865c8:	e7cc      	b.n	86564 <__sfvwrite_r+0x208>
   865ca:	4658      	mov	r0, fp
   865cc:	210a      	movs	r1, #10
   865ce:	4652      	mov	r2, sl
   865d0:	f000 fb84 	bl	86cdc <memchr>
   865d4:	2800      	cmp	r0, #0
   865d6:	d041      	beq.n	8665c <__sfvwrite_r+0x300>
   865d8:	3001      	adds	r0, #1
   865da:	2301      	movs	r3, #1
   865dc:	ebcb 0800 	rsb	r8, fp, r0
   865e0:	9300      	str	r3, [sp, #0]
   865e2:	e7a2      	b.n	8652a <__sfvwrite_r+0x1ce>
   865e4:	f06f 4300 	mvn.w	r3, #2147483648	; 0x80000000
   865e8:	4543      	cmp	r3, r8
   865ea:	bf28      	it	cs
   865ec:	4643      	movcs	r3, r8
   865ee:	fb93 f3f2 	sdiv	r3, r3, r2
   865f2:	6a67      	ldr	r7, [r4, #36]	; 0x24
   865f4:	fb03 f302 	mul.w	r3, r3, r2
   865f8:	4648      	mov	r0, r9
   865fa:	69e1      	ldr	r1, [r4, #28]
   865fc:	465a      	mov	r2, fp
   865fe:	47b8      	blx	r7
   86600:	2800      	cmp	r0, #0
   86602:	f73f af47 	bgt.w	86494 <__sfvwrite_r+0x138>
   86606:	e77d      	b.n	86504 <__sfvwrite_r+0x1a8>
   86608:	4662      	mov	r2, ip
   8660a:	4659      	mov	r1, fp
   8660c:	f8cd c004 	str.w	ip, [sp, #4]
   86610:	f000 fbae 	bl	86d70 <memmove>
   86614:	6823      	ldr	r3, [r4, #0]
   86616:	f8dd c004 	ldr.w	ip, [sp, #4]
   8661a:	4648      	mov	r0, r9
   8661c:	4463      	add	r3, ip
   8661e:	6023      	str	r3, [r4, #0]
   86620:	4621      	mov	r1, r4
   86622:	f7ff fc57 	bl	85ed4 <_fflush_r>
   86626:	f8dd c004 	ldr.w	ip, [sp, #4]
   8662a:	2800      	cmp	r0, #0
   8662c:	f47f af6a 	bne.w	86504 <__sfvwrite_r+0x1a8>
   86630:	4667      	mov	r7, ip
   86632:	e794      	b.n	8655e <__sfvwrite_r+0x202>
   86634:	4648      	mov	r0, r9
   86636:	f000 fc03 	bl	86e40 <_realloc_r>
   8663a:	9b00      	ldr	r3, [sp, #0]
   8663c:	4682      	mov	sl, r0
   8663e:	2800      	cmp	r0, #0
   86640:	f47f af12 	bne.w	86468 <__sfvwrite_r+0x10c>
   86644:	4648      	mov	r0, r9
   86646:	6921      	ldr	r1, [r4, #16]
   86648:	f7ff fdb0 	bl	861ac <_free_r>
   8664c:	89a3      	ldrh	r3, [r4, #12]
   8664e:	220c      	movs	r2, #12
   86650:	f023 0380 	bic.w	r3, r3, #128	; 0x80
   86654:	b29b      	uxth	r3, r3
   86656:	f8c9 2000 	str.w	r2, [r9]
   8665a:	e754      	b.n	86506 <__sfvwrite_r+0x1aa>
   8665c:	2301      	movs	r3, #1
   8665e:	f10a 0801 	add.w	r8, sl, #1
   86662:	9300      	str	r3, [sp, #0]
   86664:	e761      	b.n	8652a <__sfvwrite_r+0x1ce>
   86666:	f04f 30ff 	mov.w	r0, #4294967295
   8666a:	e6ac      	b.n	863c6 <__sfvwrite_r+0x6a>
   8666c:	230c      	movs	r3, #12
   8666e:	f8c9 3000 	str.w	r3, [r9]
   86672:	89a3      	ldrh	r3, [r4, #12]
   86674:	e747      	b.n	86506 <__sfvwrite_r+0x1aa>
   86676:	bf00      	nop
   86678:	7ffffc00 	.word	0x7ffffc00

0008667c <_fwalk_reent>:
   8667c:	e92d 43f8 	stmdb	sp!, {r3, r4, r5, r6, r7, r8, r9, lr}
   86680:	f510 7638 	adds.w	r6, r0, #736	; 0x2e0
   86684:	d01e      	beq.n	866c4 <_fwalk_reent+0x48>
   86686:	4688      	mov	r8, r1
   86688:	4607      	mov	r7, r0
   8668a:	f04f 0900 	mov.w	r9, #0
   8668e:	6875      	ldr	r5, [r6, #4]
   86690:	68b4      	ldr	r4, [r6, #8]
   86692:	3d01      	subs	r5, #1
   86694:	d410      	bmi.n	866b8 <_fwalk_reent+0x3c>
   86696:	89a3      	ldrh	r3, [r4, #12]
   86698:	3d01      	subs	r5, #1
   8669a:	2b01      	cmp	r3, #1
   8669c:	d908      	bls.n	866b0 <_fwalk_reent+0x34>
   8669e:	f9b4 300e 	ldrsh.w	r3, [r4, #14]
   866a2:	3301      	adds	r3, #1
   866a4:	d004      	beq.n	866b0 <_fwalk_reent+0x34>
   866a6:	4638      	mov	r0, r7
   866a8:	4621      	mov	r1, r4
   866aa:	47c0      	blx	r8
   866ac:	ea49 0900 	orr.w	r9, r9, r0
   866b0:	1c6b      	adds	r3, r5, #1
   866b2:	f104 0468 	add.w	r4, r4, #104	; 0x68
   866b6:	d1ee      	bne.n	86696 <_fwalk_reent+0x1a>
   866b8:	6836      	ldr	r6, [r6, #0]
   866ba:	2e00      	cmp	r6, #0
   866bc:	d1e7      	bne.n	8668e <_fwalk_reent+0x12>
   866be:	4648      	mov	r0, r9
   866c0:	e8bd 83f8 	ldmia.w	sp!, {r3, r4, r5, r6, r7, r8, r9, pc}
   866c4:	46b1      	mov	r9, r6
   866c6:	4648      	mov	r0, r9
   866c8:	e8bd 83f8 	ldmia.w	sp!, {r3, r4, r5, r6, r7, r8, r9, pc}

000866cc <__locale_charset>:
   866cc:	4800      	ldr	r0, [pc, #0]	; (866d0 <__locale_charset+0x4>)
   866ce:	4770      	bx	lr
   866d0:	200705d4 	.word	0x200705d4

000866d4 <__locale_mb_cur_max>:
   866d4:	4b01      	ldr	r3, [pc, #4]	; (866dc <__locale_mb_cur_max+0x8>)
   866d6:	6818      	ldr	r0, [r3, #0]
   866d8:	4770      	bx	lr
   866da:	bf00      	nop
   866dc:	200705f4 	.word	0x200705f4

000866e0 <__smakebuf_r>:
   866e0:	898b      	ldrh	r3, [r1, #12]
   866e2:	b29a      	uxth	r2, r3
   866e4:	f012 0f02 	tst.w	r2, #2
   866e8:	d13c      	bne.n	86764 <__smakebuf_r+0x84>
   866ea:	b5f0      	push	{r4, r5, r6, r7, lr}
   866ec:	460c      	mov	r4, r1
   866ee:	f9b1 100e 	ldrsh.w	r1, [r1, #14]
   866f2:	b091      	sub	sp, #68	; 0x44
   866f4:	2900      	cmp	r1, #0
   866f6:	4605      	mov	r5, r0
   866f8:	db19      	blt.n	8672e <__smakebuf_r+0x4e>
   866fa:	aa01      	add	r2, sp, #4
   866fc:	f000 ff2a 	bl	87554 <_fstat_r>
   86700:	2800      	cmp	r0, #0
   86702:	db12      	blt.n	8672a <__smakebuf_r+0x4a>
   86704:	9b02      	ldr	r3, [sp, #8]
   86706:	f403 4370 	and.w	r3, r3, #61440	; 0xf000
   8670a:	f5a3 5700 	sub.w	r7, r3, #8192	; 0x2000
   8670e:	fab7 f787 	clz	r7, r7
   86712:	f5b3 4f00 	cmp.w	r3, #32768	; 0x8000
   86716:	ea4f 1757 	mov.w	r7, r7, lsr #5
   8671a:	d02a      	beq.n	86772 <__smakebuf_r+0x92>
   8671c:	89a3      	ldrh	r3, [r4, #12]
   8671e:	f44f 6680 	mov.w	r6, #1024	; 0x400
   86722:	f443 6300 	orr.w	r3, r3, #2048	; 0x800
   86726:	81a3      	strh	r3, [r4, #12]
   86728:	e00b      	b.n	86742 <__smakebuf_r+0x62>
   8672a:	89a3      	ldrh	r3, [r4, #12]
   8672c:	b29a      	uxth	r2, r3
   8672e:	f012 0f80 	tst.w	r2, #128	; 0x80
   86732:	f443 6300 	orr.w	r3, r3, #2048	; 0x800
   86736:	81a3      	strh	r3, [r4, #12]
   86738:	bf0c      	ite	eq
   8673a:	f44f 6680 	moveq.w	r6, #1024	; 0x400
   8673e:	2640      	movne	r6, #64	; 0x40
   86740:	2700      	movs	r7, #0
   86742:	4628      	mov	r0, r5
   86744:	4631      	mov	r1, r6
   86746:	f000 f843 	bl	867d0 <_malloc_r>
   8674a:	89a3      	ldrh	r3, [r4, #12]
   8674c:	b340      	cbz	r0, 867a0 <__smakebuf_r+0xc0>
   8674e:	4a1a      	ldr	r2, [pc, #104]	; (867b8 <__smakebuf_r+0xd8>)
   86750:	f043 0380 	orr.w	r3, r3, #128	; 0x80
   86754:	63ea      	str	r2, [r5, #60]	; 0x3c
   86756:	81a3      	strh	r3, [r4, #12]
   86758:	6020      	str	r0, [r4, #0]
   8675a:	6120      	str	r0, [r4, #16]
   8675c:	6166      	str	r6, [r4, #20]
   8675e:	b99f      	cbnz	r7, 86788 <__smakebuf_r+0xa8>
   86760:	b011      	add	sp, #68	; 0x44
   86762:	bdf0      	pop	{r4, r5, r6, r7, pc}
   86764:	f101 0343 	add.w	r3, r1, #67	; 0x43
   86768:	2201      	movs	r2, #1
   8676a:	600b      	str	r3, [r1, #0]
   8676c:	610b      	str	r3, [r1, #16]
   8676e:	614a      	str	r2, [r1, #20]
   86770:	4770      	bx	lr
   86772:	4b12      	ldr	r3, [pc, #72]	; (867bc <__smakebuf_r+0xdc>)
   86774:	6aa2      	ldr	r2, [r4, #40]	; 0x28
   86776:	429a      	cmp	r2, r3
   86778:	d1d0      	bne.n	8671c <__smakebuf_r+0x3c>
   8677a:	89a3      	ldrh	r3, [r4, #12]
   8677c:	f44f 6680 	mov.w	r6, #1024	; 0x400
   86780:	4333      	orrs	r3, r6
   86782:	81a3      	strh	r3, [r4, #12]
   86784:	64e6      	str	r6, [r4, #76]	; 0x4c
   86786:	e7dc      	b.n	86742 <__smakebuf_r+0x62>
   86788:	4628      	mov	r0, r5
   8678a:	f9b4 100e 	ldrsh.w	r1, [r4, #14]
   8678e:	f000 fef5 	bl	8757c <_isatty_r>
   86792:	2800      	cmp	r0, #0
   86794:	d0e4      	beq.n	86760 <__smakebuf_r+0x80>
   86796:	89a3      	ldrh	r3, [r4, #12]
   86798:	f043 0301 	orr.w	r3, r3, #1
   8679c:	81a3      	strh	r3, [r4, #12]
   8679e:	e7df      	b.n	86760 <__smakebuf_r+0x80>
   867a0:	059a      	lsls	r2, r3, #22
   867a2:	d4dd      	bmi.n	86760 <__smakebuf_r+0x80>
   867a4:	f104 0243 	add.w	r2, r4, #67	; 0x43
   867a8:	f043 0302 	orr.w	r3, r3, #2
   867ac:	2101      	movs	r1, #1
   867ae:	81a3      	strh	r3, [r4, #12]
   867b0:	6022      	str	r2, [r4, #0]
   867b2:	6122      	str	r2, [r4, #16]
   867b4:	6161      	str	r1, [r4, #20]
   867b6:	e7d3      	b.n	86760 <__smakebuf_r+0x80>
   867b8:	00085f01 	.word	0x00085f01
   867bc:	000872a1 	.word	0x000872a1

000867c0 <malloc>:
   867c0:	4b02      	ldr	r3, [pc, #8]	; (867cc <malloc+0xc>)
   867c2:	4601      	mov	r1, r0
   867c4:	6818      	ldr	r0, [r3, #0]
   867c6:	f000 b803 	b.w	867d0 <_malloc_r>
   867ca:	bf00      	nop
   867cc:	200705d0 	.word	0x200705d0

000867d0 <_malloc_r>:
   867d0:	e92d 4ff0 	stmdb	sp!, {r4, r5, r6, r7, r8, r9, sl, fp, lr}
   867d4:	f101 050b 	add.w	r5, r1, #11
   867d8:	2d16      	cmp	r5, #22
   867da:	b083      	sub	sp, #12
   867dc:	4606      	mov	r6, r0
   867de:	d927      	bls.n	86830 <_malloc_r+0x60>
   867e0:	f035 0507 	bics.w	r5, r5, #7
   867e4:	f100 80b6 	bmi.w	86954 <_malloc_r+0x184>
   867e8:	42a9      	cmp	r1, r5
   867ea:	f200 80b3 	bhi.w	86954 <_malloc_r+0x184>
   867ee:	f000 fb23 	bl	86e38 <__malloc_lock>
   867f2:	f5b5 7ffc 	cmp.w	r5, #504	; 0x1f8
   867f6:	d222      	bcs.n	8683e <_malloc_r+0x6e>
   867f8:	4fbc      	ldr	r7, [pc, #752]	; (86aec <_malloc_r+0x31c>)
   867fa:	08e8      	lsrs	r0, r5, #3
   867fc:	eb07 03c0 	add.w	r3, r7, r0, lsl #3
   86800:	68dc      	ldr	r4, [r3, #12]
   86802:	429c      	cmp	r4, r3
   86804:	f000 81bc 	beq.w	86b80 <_malloc_r+0x3b0>
   86808:	6863      	ldr	r3, [r4, #4]
   8680a:	68e1      	ldr	r1, [r4, #12]
   8680c:	f023 0303 	bic.w	r3, r3, #3
   86810:	4423      	add	r3, r4
   86812:	685a      	ldr	r2, [r3, #4]
   86814:	68a5      	ldr	r5, [r4, #8]
   86816:	f042 0201 	orr.w	r2, r2, #1
   8681a:	60e9      	str	r1, [r5, #12]
   8681c:	4630      	mov	r0, r6
   8681e:	608d      	str	r5, [r1, #8]
   86820:	605a      	str	r2, [r3, #4]
   86822:	f000 fb0b 	bl	86e3c <__malloc_unlock>
   86826:	3408      	adds	r4, #8
   86828:	4620      	mov	r0, r4
   8682a:	b003      	add	sp, #12
   8682c:	e8bd 8ff0 	ldmia.w	sp!, {r4, r5, r6, r7, r8, r9, sl, fp, pc}
   86830:	2910      	cmp	r1, #16
   86832:	f200 808f 	bhi.w	86954 <_malloc_r+0x184>
   86836:	f000 faff 	bl	86e38 <__malloc_lock>
   8683a:	2510      	movs	r5, #16
   8683c:	e7dc      	b.n	867f8 <_malloc_r+0x28>
   8683e:	0a68      	lsrs	r0, r5, #9
   86840:	f000 808f 	beq.w	86962 <_malloc_r+0x192>
   86844:	2804      	cmp	r0, #4
   86846:	f200 8147 	bhi.w	86ad8 <_malloc_r+0x308>
   8684a:	09a8      	lsrs	r0, r5, #6
   8684c:	3038      	adds	r0, #56	; 0x38
   8684e:	0041      	lsls	r1, r0, #1
   86850:	4fa6      	ldr	r7, [pc, #664]	; (86aec <_malloc_r+0x31c>)
   86852:	eb07 0181 	add.w	r1, r7, r1, lsl #2
   86856:	68cc      	ldr	r4, [r1, #12]
   86858:	42a1      	cmp	r1, r4
   8685a:	d106      	bne.n	8686a <_malloc_r+0x9a>
   8685c:	e00c      	b.n	86878 <_malloc_r+0xa8>
   8685e:	2a00      	cmp	r2, #0
   86860:	f280 8082 	bge.w	86968 <_malloc_r+0x198>
   86864:	68e4      	ldr	r4, [r4, #12]
   86866:	42a1      	cmp	r1, r4
   86868:	d006      	beq.n	86878 <_malloc_r+0xa8>
   8686a:	6863      	ldr	r3, [r4, #4]
   8686c:	f023 0303 	bic.w	r3, r3, #3
   86870:	1b5a      	subs	r2, r3, r5
   86872:	2a0f      	cmp	r2, #15
   86874:	ddf3      	ble.n	8685e <_malloc_r+0x8e>
   86876:	3801      	subs	r0, #1
   86878:	3001      	adds	r0, #1
   8687a:	499c      	ldr	r1, [pc, #624]	; (86aec <_malloc_r+0x31c>)
   8687c:	693c      	ldr	r4, [r7, #16]
   8687e:	f101 0e08 	add.w	lr, r1, #8
   86882:	4574      	cmp	r4, lr
   86884:	f000 8171 	beq.w	86b6a <_malloc_r+0x39a>
   86888:	6863      	ldr	r3, [r4, #4]
   8688a:	f023 0303 	bic.w	r3, r3, #3
   8688e:	1b5a      	subs	r2, r3, r5
   86890:	2a0f      	cmp	r2, #15
   86892:	f300 8157 	bgt.w	86b44 <_malloc_r+0x374>
   86896:	2a00      	cmp	r2, #0
   86898:	f8c1 e014 	str.w	lr, [r1, #20]
   8689c:	f8c1 e010 	str.w	lr, [r1, #16]
   868a0:	da66      	bge.n	86970 <_malloc_r+0x1a0>
   868a2:	f5b3 7f00 	cmp.w	r3, #512	; 0x200
   868a6:	f080 812d 	bcs.w	86b04 <_malloc_r+0x334>
   868aa:	08db      	lsrs	r3, r3, #3
   868ac:	eb01 08c3 	add.w	r8, r1, r3, lsl #3
   868b0:	ea4f 0ca3 	mov.w	ip, r3, asr #2
   868b4:	684a      	ldr	r2, [r1, #4]
   868b6:	2301      	movs	r3, #1
   868b8:	fa03 f30c 	lsl.w	r3, r3, ip
   868bc:	f8d8 c008 	ldr.w	ip, [r8, #8]
   868c0:	4313      	orrs	r3, r2
   868c2:	f8c4 c008 	str.w	ip, [r4, #8]
   868c6:	f8c4 800c 	str.w	r8, [r4, #12]
   868ca:	604b      	str	r3, [r1, #4]
   868cc:	f8c8 4008 	str.w	r4, [r8, #8]
   868d0:	f8cc 400c 	str.w	r4, [ip, #12]
   868d4:	1082      	asrs	r2, r0, #2
   868d6:	2401      	movs	r4, #1
   868d8:	4094      	lsls	r4, r2
   868da:	429c      	cmp	r4, r3
   868dc:	d855      	bhi.n	8698a <_malloc_r+0x1ba>
   868de:	4223      	tst	r3, r4
   868e0:	d106      	bne.n	868f0 <_malloc_r+0x120>
   868e2:	f020 0003 	bic.w	r0, r0, #3
   868e6:	0064      	lsls	r4, r4, #1
   868e8:	4223      	tst	r3, r4
   868ea:	f100 0004 	add.w	r0, r0, #4
   868ee:	d0fa      	beq.n	868e6 <_malloc_r+0x116>
   868f0:	eb07 08c0 	add.w	r8, r7, r0, lsl #3
   868f4:	46c4      	mov	ip, r8
   868f6:	4681      	mov	r9, r0
   868f8:	f8dc 300c 	ldr.w	r3, [ip, #12]
   868fc:	459c      	cmp	ip, r3
   868fe:	d107      	bne.n	86910 <_malloc_r+0x140>
   86900:	e135      	b.n	86b6e <_malloc_r+0x39e>
   86902:	2900      	cmp	r1, #0
   86904:	f280 8145 	bge.w	86b92 <_malloc_r+0x3c2>
   86908:	68db      	ldr	r3, [r3, #12]
   8690a:	459c      	cmp	ip, r3
   8690c:	f000 812f 	beq.w	86b6e <_malloc_r+0x39e>
   86910:	685a      	ldr	r2, [r3, #4]
   86912:	f022 0203 	bic.w	r2, r2, #3
   86916:	1b51      	subs	r1, r2, r5
   86918:	290f      	cmp	r1, #15
   8691a:	ddf2      	ble.n	86902 <_malloc_r+0x132>
   8691c:	461c      	mov	r4, r3
   8691e:	68da      	ldr	r2, [r3, #12]
   86920:	f854 cf08 	ldr.w	ip, [r4, #8]!
   86924:	f045 0901 	orr.w	r9, r5, #1
   86928:	f041 0801 	orr.w	r8, r1, #1
   8692c:	441d      	add	r5, r3
   8692e:	f8c3 9004 	str.w	r9, [r3, #4]
   86932:	4630      	mov	r0, r6
   86934:	f8cc 200c 	str.w	r2, [ip, #12]
   86938:	f8c2 c008 	str.w	ip, [r2, #8]
   8693c:	617d      	str	r5, [r7, #20]
   8693e:	613d      	str	r5, [r7, #16]
   86940:	f8c5 e00c 	str.w	lr, [r5, #12]
   86944:	f8c5 e008 	str.w	lr, [r5, #8]
   86948:	f8c5 8004 	str.w	r8, [r5, #4]
   8694c:	5069      	str	r1, [r5, r1]
   8694e:	f000 fa75 	bl	86e3c <__malloc_unlock>
   86952:	e769      	b.n	86828 <_malloc_r+0x58>
   86954:	2400      	movs	r4, #0
   86956:	4620      	mov	r0, r4
   86958:	230c      	movs	r3, #12
   8695a:	6033      	str	r3, [r6, #0]
   8695c:	b003      	add	sp, #12
   8695e:	e8bd 8ff0 	ldmia.w	sp!, {r4, r5, r6, r7, r8, r9, sl, fp, pc}
   86962:	217e      	movs	r1, #126	; 0x7e
   86964:	203f      	movs	r0, #63	; 0x3f
   86966:	e773      	b.n	86850 <_malloc_r+0x80>
   86968:	4423      	add	r3, r4
   8696a:	685a      	ldr	r2, [r3, #4]
   8696c:	68e1      	ldr	r1, [r4, #12]
   8696e:	e751      	b.n	86814 <_malloc_r+0x44>
   86970:	4423      	add	r3, r4
   86972:	685a      	ldr	r2, [r3, #4]
   86974:	4630      	mov	r0, r6
   86976:	f042 0201 	orr.w	r2, r2, #1
   8697a:	605a      	str	r2, [r3, #4]
   8697c:	3408      	adds	r4, #8
   8697e:	f000 fa5d 	bl	86e3c <__malloc_unlock>
   86982:	4620      	mov	r0, r4
   86984:	b003      	add	sp, #12
   86986:	e8bd 8ff0 	ldmia.w	sp!, {r4, r5, r6, r7, r8, r9, sl, fp, pc}
   8698a:	68bc      	ldr	r4, [r7, #8]
   8698c:	6863      	ldr	r3, [r4, #4]
   8698e:	f023 0803 	bic.w	r8, r3, #3
   86992:	4545      	cmp	r5, r8
   86994:	d804      	bhi.n	869a0 <_malloc_r+0x1d0>
   86996:	ebc5 0308 	rsb	r3, r5, r8
   8699a:	2b0f      	cmp	r3, #15
   8699c:	f300 808c 	bgt.w	86ab8 <_malloc_r+0x2e8>
   869a0:	4b53      	ldr	r3, [pc, #332]	; (86af0 <_malloc_r+0x320>)
   869a2:	f8df a15c 	ldr.w	sl, [pc, #348]	; 86b00 <_malloc_r+0x330>
   869a6:	681a      	ldr	r2, [r3, #0]
   869a8:	f8da 3000 	ldr.w	r3, [sl]
   869ac:	442a      	add	r2, r5
   869ae:	3301      	adds	r3, #1
   869b0:	eb04 0b08 	add.w	fp, r4, r8
   869b4:	f000 8151 	beq.w	86c5a <_malloc_r+0x48a>
   869b8:	f502 5280 	add.w	r2, r2, #4096	; 0x1000
   869bc:	320f      	adds	r2, #15
   869be:	f422 627f 	bic.w	r2, r2, #4080	; 0xff0
   869c2:	f022 020f 	bic.w	r2, r2, #15
   869c6:	4611      	mov	r1, r2
   869c8:	4630      	mov	r0, r6
   869ca:	9201      	str	r2, [sp, #4]
   869cc:	f000 fc28 	bl	87220 <_sbrk_r>
   869d0:	f1b0 3fff 	cmp.w	r0, #4294967295
   869d4:	4681      	mov	r9, r0
   869d6:	9a01      	ldr	r2, [sp, #4]
   869d8:	f000 8148 	beq.w	86c6c <_malloc_r+0x49c>
   869dc:	4583      	cmp	fp, r0
   869de:	f200 80ef 	bhi.w	86bc0 <_malloc_r+0x3f0>
   869e2:	4b44      	ldr	r3, [pc, #272]	; (86af4 <_malloc_r+0x324>)
   869e4:	45cb      	cmp	fp, r9
   869e6:	6819      	ldr	r1, [r3, #0]
   869e8:	4411      	add	r1, r2
   869ea:	6019      	str	r1, [r3, #0]
   869ec:	f000 8143 	beq.w	86c76 <_malloc_r+0x4a6>
   869f0:	f8da 0000 	ldr.w	r0, [sl]
   869f4:	f8df e108 	ldr.w	lr, [pc, #264]	; 86b00 <_malloc_r+0x330>
   869f8:	3001      	adds	r0, #1
   869fa:	bf1b      	ittet	ne
   869fc:	ebcb 0b09 	rsbne	fp, fp, r9
   86a00:	4459      	addne	r1, fp
   86a02:	f8ce 9000 	streq.w	r9, [lr]
   86a06:	6019      	strne	r1, [r3, #0]
   86a08:	f019 0107 	ands.w	r1, r9, #7
   86a0c:	f000 8108 	beq.w	86c20 <_malloc_r+0x450>
   86a10:	f1c1 0008 	rsb	r0, r1, #8
   86a14:	f5c1 5180 	rsb	r1, r1, #4096	; 0x1000
   86a18:	4481      	add	r9, r0
   86a1a:	3108      	adds	r1, #8
   86a1c:	444a      	add	r2, r9
   86a1e:	f3c2 020b 	ubfx	r2, r2, #0, #12
   86a22:	ebc2 0a01 	rsb	sl, r2, r1
   86a26:	4651      	mov	r1, sl
   86a28:	4630      	mov	r0, r6
   86a2a:	9301      	str	r3, [sp, #4]
   86a2c:	f000 fbf8 	bl	87220 <_sbrk_r>
   86a30:	1c43      	adds	r3, r0, #1
   86a32:	9b01      	ldr	r3, [sp, #4]
   86a34:	f000 812d 	beq.w	86c92 <_malloc_r+0x4c2>
   86a38:	ebc9 0200 	rsb	r2, r9, r0
   86a3c:	4452      	add	r2, sl
   86a3e:	f042 0201 	orr.w	r2, r2, #1
   86a42:	6819      	ldr	r1, [r3, #0]
   86a44:	42bc      	cmp	r4, r7
   86a46:	4451      	add	r1, sl
   86a48:	f8c7 9008 	str.w	r9, [r7, #8]
   86a4c:	6019      	str	r1, [r3, #0]
   86a4e:	f8c9 2004 	str.w	r2, [r9, #4]
   86a52:	f8df a0a0 	ldr.w	sl, [pc, #160]	; 86af4 <_malloc_r+0x324>
   86a56:	d016      	beq.n	86a86 <_malloc_r+0x2b6>
   86a58:	f1b8 0f0f 	cmp.w	r8, #15
   86a5c:	f240 80ef 	bls.w	86c3e <_malloc_r+0x46e>
   86a60:	6862      	ldr	r2, [r4, #4]
   86a62:	f1a8 030c 	sub.w	r3, r8, #12
   86a66:	f023 0307 	bic.w	r3, r3, #7
   86a6a:	f002 0201 	and.w	r2, r2, #1
   86a6e:	18e0      	adds	r0, r4, r3
   86a70:	f04f 0e05 	mov.w	lr, #5
   86a74:	431a      	orrs	r2, r3
   86a76:	2b0f      	cmp	r3, #15
   86a78:	6062      	str	r2, [r4, #4]
   86a7a:	f8c0 e004 	str.w	lr, [r0, #4]
   86a7e:	f8c0 e008 	str.w	lr, [r0, #8]
   86a82:	f200 810a 	bhi.w	86c9a <_malloc_r+0x4ca>
   86a86:	4b1c      	ldr	r3, [pc, #112]	; (86af8 <_malloc_r+0x328>)
   86a88:	68bc      	ldr	r4, [r7, #8]
   86a8a:	681a      	ldr	r2, [r3, #0]
   86a8c:	4291      	cmp	r1, r2
   86a8e:	bf88      	it	hi
   86a90:	6019      	strhi	r1, [r3, #0]
   86a92:	4b1a      	ldr	r3, [pc, #104]	; (86afc <_malloc_r+0x32c>)
   86a94:	681a      	ldr	r2, [r3, #0]
   86a96:	4291      	cmp	r1, r2
   86a98:	6862      	ldr	r2, [r4, #4]
   86a9a:	bf88      	it	hi
   86a9c:	6019      	strhi	r1, [r3, #0]
   86a9e:	f022 0203 	bic.w	r2, r2, #3
   86aa2:	4295      	cmp	r5, r2
   86aa4:	eba2 0305 	sub.w	r3, r2, r5
   86aa8:	d801      	bhi.n	86aae <_malloc_r+0x2de>
   86aaa:	2b0f      	cmp	r3, #15
   86aac:	dc04      	bgt.n	86ab8 <_malloc_r+0x2e8>
   86aae:	4630      	mov	r0, r6
   86ab0:	f000 f9c4 	bl	86e3c <__malloc_unlock>
   86ab4:	2400      	movs	r4, #0
   86ab6:	e6b7      	b.n	86828 <_malloc_r+0x58>
   86ab8:	f045 0201 	orr.w	r2, r5, #1
   86abc:	f043 0301 	orr.w	r3, r3, #1
   86ac0:	4425      	add	r5, r4
   86ac2:	6062      	str	r2, [r4, #4]
   86ac4:	4630      	mov	r0, r6
   86ac6:	60bd      	str	r5, [r7, #8]
   86ac8:	3408      	adds	r4, #8
   86aca:	606b      	str	r3, [r5, #4]
   86acc:	f000 f9b6 	bl	86e3c <__malloc_unlock>
   86ad0:	4620      	mov	r0, r4
   86ad2:	b003      	add	sp, #12
   86ad4:	e8bd 8ff0 	ldmia.w	sp!, {r4, r5, r6, r7, r8, r9, sl, fp, pc}
   86ad8:	2814      	cmp	r0, #20
   86ada:	d969      	bls.n	86bb0 <_malloc_r+0x3e0>
   86adc:	2854      	cmp	r0, #84	; 0x54
   86ade:	f200 8098 	bhi.w	86c12 <_malloc_r+0x442>
   86ae2:	0b28      	lsrs	r0, r5, #12
   86ae4:	306e      	adds	r0, #110	; 0x6e
   86ae6:	0041      	lsls	r1, r0, #1
   86ae8:	e6b2      	b.n	86850 <_malloc_r+0x80>
   86aea:	bf00      	nop
   86aec:	200705f8 	.word	0x200705f8
   86af0:	2007ace8 	.word	0x2007ace8
   86af4:	2007acec 	.word	0x2007acec
   86af8:	2007ace4 	.word	0x2007ace4
   86afc:	2007ace0 	.word	0x2007ace0
   86b00:	20070a04 	.word	0x20070a04
   86b04:	0a5a      	lsrs	r2, r3, #9
   86b06:	2a04      	cmp	r2, #4
   86b08:	d955      	bls.n	86bb6 <_malloc_r+0x3e6>
   86b0a:	2a14      	cmp	r2, #20
   86b0c:	f200 80a7 	bhi.w	86c5e <_malloc_r+0x48e>
   86b10:	325b      	adds	r2, #91	; 0x5b
   86b12:	ea4f 0c42 	mov.w	ip, r2, lsl #1
   86b16:	eb07 0c8c 	add.w	ip, r7, ip, lsl #2
   86b1a:	f8dc 1008 	ldr.w	r1, [ip, #8]
   86b1e:	f8df 81b8 	ldr.w	r8, [pc, #440]	; 86cd8 <_malloc_r+0x508>
   86b22:	4561      	cmp	r1, ip
   86b24:	d07f      	beq.n	86c26 <_malloc_r+0x456>
   86b26:	684a      	ldr	r2, [r1, #4]
   86b28:	f022 0203 	bic.w	r2, r2, #3
   86b2c:	4293      	cmp	r3, r2
   86b2e:	d202      	bcs.n	86b36 <_malloc_r+0x366>
   86b30:	6889      	ldr	r1, [r1, #8]
   86b32:	458c      	cmp	ip, r1
   86b34:	d1f7      	bne.n	86b26 <_malloc_r+0x356>
   86b36:	68ca      	ldr	r2, [r1, #12]
   86b38:	687b      	ldr	r3, [r7, #4]
   86b3a:	60e2      	str	r2, [r4, #12]
   86b3c:	60a1      	str	r1, [r4, #8]
   86b3e:	6094      	str	r4, [r2, #8]
   86b40:	60cc      	str	r4, [r1, #12]
   86b42:	e6c7      	b.n	868d4 <_malloc_r+0x104>
   86b44:	f045 0701 	orr.w	r7, r5, #1
   86b48:	f042 0301 	orr.w	r3, r2, #1
   86b4c:	4425      	add	r5, r4
   86b4e:	6067      	str	r7, [r4, #4]
   86b50:	4630      	mov	r0, r6
   86b52:	614d      	str	r5, [r1, #20]
   86b54:	610d      	str	r5, [r1, #16]
   86b56:	f8c5 e00c 	str.w	lr, [r5, #12]
   86b5a:	f8c5 e008 	str.w	lr, [r5, #8]
   86b5e:	606b      	str	r3, [r5, #4]
   86b60:	50aa      	str	r2, [r5, r2]
   86b62:	3408      	adds	r4, #8
   86b64:	f000 f96a 	bl	86e3c <__malloc_unlock>
   86b68:	e65e      	b.n	86828 <_malloc_r+0x58>
   86b6a:	684b      	ldr	r3, [r1, #4]
   86b6c:	e6b2      	b.n	868d4 <_malloc_r+0x104>
   86b6e:	f109 0901 	add.w	r9, r9, #1
   86b72:	f019 0f03 	tst.w	r9, #3
   86b76:	f10c 0c08 	add.w	ip, ip, #8
   86b7a:	f47f aebd 	bne.w	868f8 <_malloc_r+0x128>
   86b7e:	e02c      	b.n	86bda <_malloc_r+0x40a>
   86b80:	f104 0308 	add.w	r3, r4, #8
   86b84:	6964      	ldr	r4, [r4, #20]
   86b86:	42a3      	cmp	r3, r4
   86b88:	bf08      	it	eq
   86b8a:	3002      	addeq	r0, #2
   86b8c:	f43f ae75 	beq.w	8687a <_malloc_r+0xaa>
   86b90:	e63a      	b.n	86808 <_malloc_r+0x38>
   86b92:	461c      	mov	r4, r3
   86b94:	441a      	add	r2, r3
   86b96:	6851      	ldr	r1, [r2, #4]
   86b98:	68db      	ldr	r3, [r3, #12]
   86b9a:	f854 5f08 	ldr.w	r5, [r4, #8]!
   86b9e:	f041 0101 	orr.w	r1, r1, #1
   86ba2:	6051      	str	r1, [r2, #4]
   86ba4:	4630      	mov	r0, r6
   86ba6:	60eb      	str	r3, [r5, #12]
   86ba8:	609d      	str	r5, [r3, #8]
   86baa:	f000 f947 	bl	86e3c <__malloc_unlock>
   86bae:	e63b      	b.n	86828 <_malloc_r+0x58>
   86bb0:	305b      	adds	r0, #91	; 0x5b
   86bb2:	0041      	lsls	r1, r0, #1
   86bb4:	e64c      	b.n	86850 <_malloc_r+0x80>
   86bb6:	099a      	lsrs	r2, r3, #6
   86bb8:	3238      	adds	r2, #56	; 0x38
   86bba:	ea4f 0c42 	mov.w	ip, r2, lsl #1
   86bbe:	e7aa      	b.n	86b16 <_malloc_r+0x346>
   86bc0:	42bc      	cmp	r4, r7
   86bc2:	4b45      	ldr	r3, [pc, #276]	; (86cd8 <_malloc_r+0x508>)
   86bc4:	f43f af0d 	beq.w	869e2 <_malloc_r+0x212>
   86bc8:	689c      	ldr	r4, [r3, #8]
   86bca:	6862      	ldr	r2, [r4, #4]
   86bcc:	f022 0203 	bic.w	r2, r2, #3
   86bd0:	e767      	b.n	86aa2 <_malloc_r+0x2d2>
   86bd2:	f8d8 8000 	ldr.w	r8, [r8]
   86bd6:	4598      	cmp	r8, r3
   86bd8:	d17c      	bne.n	86cd4 <_malloc_r+0x504>
   86bda:	f010 0f03 	tst.w	r0, #3
   86bde:	f1a8 0308 	sub.w	r3, r8, #8
   86be2:	f100 30ff 	add.w	r0, r0, #4294967295
   86be6:	d1f4      	bne.n	86bd2 <_malloc_r+0x402>
   86be8:	687b      	ldr	r3, [r7, #4]
   86bea:	ea23 0304 	bic.w	r3, r3, r4
   86bee:	607b      	str	r3, [r7, #4]
   86bf0:	0064      	lsls	r4, r4, #1
   86bf2:	429c      	cmp	r4, r3
   86bf4:	f63f aec9 	bhi.w	8698a <_malloc_r+0x1ba>
   86bf8:	2c00      	cmp	r4, #0
   86bfa:	f43f aec6 	beq.w	8698a <_malloc_r+0x1ba>
   86bfe:	4223      	tst	r3, r4
   86c00:	4648      	mov	r0, r9
   86c02:	f47f ae75 	bne.w	868f0 <_malloc_r+0x120>
   86c06:	0064      	lsls	r4, r4, #1
   86c08:	4223      	tst	r3, r4
   86c0a:	f100 0004 	add.w	r0, r0, #4
   86c0e:	d0fa      	beq.n	86c06 <_malloc_r+0x436>
   86c10:	e66e      	b.n	868f0 <_malloc_r+0x120>
   86c12:	f5b0 7faa 	cmp.w	r0, #340	; 0x154
   86c16:	d818      	bhi.n	86c4a <_malloc_r+0x47a>
   86c18:	0be8      	lsrs	r0, r5, #15
   86c1a:	3077      	adds	r0, #119	; 0x77
   86c1c:	0041      	lsls	r1, r0, #1
   86c1e:	e617      	b.n	86850 <_malloc_r+0x80>
   86c20:	f44f 5180 	mov.w	r1, #4096	; 0x1000
   86c24:	e6fa      	b.n	86a1c <_malloc_r+0x24c>
   86c26:	f8d8 3004 	ldr.w	r3, [r8, #4]
   86c2a:	1092      	asrs	r2, r2, #2
   86c2c:	f04f 0c01 	mov.w	ip, #1
   86c30:	fa0c f202 	lsl.w	r2, ip, r2
   86c34:	4313      	orrs	r3, r2
   86c36:	f8c8 3004 	str.w	r3, [r8, #4]
   86c3a:	460a      	mov	r2, r1
   86c3c:	e77d      	b.n	86b3a <_malloc_r+0x36a>
   86c3e:	2301      	movs	r3, #1
   86c40:	f8c9 3004 	str.w	r3, [r9, #4]
   86c44:	464c      	mov	r4, r9
   86c46:	2200      	movs	r2, #0
   86c48:	e72b      	b.n	86aa2 <_malloc_r+0x2d2>
   86c4a:	f240 5354 	movw	r3, #1364	; 0x554
   86c4e:	4298      	cmp	r0, r3
   86c50:	d81c      	bhi.n	86c8c <_malloc_r+0x4bc>
   86c52:	0ca8      	lsrs	r0, r5, #18
   86c54:	307c      	adds	r0, #124	; 0x7c
   86c56:	0041      	lsls	r1, r0, #1
   86c58:	e5fa      	b.n	86850 <_malloc_r+0x80>
   86c5a:	3210      	adds	r2, #16
   86c5c:	e6b3      	b.n	869c6 <_malloc_r+0x1f6>
   86c5e:	2a54      	cmp	r2, #84	; 0x54
   86c60:	d823      	bhi.n	86caa <_malloc_r+0x4da>
   86c62:	0b1a      	lsrs	r2, r3, #12
   86c64:	326e      	adds	r2, #110	; 0x6e
   86c66:	ea4f 0c42 	mov.w	ip, r2, lsl #1
   86c6a:	e754      	b.n	86b16 <_malloc_r+0x346>
   86c6c:	68bc      	ldr	r4, [r7, #8]
   86c6e:	6862      	ldr	r2, [r4, #4]
   86c70:	f022 0203 	bic.w	r2, r2, #3
   86c74:	e715      	b.n	86aa2 <_malloc_r+0x2d2>
   86c76:	f3cb 000b 	ubfx	r0, fp, #0, #12
   86c7a:	2800      	cmp	r0, #0
   86c7c:	f47f aeb8 	bne.w	869f0 <_malloc_r+0x220>
   86c80:	4442      	add	r2, r8
   86c82:	68bb      	ldr	r3, [r7, #8]
   86c84:	f042 0201 	orr.w	r2, r2, #1
   86c88:	605a      	str	r2, [r3, #4]
   86c8a:	e6fc      	b.n	86a86 <_malloc_r+0x2b6>
   86c8c:	21fc      	movs	r1, #252	; 0xfc
   86c8e:	207e      	movs	r0, #126	; 0x7e
   86c90:	e5de      	b.n	86850 <_malloc_r+0x80>
   86c92:	2201      	movs	r2, #1
   86c94:	f04f 0a00 	mov.w	sl, #0
   86c98:	e6d3      	b.n	86a42 <_malloc_r+0x272>
   86c9a:	f104 0108 	add.w	r1, r4, #8
   86c9e:	4630      	mov	r0, r6
   86ca0:	f7ff fa84 	bl	861ac <_free_r>
   86ca4:	f8da 1000 	ldr.w	r1, [sl]
   86ca8:	e6ed      	b.n	86a86 <_malloc_r+0x2b6>
   86caa:	f5b2 7faa 	cmp.w	r2, #340	; 0x154
   86cae:	d804      	bhi.n	86cba <_malloc_r+0x4ea>
   86cb0:	0bda      	lsrs	r2, r3, #15
   86cb2:	3277      	adds	r2, #119	; 0x77
   86cb4:	ea4f 0c42 	mov.w	ip, r2, lsl #1
   86cb8:	e72d      	b.n	86b16 <_malloc_r+0x346>
   86cba:	f240 5154 	movw	r1, #1364	; 0x554
   86cbe:	428a      	cmp	r2, r1
   86cc0:	d804      	bhi.n	86ccc <_malloc_r+0x4fc>
   86cc2:	0c9a      	lsrs	r2, r3, #18
   86cc4:	327c      	adds	r2, #124	; 0x7c
   86cc6:	ea4f 0c42 	mov.w	ip, r2, lsl #1
   86cca:	e724      	b.n	86b16 <_malloc_r+0x346>
   86ccc:	f04f 0cfc 	mov.w	ip, #252	; 0xfc
   86cd0:	227e      	movs	r2, #126	; 0x7e
   86cd2:	e720      	b.n	86b16 <_malloc_r+0x346>
   86cd4:	687b      	ldr	r3, [r7, #4]
   86cd6:	e78b      	b.n	86bf0 <_malloc_r+0x420>
   86cd8:	200705f8 	.word	0x200705f8

00086cdc <memchr>:
   86cdc:	0783      	lsls	r3, r0, #30
   86cde:	b470      	push	{r4, r5, r6}
   86ce0:	b2c9      	uxtb	r1, r1
   86ce2:	d040      	beq.n	86d66 <memchr+0x8a>
   86ce4:	1e54      	subs	r4, r2, #1
   86ce6:	2a00      	cmp	r2, #0
   86ce8:	d03f      	beq.n	86d6a <memchr+0x8e>
   86cea:	7803      	ldrb	r3, [r0, #0]
   86cec:	428b      	cmp	r3, r1
   86cee:	bf18      	it	ne
   86cf0:	1c43      	addne	r3, r0, #1
   86cf2:	d105      	bne.n	86d00 <memchr+0x24>
   86cf4:	e01c      	b.n	86d30 <memchr+0x54>
   86cf6:	b1ec      	cbz	r4, 86d34 <memchr+0x58>
   86cf8:	7802      	ldrb	r2, [r0, #0]
   86cfa:	3c01      	subs	r4, #1
   86cfc:	428a      	cmp	r2, r1
   86cfe:	d017      	beq.n	86d30 <memchr+0x54>
   86d00:	f013 0f03 	tst.w	r3, #3
   86d04:	4618      	mov	r0, r3
   86d06:	f103 0301 	add.w	r3, r3, #1
   86d0a:	d1f4      	bne.n	86cf6 <memchr+0x1a>
   86d0c:	2c03      	cmp	r4, #3
   86d0e:	d814      	bhi.n	86d3a <memchr+0x5e>
   86d10:	b184      	cbz	r4, 86d34 <memchr+0x58>
   86d12:	7803      	ldrb	r3, [r0, #0]
   86d14:	428b      	cmp	r3, r1
   86d16:	d00b      	beq.n	86d30 <memchr+0x54>
   86d18:	1905      	adds	r5, r0, r4
   86d1a:	1c43      	adds	r3, r0, #1
   86d1c:	e002      	b.n	86d24 <memchr+0x48>
   86d1e:	7802      	ldrb	r2, [r0, #0]
   86d20:	428a      	cmp	r2, r1
   86d22:	d005      	beq.n	86d30 <memchr+0x54>
   86d24:	42ab      	cmp	r3, r5
   86d26:	4618      	mov	r0, r3
   86d28:	f103 0301 	add.w	r3, r3, #1
   86d2c:	d1f7      	bne.n	86d1e <memchr+0x42>
   86d2e:	2000      	movs	r0, #0
   86d30:	bc70      	pop	{r4, r5, r6}
   86d32:	4770      	bx	lr
   86d34:	4620      	mov	r0, r4
   86d36:	bc70      	pop	{r4, r5, r6}
   86d38:	4770      	bx	lr
   86d3a:	4602      	mov	r2, r0
   86d3c:	ea41 2601 	orr.w	r6, r1, r1, lsl #8
   86d40:	ea46 4606 	orr.w	r6, r6, r6, lsl #16
   86d44:	6813      	ldr	r3, [r2, #0]
   86d46:	4610      	mov	r0, r2
   86d48:	4073      	eors	r3, r6
   86d4a:	f1a3 3501 	sub.w	r5, r3, #16843009	; 0x1010101
   86d4e:	ea25 0303 	bic.w	r3, r5, r3
   86d52:	f013 3f80 	tst.w	r3, #2155905152	; 0x80808080
   86d56:	f102 0204 	add.w	r2, r2, #4
   86d5a:	d1d9      	bne.n	86d10 <memchr+0x34>
   86d5c:	3c04      	subs	r4, #4
   86d5e:	2c03      	cmp	r4, #3
   86d60:	4610      	mov	r0, r2
   86d62:	d8ef      	bhi.n	86d44 <memchr+0x68>
   86d64:	e7d4      	b.n	86d10 <memchr+0x34>
   86d66:	4614      	mov	r4, r2
   86d68:	e7d0      	b.n	86d0c <memchr+0x30>
   86d6a:	4610      	mov	r0, r2
   86d6c:	e7e0      	b.n	86d30 <memchr+0x54>
   86d6e:	bf00      	nop

00086d70 <memmove>:
   86d70:	4288      	cmp	r0, r1
   86d72:	b5f0      	push	{r4, r5, r6, r7, lr}
   86d74:	d90d      	bls.n	86d92 <memmove+0x22>
   86d76:	188b      	adds	r3, r1, r2
   86d78:	4298      	cmp	r0, r3
   86d7a:	d20a      	bcs.n	86d92 <memmove+0x22>
   86d7c:	1881      	adds	r1, r0, r2
   86d7e:	2a00      	cmp	r2, #0
   86d80:	d054      	beq.n	86e2c <memmove+0xbc>
   86d82:	1a9a      	subs	r2, r3, r2
   86d84:	f813 4d01 	ldrb.w	r4, [r3, #-1]!
   86d88:	4293      	cmp	r3, r2
   86d8a:	f801 4d01 	strb.w	r4, [r1, #-1]!
   86d8e:	d1f9      	bne.n	86d84 <memmove+0x14>
   86d90:	bdf0      	pop	{r4, r5, r6, r7, pc}
   86d92:	2a0f      	cmp	r2, #15
   86d94:	d948      	bls.n	86e28 <memmove+0xb8>
   86d96:	ea40 0301 	orr.w	r3, r0, r1
   86d9a:	079b      	lsls	r3, r3, #30
   86d9c:	d147      	bne.n	86e2e <memmove+0xbe>
   86d9e:	4615      	mov	r5, r2
   86da0:	f100 0410 	add.w	r4, r0, #16
   86da4:	f101 0310 	add.w	r3, r1, #16
   86da8:	f853 6c10 	ldr.w	r6, [r3, #-16]
   86dac:	3d10      	subs	r5, #16
   86dae:	f844 6c10 	str.w	r6, [r4, #-16]
   86db2:	f853 6c0c 	ldr.w	r6, [r3, #-12]
   86db6:	2d0f      	cmp	r5, #15
   86db8:	f844 6c0c 	str.w	r6, [r4, #-12]
   86dbc:	f853 6c08 	ldr.w	r6, [r3, #-8]
   86dc0:	f104 0410 	add.w	r4, r4, #16
   86dc4:	f844 6c18 	str.w	r6, [r4, #-24]
   86dc8:	f853 6c04 	ldr.w	r6, [r3, #-4]
   86dcc:	f103 0310 	add.w	r3, r3, #16
   86dd0:	f844 6c14 	str.w	r6, [r4, #-20]
   86dd4:	d8e8      	bhi.n	86da8 <memmove+0x38>
   86dd6:	f1a2 0310 	sub.w	r3, r2, #16
   86dda:	f023 030f 	bic.w	r3, r3, #15
   86dde:	f002 0e0f 	and.w	lr, r2, #15
   86de2:	3310      	adds	r3, #16
   86de4:	f1be 0f03 	cmp.w	lr, #3
   86de8:	4419      	add	r1, r3
   86dea:	4403      	add	r3, r0
   86dec:	d921      	bls.n	86e32 <memmove+0xc2>
   86dee:	460e      	mov	r6, r1
   86df0:	4674      	mov	r4, lr
   86df2:	1f1d      	subs	r5, r3, #4
   86df4:	f856 7b04 	ldr.w	r7, [r6], #4
   86df8:	3c04      	subs	r4, #4
   86dfa:	2c03      	cmp	r4, #3
   86dfc:	f845 7f04 	str.w	r7, [r5, #4]!
   86e00:	d8f8      	bhi.n	86df4 <memmove+0x84>
   86e02:	f1ae 0404 	sub.w	r4, lr, #4
   86e06:	f024 0403 	bic.w	r4, r4, #3
   86e0a:	3404      	adds	r4, #4
   86e0c:	4423      	add	r3, r4
   86e0e:	4421      	add	r1, r4
   86e10:	f002 0203 	and.w	r2, r2, #3
   86e14:	b152      	cbz	r2, 86e2c <memmove+0xbc>
   86e16:	3b01      	subs	r3, #1
   86e18:	440a      	add	r2, r1
   86e1a:	f811 4b01 	ldrb.w	r4, [r1], #1
   86e1e:	4291      	cmp	r1, r2
   86e20:	f803 4f01 	strb.w	r4, [r3, #1]!
   86e24:	d1f9      	bne.n	86e1a <memmove+0xaa>
   86e26:	bdf0      	pop	{r4, r5, r6, r7, pc}
   86e28:	4603      	mov	r3, r0
   86e2a:	e7f3      	b.n	86e14 <memmove+0xa4>
   86e2c:	bdf0      	pop	{r4, r5, r6, r7, pc}
   86e2e:	4603      	mov	r3, r0
   86e30:	e7f1      	b.n	86e16 <memmove+0xa6>
   86e32:	4672      	mov	r2, lr
   86e34:	e7ee      	b.n	86e14 <memmove+0xa4>
   86e36:	bf00      	nop

00086e38 <__malloc_lock>:
   86e38:	4770      	bx	lr
   86e3a:	bf00      	nop

00086e3c <__malloc_unlock>:
   86e3c:	4770      	bx	lr
   86e3e:	bf00      	nop

00086e40 <_realloc_r>:
   86e40:	e92d 4ff0 	stmdb	sp!, {r4, r5, r6, r7, r8, r9, sl, fp, lr}
   86e44:	4617      	mov	r7, r2
   86e46:	b083      	sub	sp, #12
   86e48:	460d      	mov	r5, r1
   86e4a:	2900      	cmp	r1, #0
   86e4c:	f000 80e2 	beq.w	87014 <_realloc_r+0x1d4>
   86e50:	4681      	mov	r9, r0
   86e52:	f107 040b 	add.w	r4, r7, #11
   86e56:	f7ff ffef 	bl	86e38 <__malloc_lock>
   86e5a:	f855 3c04 	ldr.w	r3, [r5, #-4]
   86e5e:	2c16      	cmp	r4, #22
   86e60:	f023 0603 	bic.w	r6, r3, #3
   86e64:	f1a5 0808 	sub.w	r8, r5, #8
   86e68:	d84b      	bhi.n	86f02 <_realloc_r+0xc2>
   86e6a:	2210      	movs	r2, #16
   86e6c:	4614      	mov	r4, r2
   86e6e:	42a7      	cmp	r7, r4
   86e70:	d84c      	bhi.n	86f0c <_realloc_r+0xcc>
   86e72:	4296      	cmp	r6, r2
   86e74:	da51      	bge.n	86f1a <_realloc_r+0xda>
   86e76:	f8df b3a4 	ldr.w	fp, [pc, #932]	; 8721c <_realloc_r+0x3dc>
   86e7a:	eb08 0106 	add.w	r1, r8, r6
   86e7e:	f8db 0008 	ldr.w	r0, [fp, #8]
   86e82:	4288      	cmp	r0, r1
   86e84:	f000 80d3 	beq.w	8702e <_realloc_r+0x1ee>
   86e88:	6848      	ldr	r0, [r1, #4]
   86e8a:	f020 0e01 	bic.w	lr, r0, #1
   86e8e:	448e      	add	lr, r1
   86e90:	f8de e004 	ldr.w	lr, [lr, #4]
   86e94:	f01e 0f01 	tst.w	lr, #1
   86e98:	d154      	bne.n	86f44 <_realloc_r+0x104>
   86e9a:	f020 0003 	bic.w	r0, r0, #3
   86e9e:	4430      	add	r0, r6
   86ea0:	4290      	cmp	r0, r2
   86ea2:	f280 80bd 	bge.w	87020 <_realloc_r+0x1e0>
   86ea6:	07db      	lsls	r3, r3, #31
   86ea8:	f100 8090 	bmi.w	86fcc <_realloc_r+0x18c>
   86eac:	f855 3c08 	ldr.w	r3, [r5, #-8]
   86eb0:	ebc3 0a08 	rsb	sl, r3, r8
   86eb4:	f8da 3004 	ldr.w	r3, [sl, #4]
   86eb8:	f023 0303 	bic.w	r3, r3, #3
   86ebc:	eb00 0e03 	add.w	lr, r0, r3
   86ec0:	4596      	cmp	lr, r2
   86ec2:	db49      	blt.n	86f58 <_realloc_r+0x118>
   86ec4:	4657      	mov	r7, sl
   86ec6:	68cb      	ldr	r3, [r1, #12]
   86ec8:	6889      	ldr	r1, [r1, #8]
   86eca:	1f32      	subs	r2, r6, #4
   86ecc:	60cb      	str	r3, [r1, #12]
   86ece:	6099      	str	r1, [r3, #8]
   86ed0:	f857 1f08 	ldr.w	r1, [r7, #8]!
   86ed4:	f8da 300c 	ldr.w	r3, [sl, #12]
   86ed8:	2a24      	cmp	r2, #36	; 0x24
   86eda:	60cb      	str	r3, [r1, #12]
   86edc:	6099      	str	r1, [r3, #8]
   86ede:	f200 8133 	bhi.w	87148 <_realloc_r+0x308>
   86ee2:	2a13      	cmp	r2, #19
   86ee4:	f240 80fa 	bls.w	870dc <_realloc_r+0x29c>
   86ee8:	682b      	ldr	r3, [r5, #0]
   86eea:	2a1b      	cmp	r2, #27
   86eec:	f8ca 3008 	str.w	r3, [sl, #8]
   86ef0:	686b      	ldr	r3, [r5, #4]
   86ef2:	f8ca 300c 	str.w	r3, [sl, #12]
   86ef6:	f200 813b 	bhi.w	87170 <_realloc_r+0x330>
   86efa:	3508      	adds	r5, #8
   86efc:	f10a 0310 	add.w	r3, sl, #16
   86f00:	e0ed      	b.n	870de <_realloc_r+0x29e>
   86f02:	f024 0407 	bic.w	r4, r4, #7
   86f06:	2c00      	cmp	r4, #0
   86f08:	4622      	mov	r2, r4
   86f0a:	dab0      	bge.n	86e6e <_realloc_r+0x2e>
   86f0c:	230c      	movs	r3, #12
   86f0e:	2000      	movs	r0, #0
   86f10:	f8c9 3000 	str.w	r3, [r9]
   86f14:	b003      	add	sp, #12
   86f16:	e8bd 8ff0 	ldmia.w	sp!, {r4, r5, r6, r7, r8, r9, sl, fp, pc}
   86f1a:	462f      	mov	r7, r5
   86f1c:	1b32      	subs	r2, r6, r4
   86f1e:	2a0f      	cmp	r2, #15
   86f20:	f003 0301 	and.w	r3, r3, #1
   86f24:	d840      	bhi.n	86fa8 <_realloc_r+0x168>
   86f26:	4333      	orrs	r3, r6
   86f28:	f8c8 3004 	str.w	r3, [r8, #4]
   86f2c:	4446      	add	r6, r8
   86f2e:	6873      	ldr	r3, [r6, #4]
   86f30:	f043 0301 	orr.w	r3, r3, #1
   86f34:	6073      	str	r3, [r6, #4]
   86f36:	4648      	mov	r0, r9
   86f38:	f7ff ff80 	bl	86e3c <__malloc_unlock>
   86f3c:	4638      	mov	r0, r7
   86f3e:	b003      	add	sp, #12
   86f40:	e8bd 8ff0 	ldmia.w	sp!, {r4, r5, r6, r7, r8, r9, sl, fp, pc}
   86f44:	07d9      	lsls	r1, r3, #31
   86f46:	d441      	bmi.n	86fcc <_realloc_r+0x18c>
   86f48:	f855 3c08 	ldr.w	r3, [r5, #-8]
   86f4c:	ebc3 0a08 	rsb	sl, r3, r8
   86f50:	f8da 3004 	ldr.w	r3, [sl, #4]
   86f54:	f023 0303 	bic.w	r3, r3, #3
   86f58:	4433      	add	r3, r6
   86f5a:	4293      	cmp	r3, r2
   86f5c:	db36      	blt.n	86fcc <_realloc_r+0x18c>
   86f5e:	4657      	mov	r7, sl
   86f60:	f8da 100c 	ldr.w	r1, [sl, #12]
   86f64:	f857 0f08 	ldr.w	r0, [r7, #8]!
   86f68:	1f32      	subs	r2, r6, #4
   86f6a:	2a24      	cmp	r2, #36	; 0x24
   86f6c:	60c1      	str	r1, [r0, #12]
   86f6e:	6088      	str	r0, [r1, #8]
   86f70:	f200 80f5 	bhi.w	8715e <_realloc_r+0x31e>
   86f74:	2a13      	cmp	r2, #19
   86f76:	f240 80f0 	bls.w	8715a <_realloc_r+0x31a>
   86f7a:	6829      	ldr	r1, [r5, #0]
   86f7c:	2a1b      	cmp	r2, #27
   86f7e:	f8ca 1008 	str.w	r1, [sl, #8]
   86f82:	6869      	ldr	r1, [r5, #4]
   86f84:	f8ca 100c 	str.w	r1, [sl, #12]
   86f88:	f200 8107 	bhi.w	8719a <_realloc_r+0x35a>
   86f8c:	3508      	adds	r5, #8
   86f8e:	f10a 0210 	add.w	r2, sl, #16
   86f92:	6829      	ldr	r1, [r5, #0]
   86f94:	461e      	mov	r6, r3
   86f96:	6011      	str	r1, [r2, #0]
   86f98:	6869      	ldr	r1, [r5, #4]
   86f9a:	46d0      	mov	r8, sl
   86f9c:	6051      	str	r1, [r2, #4]
   86f9e:	68ab      	ldr	r3, [r5, #8]
   86fa0:	6093      	str	r3, [r2, #8]
   86fa2:	f8da 3004 	ldr.w	r3, [sl, #4]
   86fa6:	e7b9      	b.n	86f1c <_realloc_r+0xdc>
   86fa8:	eb08 0104 	add.w	r1, r8, r4
   86fac:	4323      	orrs	r3, r4
   86fae:	f042 0001 	orr.w	r0, r2, #1
   86fb2:	f8c8 3004 	str.w	r3, [r8, #4]
   86fb6:	440a      	add	r2, r1
   86fb8:	6048      	str	r0, [r1, #4]
   86fba:	6853      	ldr	r3, [r2, #4]
   86fbc:	3108      	adds	r1, #8
   86fbe:	f043 0301 	orr.w	r3, r3, #1
   86fc2:	6053      	str	r3, [r2, #4]
   86fc4:	4648      	mov	r0, r9
   86fc6:	f7ff f8f1 	bl	861ac <_free_r>
   86fca:	e7b4      	b.n	86f36 <_realloc_r+0xf6>
   86fcc:	4639      	mov	r1, r7
   86fce:	4648      	mov	r0, r9
   86fd0:	f7ff fbfe 	bl	867d0 <_malloc_r>
   86fd4:	4607      	mov	r7, r0
   86fd6:	2800      	cmp	r0, #0
   86fd8:	d0ad      	beq.n	86f36 <_realloc_r+0xf6>
   86fda:	f855 3c04 	ldr.w	r3, [r5, #-4]
   86fde:	f1a0 0108 	sub.w	r1, r0, #8
   86fe2:	f023 0201 	bic.w	r2, r3, #1
   86fe6:	4442      	add	r2, r8
   86fe8:	4291      	cmp	r1, r2
   86fea:	f000 80a6 	beq.w	8713a <_realloc_r+0x2fa>
   86fee:	1f32      	subs	r2, r6, #4
   86ff0:	2a24      	cmp	r2, #36	; 0x24
   86ff2:	f200 8093 	bhi.w	8711c <_realloc_r+0x2dc>
   86ff6:	2a13      	cmp	r2, #19
   86ff8:	d865      	bhi.n	870c6 <_realloc_r+0x286>
   86ffa:	4603      	mov	r3, r0
   86ffc:	462a      	mov	r2, r5
   86ffe:	6811      	ldr	r1, [r2, #0]
   87000:	6019      	str	r1, [r3, #0]
   87002:	6851      	ldr	r1, [r2, #4]
   87004:	6059      	str	r1, [r3, #4]
   87006:	6892      	ldr	r2, [r2, #8]
   87008:	609a      	str	r2, [r3, #8]
   8700a:	4629      	mov	r1, r5
   8700c:	4648      	mov	r0, r9
   8700e:	f7ff f8cd 	bl	861ac <_free_r>
   87012:	e790      	b.n	86f36 <_realloc_r+0xf6>
   87014:	4611      	mov	r1, r2
   87016:	b003      	add	sp, #12
   87018:	e8bd 4ff0 	ldmia.w	sp!, {r4, r5, r6, r7, r8, r9, sl, fp, lr}
   8701c:	f7ff bbd8 	b.w	867d0 <_malloc_r>
   87020:	68ca      	ldr	r2, [r1, #12]
   87022:	6889      	ldr	r1, [r1, #8]
   87024:	462f      	mov	r7, r5
   87026:	60ca      	str	r2, [r1, #12]
   87028:	4606      	mov	r6, r0
   8702a:	6091      	str	r1, [r2, #8]
   8702c:	e776      	b.n	86f1c <_realloc_r+0xdc>
   8702e:	6841      	ldr	r1, [r0, #4]
   87030:	f104 0010 	add.w	r0, r4, #16
   87034:	f021 0103 	bic.w	r1, r1, #3
   87038:	4431      	add	r1, r6
   8703a:	4281      	cmp	r1, r0
   8703c:	da5a      	bge.n	870f4 <_realloc_r+0x2b4>
   8703e:	07db      	lsls	r3, r3, #31
   87040:	d4c4      	bmi.n	86fcc <_realloc_r+0x18c>
   87042:	f855 3c08 	ldr.w	r3, [r5, #-8]
   87046:	ebc3 0a08 	rsb	sl, r3, r8
   8704a:	f8da 3004 	ldr.w	r3, [sl, #4]
   8704e:	f023 0303 	bic.w	r3, r3, #3
   87052:	eb01 0c03 	add.w	ip, r1, r3
   87056:	4560      	cmp	r0, ip
   87058:	f73f af7e 	bgt.w	86f58 <_realloc_r+0x118>
   8705c:	4657      	mov	r7, sl
   8705e:	f8da 300c 	ldr.w	r3, [sl, #12]
   87062:	f857 1f08 	ldr.w	r1, [r7, #8]!
   87066:	1f32      	subs	r2, r6, #4
   87068:	2a24      	cmp	r2, #36	; 0x24
   8706a:	60cb      	str	r3, [r1, #12]
   8706c:	6099      	str	r1, [r3, #8]
   8706e:	f200 80b6 	bhi.w	871de <_realloc_r+0x39e>
   87072:	2a13      	cmp	r2, #19
   87074:	f240 80a7 	bls.w	871c6 <_realloc_r+0x386>
   87078:	682b      	ldr	r3, [r5, #0]
   8707a:	2a1b      	cmp	r2, #27
   8707c:	f8ca 3008 	str.w	r3, [sl, #8]
   87080:	686b      	ldr	r3, [r5, #4]
   87082:	f8ca 300c 	str.w	r3, [sl, #12]
   87086:	f200 80b3 	bhi.w	871f0 <_realloc_r+0x3b0>
   8708a:	3508      	adds	r5, #8
   8708c:	f10a 0310 	add.w	r3, sl, #16
   87090:	682a      	ldr	r2, [r5, #0]
   87092:	601a      	str	r2, [r3, #0]
   87094:	686a      	ldr	r2, [r5, #4]
   87096:	605a      	str	r2, [r3, #4]
   87098:	68aa      	ldr	r2, [r5, #8]
   8709a:	609a      	str	r2, [r3, #8]
   8709c:	ebc4 030c 	rsb	r3, r4, ip
   870a0:	eb0a 0204 	add.w	r2, sl, r4
   870a4:	f043 0301 	orr.w	r3, r3, #1
   870a8:	f8cb 2008 	str.w	r2, [fp, #8]
   870ac:	6053      	str	r3, [r2, #4]
   870ae:	f8da 3004 	ldr.w	r3, [sl, #4]
   870b2:	4648      	mov	r0, r9
   870b4:	f003 0301 	and.w	r3, r3, #1
   870b8:	431c      	orrs	r4, r3
   870ba:	f8ca 4004 	str.w	r4, [sl, #4]
   870be:	f7ff febd 	bl	86e3c <__malloc_unlock>
   870c2:	4638      	mov	r0, r7
   870c4:	e73b      	b.n	86f3e <_realloc_r+0xfe>
   870c6:	682b      	ldr	r3, [r5, #0]
   870c8:	2a1b      	cmp	r2, #27
   870ca:	6003      	str	r3, [r0, #0]
   870cc:	686b      	ldr	r3, [r5, #4]
   870ce:	6043      	str	r3, [r0, #4]
   870d0:	d828      	bhi.n	87124 <_realloc_r+0x2e4>
   870d2:	f100 0308 	add.w	r3, r0, #8
   870d6:	f105 0208 	add.w	r2, r5, #8
   870da:	e790      	b.n	86ffe <_realloc_r+0x1be>
   870dc:	463b      	mov	r3, r7
   870de:	682a      	ldr	r2, [r5, #0]
   870e0:	4676      	mov	r6, lr
   870e2:	601a      	str	r2, [r3, #0]
   870e4:	686a      	ldr	r2, [r5, #4]
   870e6:	46d0      	mov	r8, sl
   870e8:	605a      	str	r2, [r3, #4]
   870ea:	68aa      	ldr	r2, [r5, #8]
   870ec:	609a      	str	r2, [r3, #8]
   870ee:	f8da 3004 	ldr.w	r3, [sl, #4]
   870f2:	e713      	b.n	86f1c <_realloc_r+0xdc>
   870f4:	1b0b      	subs	r3, r1, r4
   870f6:	eb08 0204 	add.w	r2, r8, r4
   870fa:	f043 0301 	orr.w	r3, r3, #1
   870fe:	f8cb 2008 	str.w	r2, [fp, #8]
   87102:	6053      	str	r3, [r2, #4]
   87104:	f855 3c04 	ldr.w	r3, [r5, #-4]
   87108:	4648      	mov	r0, r9
   8710a:	f003 0301 	and.w	r3, r3, #1
   8710e:	431c      	orrs	r4, r3
   87110:	f845 4c04 	str.w	r4, [r5, #-4]
   87114:	f7ff fe92 	bl	86e3c <__malloc_unlock>
   87118:	4628      	mov	r0, r5
   8711a:	e710      	b.n	86f3e <_realloc_r+0xfe>
   8711c:	4629      	mov	r1, r5
   8711e:	f7ff fe27 	bl	86d70 <memmove>
   87122:	e772      	b.n	8700a <_realloc_r+0x1ca>
   87124:	68ab      	ldr	r3, [r5, #8]
   87126:	2a24      	cmp	r2, #36	; 0x24
   87128:	6083      	str	r3, [r0, #8]
   8712a:	68eb      	ldr	r3, [r5, #12]
   8712c:	60c3      	str	r3, [r0, #12]
   8712e:	d02b      	beq.n	87188 <_realloc_r+0x348>
   87130:	f100 0310 	add.w	r3, r0, #16
   87134:	f105 0210 	add.w	r2, r5, #16
   87138:	e761      	b.n	86ffe <_realloc_r+0x1be>
   8713a:	f850 2c04 	ldr.w	r2, [r0, #-4]
   8713e:	462f      	mov	r7, r5
   87140:	f022 0203 	bic.w	r2, r2, #3
   87144:	4416      	add	r6, r2
   87146:	e6e9      	b.n	86f1c <_realloc_r+0xdc>
   87148:	4629      	mov	r1, r5
   8714a:	4638      	mov	r0, r7
   8714c:	4676      	mov	r6, lr
   8714e:	46d0      	mov	r8, sl
   87150:	f7ff fe0e 	bl	86d70 <memmove>
   87154:	f8da 3004 	ldr.w	r3, [sl, #4]
   87158:	e6e0      	b.n	86f1c <_realloc_r+0xdc>
   8715a:	463a      	mov	r2, r7
   8715c:	e719      	b.n	86f92 <_realloc_r+0x152>
   8715e:	4629      	mov	r1, r5
   87160:	4638      	mov	r0, r7
   87162:	461e      	mov	r6, r3
   87164:	46d0      	mov	r8, sl
   87166:	f7ff fe03 	bl	86d70 <memmove>
   8716a:	f8da 3004 	ldr.w	r3, [sl, #4]
   8716e:	e6d5      	b.n	86f1c <_realloc_r+0xdc>
   87170:	68ab      	ldr	r3, [r5, #8]
   87172:	2a24      	cmp	r2, #36	; 0x24
   87174:	f8ca 3010 	str.w	r3, [sl, #16]
   87178:	68eb      	ldr	r3, [r5, #12]
   8717a:	f8ca 3014 	str.w	r3, [sl, #20]
   8717e:	d018      	beq.n	871b2 <_realloc_r+0x372>
   87180:	3510      	adds	r5, #16
   87182:	f10a 0318 	add.w	r3, sl, #24
   87186:	e7aa      	b.n	870de <_realloc_r+0x29e>
   87188:	692a      	ldr	r2, [r5, #16]
   8718a:	f100 0318 	add.w	r3, r0, #24
   8718e:	6102      	str	r2, [r0, #16]
   87190:	6969      	ldr	r1, [r5, #20]
   87192:	f105 0218 	add.w	r2, r5, #24
   87196:	6141      	str	r1, [r0, #20]
   87198:	e731      	b.n	86ffe <_realloc_r+0x1be>
   8719a:	68a9      	ldr	r1, [r5, #8]
   8719c:	2a24      	cmp	r2, #36	; 0x24
   8719e:	f8ca 1010 	str.w	r1, [sl, #16]
   871a2:	68e9      	ldr	r1, [r5, #12]
   871a4:	f8ca 1014 	str.w	r1, [sl, #20]
   871a8:	d00f      	beq.n	871ca <_realloc_r+0x38a>
   871aa:	3510      	adds	r5, #16
   871ac:	f10a 0218 	add.w	r2, sl, #24
   871b0:	e6ef      	b.n	86f92 <_realloc_r+0x152>
   871b2:	692a      	ldr	r2, [r5, #16]
   871b4:	f10a 0320 	add.w	r3, sl, #32
   871b8:	f8ca 2018 	str.w	r2, [sl, #24]
   871bc:	696a      	ldr	r2, [r5, #20]
   871be:	3518      	adds	r5, #24
   871c0:	f8ca 201c 	str.w	r2, [sl, #28]
   871c4:	e78b      	b.n	870de <_realloc_r+0x29e>
   871c6:	463b      	mov	r3, r7
   871c8:	e762      	b.n	87090 <_realloc_r+0x250>
   871ca:	6929      	ldr	r1, [r5, #16]
   871cc:	f10a 0220 	add.w	r2, sl, #32
   871d0:	f8ca 1018 	str.w	r1, [sl, #24]
   871d4:	6969      	ldr	r1, [r5, #20]
   871d6:	3518      	adds	r5, #24
   871d8:	f8ca 101c 	str.w	r1, [sl, #28]
   871dc:	e6d9      	b.n	86f92 <_realloc_r+0x152>
   871de:	4629      	mov	r1, r5
   871e0:	4638      	mov	r0, r7
   871e2:	f8cd c004 	str.w	ip, [sp, #4]
   871e6:	f7ff fdc3 	bl	86d70 <memmove>
   871ea:	f8dd c004 	ldr.w	ip, [sp, #4]
   871ee:	e755      	b.n	8709c <_realloc_r+0x25c>
   871f0:	68ab      	ldr	r3, [r5, #8]
   871f2:	2a24      	cmp	r2, #36	; 0x24
   871f4:	f8ca 3010 	str.w	r3, [sl, #16]
   871f8:	68eb      	ldr	r3, [r5, #12]
   871fa:	f8ca 3014 	str.w	r3, [sl, #20]
   871fe:	d003      	beq.n	87208 <_realloc_r+0x3c8>
   87200:	3510      	adds	r5, #16
   87202:	f10a 0318 	add.w	r3, sl, #24
   87206:	e743      	b.n	87090 <_realloc_r+0x250>
   87208:	692a      	ldr	r2, [r5, #16]
   8720a:	f10a 0320 	add.w	r3, sl, #32
   8720e:	f8ca 2018 	str.w	r2, [sl, #24]
   87212:	696a      	ldr	r2, [r5, #20]
   87214:	3518      	adds	r5, #24
   87216:	f8ca 201c 	str.w	r2, [sl, #28]
   8721a:	e739      	b.n	87090 <_realloc_r+0x250>
   8721c:	200705f8 	.word	0x200705f8

00087220 <_sbrk_r>:
   87220:	b538      	push	{r3, r4, r5, lr}
   87222:	4c07      	ldr	r4, [pc, #28]	; (87240 <_sbrk_r+0x20>)
   87224:	2300      	movs	r3, #0
   87226:	4605      	mov	r5, r0
   87228:	4608      	mov	r0, r1
   8722a:	6023      	str	r3, [r4, #0]
   8722c:	f7fc fac8 	bl	837c0 <_sbrk>
   87230:	1c43      	adds	r3, r0, #1
   87232:	d000      	beq.n	87236 <_sbrk_r+0x16>
   87234:	bd38      	pop	{r3, r4, r5, pc}
   87236:	6823      	ldr	r3, [r4, #0]
   87238:	2b00      	cmp	r3, #0
   8723a:	d0fb      	beq.n	87234 <_sbrk_r+0x14>
   8723c:	602b      	str	r3, [r5, #0]
   8723e:	bd38      	pop	{r3, r4, r5, pc}
   87240:	2007ad74 	.word	0x2007ad74

00087244 <__sread>:
   87244:	b510      	push	{r4, lr}
   87246:	460c      	mov	r4, r1
   87248:	f9b1 100e 	ldrsh.w	r1, [r1, #14]
   8724c:	f000 f9bc 	bl	875c8 <_read_r>
   87250:	2800      	cmp	r0, #0
   87252:	db03      	blt.n	8725c <__sread+0x18>
   87254:	6d23      	ldr	r3, [r4, #80]	; 0x50
   87256:	4403      	add	r3, r0
   87258:	6523      	str	r3, [r4, #80]	; 0x50
   8725a:	bd10      	pop	{r4, pc}
   8725c:	89a3      	ldrh	r3, [r4, #12]
   8725e:	f423 5380 	bic.w	r3, r3, #4096	; 0x1000
   87262:	81a3      	strh	r3, [r4, #12]
   87264:	bd10      	pop	{r4, pc}
   87266:	bf00      	nop

00087268 <__swrite>:
   87268:	e92d 41f0 	stmdb	sp!, {r4, r5, r6, r7, r8, lr}
   8726c:	460c      	mov	r4, r1
   8726e:	8989      	ldrh	r1, [r1, #12]
   87270:	461d      	mov	r5, r3
   87272:	05cb      	lsls	r3, r1, #23
   87274:	4616      	mov	r6, r2
   87276:	4607      	mov	r7, r0
   87278:	d506      	bpl.n	87288 <__swrite+0x20>
   8727a:	f9b4 100e 	ldrsh.w	r1, [r4, #14]
   8727e:	2200      	movs	r2, #0
   87280:	2302      	movs	r3, #2
   87282:	f000 f98d 	bl	875a0 <_lseek_r>
   87286:	89a1      	ldrh	r1, [r4, #12]
   87288:	f421 5180 	bic.w	r1, r1, #4096	; 0x1000
   8728c:	81a1      	strh	r1, [r4, #12]
   8728e:	4638      	mov	r0, r7
   87290:	f9b4 100e 	ldrsh.w	r1, [r4, #14]
   87294:	4632      	mov	r2, r6
   87296:	462b      	mov	r3, r5
   87298:	e8bd 41f0 	ldmia.w	sp!, {r4, r5, r6, r7, r8, lr}
   8729c:	f000 b8a0 	b.w	873e0 <_write_r>

000872a0 <__sseek>:
   872a0:	b510      	push	{r4, lr}
   872a2:	460c      	mov	r4, r1
   872a4:	f9b1 100e 	ldrsh.w	r1, [r1, #14]
   872a8:	f000 f97a 	bl	875a0 <_lseek_r>
   872ac:	89a3      	ldrh	r3, [r4, #12]
   872ae:	1c42      	adds	r2, r0, #1
   872b0:	bf0e      	itee	eq
   872b2:	f423 5380 	biceq.w	r3, r3, #4096	; 0x1000
   872b6:	f443 5380 	orrne.w	r3, r3, #4096	; 0x1000
   872ba:	6520      	strne	r0, [r4, #80]	; 0x50
   872bc:	81a3      	strh	r3, [r4, #12]
   872be:	bd10      	pop	{r4, pc}

000872c0 <__sclose>:
   872c0:	f9b1 100e 	ldrsh.w	r1, [r1, #14]
   872c4:	f000 b8f2 	b.w	874ac <_close_r>

000872c8 <__swbuf_r>:
   872c8:	b570      	push	{r4, r5, r6, lr}
   872ca:	460d      	mov	r5, r1
   872cc:	4614      	mov	r4, r2
   872ce:	4606      	mov	r6, r0
   872d0:	b110      	cbz	r0, 872d8 <__swbuf_r+0x10>
   872d2:	6b83      	ldr	r3, [r0, #56]	; 0x38
   872d4:	2b00      	cmp	r3, #0
   872d6:	d048      	beq.n	8736a <__swbuf_r+0xa2>
   872d8:	89a2      	ldrh	r2, [r4, #12]
   872da:	69a3      	ldr	r3, [r4, #24]
   872dc:	b291      	uxth	r1, r2
   872de:	0708      	lsls	r0, r1, #28
   872e0:	60a3      	str	r3, [r4, #8]
   872e2:	d538      	bpl.n	87356 <__swbuf_r+0x8e>
   872e4:	6923      	ldr	r3, [r4, #16]
   872e6:	2b00      	cmp	r3, #0
   872e8:	d035      	beq.n	87356 <__swbuf_r+0x8e>
   872ea:	0489      	lsls	r1, r1, #18
   872ec:	b2ed      	uxtb	r5, r5
   872ee:	d515      	bpl.n	8731c <__swbuf_r+0x54>
   872f0:	6822      	ldr	r2, [r4, #0]
   872f2:	6961      	ldr	r1, [r4, #20]
   872f4:	1ad3      	subs	r3, r2, r3
   872f6:	428b      	cmp	r3, r1
   872f8:	da1c      	bge.n	87334 <__swbuf_r+0x6c>
   872fa:	3301      	adds	r3, #1
   872fc:	68a1      	ldr	r1, [r4, #8]
   872fe:	1c50      	adds	r0, r2, #1
   87300:	3901      	subs	r1, #1
   87302:	60a1      	str	r1, [r4, #8]
   87304:	6020      	str	r0, [r4, #0]
   87306:	7015      	strb	r5, [r2, #0]
   87308:	6962      	ldr	r2, [r4, #20]
   8730a:	429a      	cmp	r2, r3
   8730c:	d01a      	beq.n	87344 <__swbuf_r+0x7c>
   8730e:	89a3      	ldrh	r3, [r4, #12]
   87310:	07db      	lsls	r3, r3, #31
   87312:	d501      	bpl.n	87318 <__swbuf_r+0x50>
   87314:	2d0a      	cmp	r5, #10
   87316:	d015      	beq.n	87344 <__swbuf_r+0x7c>
   87318:	4628      	mov	r0, r5
   8731a:	bd70      	pop	{r4, r5, r6, pc}
   8731c:	6e61      	ldr	r1, [r4, #100]	; 0x64
   8731e:	f442 5200 	orr.w	r2, r2, #8192	; 0x2000
   87322:	f421 5100 	bic.w	r1, r1, #8192	; 0x2000
   87326:	81a2      	strh	r2, [r4, #12]
   87328:	6822      	ldr	r2, [r4, #0]
   8732a:	6661      	str	r1, [r4, #100]	; 0x64
   8732c:	6961      	ldr	r1, [r4, #20]
   8732e:	1ad3      	subs	r3, r2, r3
   87330:	428b      	cmp	r3, r1
   87332:	dbe2      	blt.n	872fa <__swbuf_r+0x32>
   87334:	4630      	mov	r0, r6
   87336:	4621      	mov	r1, r4
   87338:	f7fe fdcc 	bl	85ed4 <_fflush_r>
   8733c:	b940      	cbnz	r0, 87350 <__swbuf_r+0x88>
   8733e:	6822      	ldr	r2, [r4, #0]
   87340:	2301      	movs	r3, #1
   87342:	e7db      	b.n	872fc <__swbuf_r+0x34>
   87344:	4630      	mov	r0, r6
   87346:	4621      	mov	r1, r4
   87348:	f7fe fdc4 	bl	85ed4 <_fflush_r>
   8734c:	2800      	cmp	r0, #0
   8734e:	d0e3      	beq.n	87318 <__swbuf_r+0x50>
   87350:	f04f 30ff 	mov.w	r0, #4294967295
   87354:	bd70      	pop	{r4, r5, r6, pc}
   87356:	4630      	mov	r0, r6
   87358:	4621      	mov	r1, r4
   8735a:	f7fe fca5 	bl	85ca8 <__swsetup_r>
   8735e:	2800      	cmp	r0, #0
   87360:	d1f6      	bne.n	87350 <__swbuf_r+0x88>
   87362:	89a2      	ldrh	r2, [r4, #12]
   87364:	6923      	ldr	r3, [r4, #16]
   87366:	b291      	uxth	r1, r2
   87368:	e7bf      	b.n	872ea <__swbuf_r+0x22>
   8736a:	f7fe fe47 	bl	85ffc <__sinit>
   8736e:	e7b3      	b.n	872d8 <__swbuf_r+0x10>

00087370 <_wcrtomb_r>:
   87370:	e92d 41f0 	stmdb	sp!, {r4, r5, r6, r7, r8, lr}
   87374:	4605      	mov	r5, r0
   87376:	b086      	sub	sp, #24
   87378:	461e      	mov	r6, r3
   8737a:	460c      	mov	r4, r1
   8737c:	b1a1      	cbz	r1, 873a8 <_wcrtomb_r+0x38>
   8737e:	4b10      	ldr	r3, [pc, #64]	; (873c0 <_wcrtomb_r+0x50>)
   87380:	4617      	mov	r7, r2
   87382:	f8d3 8000 	ldr.w	r8, [r3]
   87386:	f7ff f9a1 	bl	866cc <__locale_charset>
   8738a:	9600      	str	r6, [sp, #0]
   8738c:	4603      	mov	r3, r0
   8738e:	4621      	mov	r1, r4
   87390:	463a      	mov	r2, r7
   87392:	4628      	mov	r0, r5
   87394:	47c0      	blx	r8
   87396:	1c43      	adds	r3, r0, #1
   87398:	d103      	bne.n	873a2 <_wcrtomb_r+0x32>
   8739a:	2200      	movs	r2, #0
   8739c:	238a      	movs	r3, #138	; 0x8a
   8739e:	6032      	str	r2, [r6, #0]
   873a0:	602b      	str	r3, [r5, #0]
   873a2:	b006      	add	sp, #24
   873a4:	e8bd 81f0 	ldmia.w	sp!, {r4, r5, r6, r7, r8, pc}
   873a8:	4b05      	ldr	r3, [pc, #20]	; (873c0 <_wcrtomb_r+0x50>)
   873aa:	681f      	ldr	r7, [r3, #0]
   873ac:	f7ff f98e 	bl	866cc <__locale_charset>
   873b0:	9600      	str	r6, [sp, #0]
   873b2:	4603      	mov	r3, r0
   873b4:	4622      	mov	r2, r4
   873b6:	4628      	mov	r0, r5
   873b8:	a903      	add	r1, sp, #12
   873ba:	47b8      	blx	r7
   873bc:	e7eb      	b.n	87396 <_wcrtomb_r+0x26>
   873be:	bf00      	nop
   873c0:	20070a08 	.word	0x20070a08

000873c4 <__ascii_wctomb>:
   873c4:	b121      	cbz	r1, 873d0 <__ascii_wctomb+0xc>
   873c6:	2aff      	cmp	r2, #255	; 0xff
   873c8:	d804      	bhi.n	873d4 <__ascii_wctomb+0x10>
   873ca:	700a      	strb	r2, [r1, #0]
   873cc:	2001      	movs	r0, #1
   873ce:	4770      	bx	lr
   873d0:	4608      	mov	r0, r1
   873d2:	4770      	bx	lr
   873d4:	238a      	movs	r3, #138	; 0x8a
   873d6:	6003      	str	r3, [r0, #0]
   873d8:	f04f 30ff 	mov.w	r0, #4294967295
   873dc:	4770      	bx	lr
   873de:	bf00      	nop

000873e0 <_write_r>:
   873e0:	b570      	push	{r4, r5, r6, lr}
   873e2:	4c08      	ldr	r4, [pc, #32]	; (87404 <_write_r+0x24>)
   873e4:	4606      	mov	r6, r0
   873e6:	2500      	movs	r5, #0
   873e8:	4608      	mov	r0, r1
   873ea:	4611      	mov	r1, r2
   873ec:	461a      	mov	r2, r3
   873ee:	6025      	str	r5, [r4, #0]
   873f0:	f7fb fd74 	bl	82edc <_write>
   873f4:	1c43      	adds	r3, r0, #1
   873f6:	d000      	beq.n	873fa <_write_r+0x1a>
   873f8:	bd70      	pop	{r4, r5, r6, pc}
   873fa:	6823      	ldr	r3, [r4, #0]
   873fc:	2b00      	cmp	r3, #0
   873fe:	d0fb      	beq.n	873f8 <_write_r+0x18>
   87400:	6033      	str	r3, [r6, #0]
   87402:	bd70      	pop	{r4, r5, r6, pc}
   87404:	2007ad74 	.word	0x2007ad74

00087408 <__register_exitproc>:
   87408:	e92d 47f0 	stmdb	sp!, {r4, r5, r6, r7, r8, r9, sl, lr}
   8740c:	4c25      	ldr	r4, [pc, #148]	; (874a4 <__register_exitproc+0x9c>)
   8740e:	4606      	mov	r6, r0
   87410:	6825      	ldr	r5, [r4, #0]
   87412:	4688      	mov	r8, r1
   87414:	f8d5 4148 	ldr.w	r4, [r5, #328]	; 0x148
   87418:	4692      	mov	sl, r2
   8741a:	4699      	mov	r9, r3
   8741c:	b3c4      	cbz	r4, 87490 <__register_exitproc+0x88>
   8741e:	6860      	ldr	r0, [r4, #4]
   87420:	281f      	cmp	r0, #31
   87422:	dc17      	bgt.n	87454 <__register_exitproc+0x4c>
   87424:	1c41      	adds	r1, r0, #1
   87426:	b176      	cbz	r6, 87446 <__register_exitproc+0x3e>
   87428:	eb04 0380 	add.w	r3, r4, r0, lsl #2
   8742c:	f8c3 a088 	str.w	sl, [r3, #136]	; 0x88
   87430:	f8d4 5188 	ldr.w	r5, [r4, #392]	; 0x188
   87434:	2201      	movs	r2, #1
   87436:	4082      	lsls	r2, r0
   87438:	4315      	orrs	r5, r2
   8743a:	2e02      	cmp	r6, #2
   8743c:	f8c4 5188 	str.w	r5, [r4, #392]	; 0x188
   87440:	f8c3 9108 	str.w	r9, [r3, #264]	; 0x108
   87444:	d01e      	beq.n	87484 <__register_exitproc+0x7c>
   87446:	1c83      	adds	r3, r0, #2
   87448:	6061      	str	r1, [r4, #4]
   8744a:	2000      	movs	r0, #0
   8744c:	f844 8023 	str.w	r8, [r4, r3, lsl #2]
   87450:	e8bd 87f0 	ldmia.w	sp!, {r4, r5, r6, r7, r8, r9, sl, pc}
   87454:	4b14      	ldr	r3, [pc, #80]	; (874a8 <__register_exitproc+0xa0>)
   87456:	b303      	cbz	r3, 8749a <__register_exitproc+0x92>
   87458:	f44f 70c8 	mov.w	r0, #400	; 0x190
   8745c:	f7ff f9b0 	bl	867c0 <malloc>
   87460:	4604      	mov	r4, r0
   87462:	b1d0      	cbz	r0, 8749a <__register_exitproc+0x92>
   87464:	f8d5 3148 	ldr.w	r3, [r5, #328]	; 0x148
   87468:	2700      	movs	r7, #0
   8746a:	e884 0088 	stmia.w	r4, {r3, r7}
   8746e:	4638      	mov	r0, r7
   87470:	f8c5 4148 	str.w	r4, [r5, #328]	; 0x148
   87474:	2101      	movs	r1, #1
   87476:	f8c4 7188 	str.w	r7, [r4, #392]	; 0x188
   8747a:	f8c4 718c 	str.w	r7, [r4, #396]	; 0x18c
   8747e:	2e00      	cmp	r6, #0
   87480:	d0e1      	beq.n	87446 <__register_exitproc+0x3e>
   87482:	e7d1      	b.n	87428 <__register_exitproc+0x20>
   87484:	f8d4 318c 	ldr.w	r3, [r4, #396]	; 0x18c
   87488:	431a      	orrs	r2, r3
   8748a:	f8c4 218c 	str.w	r2, [r4, #396]	; 0x18c
   8748e:	e7da      	b.n	87446 <__register_exitproc+0x3e>
   87490:	f505 74a6 	add.w	r4, r5, #332	; 0x14c
   87494:	f8c5 4148 	str.w	r4, [r5, #328]	; 0x148
   87498:	e7c1      	b.n	8741e <__register_exitproc+0x16>
   8749a:	f04f 30ff 	mov.w	r0, #4294967295
   8749e:	e8bd 87f0 	ldmia.w	sp!, {r4, r5, r6, r7, r8, r9, sl, pc}
   874a2:	bf00      	nop
   874a4:	00087e3c 	.word	0x00087e3c
   874a8:	000867c1 	.word	0x000867c1

000874ac <_close_r>:
   874ac:	b538      	push	{r3, r4, r5, lr}
   874ae:	4c07      	ldr	r4, [pc, #28]	; (874cc <_close_r+0x20>)
   874b0:	2300      	movs	r3, #0
   874b2:	4605      	mov	r5, r0
   874b4:	4608      	mov	r0, r1
   874b6:	6023      	str	r3, [r4, #0]
   874b8:	f7fc f99c 	bl	837f4 <_close>
   874bc:	1c43      	adds	r3, r0, #1
   874be:	d000      	beq.n	874c2 <_close_r+0x16>
   874c0:	bd38      	pop	{r3, r4, r5, pc}
   874c2:	6823      	ldr	r3, [r4, #0]
   874c4:	2b00      	cmp	r3, #0
   874c6:	d0fb      	beq.n	874c0 <_close_r+0x14>
   874c8:	602b      	str	r3, [r5, #0]
   874ca:	bd38      	pop	{r3, r4, r5, pc}
   874cc:	2007ad74 	.word	0x2007ad74

000874d0 <_fclose_r>:
   874d0:	2900      	cmp	r1, #0
   874d2:	d03d      	beq.n	87550 <_fclose_r+0x80>
   874d4:	b570      	push	{r4, r5, r6, lr}
   874d6:	4605      	mov	r5, r0
   874d8:	460c      	mov	r4, r1
   874da:	b108      	cbz	r0, 874e0 <_fclose_r+0x10>
   874dc:	6b83      	ldr	r3, [r0, #56]	; 0x38
   874de:	b37b      	cbz	r3, 87540 <_fclose_r+0x70>
   874e0:	f9b4 300c 	ldrsh.w	r3, [r4, #12]
   874e4:	b90b      	cbnz	r3, 874ea <_fclose_r+0x1a>
   874e6:	2000      	movs	r0, #0
   874e8:	bd70      	pop	{r4, r5, r6, pc}
   874ea:	4628      	mov	r0, r5
   874ec:	4621      	mov	r1, r4
   874ee:	f7fe fc4d 	bl	85d8c <__sflush_r>
   874f2:	6ae3      	ldr	r3, [r4, #44]	; 0x2c
   874f4:	4606      	mov	r6, r0
   874f6:	b133      	cbz	r3, 87506 <_fclose_r+0x36>
   874f8:	4628      	mov	r0, r5
   874fa:	69e1      	ldr	r1, [r4, #28]
   874fc:	4798      	blx	r3
   874fe:	2800      	cmp	r0, #0
   87500:	bfb8      	it	lt
   87502:	f04f 36ff 	movlt.w	r6, #4294967295
   87506:	89a3      	ldrh	r3, [r4, #12]
   87508:	061b      	lsls	r3, r3, #24
   8750a:	d41c      	bmi.n	87546 <_fclose_r+0x76>
   8750c:	6b21      	ldr	r1, [r4, #48]	; 0x30
   8750e:	b141      	cbz	r1, 87522 <_fclose_r+0x52>
   87510:	f104 0340 	add.w	r3, r4, #64	; 0x40
   87514:	4299      	cmp	r1, r3
   87516:	d002      	beq.n	8751e <_fclose_r+0x4e>
   87518:	4628      	mov	r0, r5
   8751a:	f7fe fe47 	bl	861ac <_free_r>
   8751e:	2300      	movs	r3, #0
   87520:	6323      	str	r3, [r4, #48]	; 0x30
   87522:	6c61      	ldr	r1, [r4, #68]	; 0x44
   87524:	b121      	cbz	r1, 87530 <_fclose_r+0x60>
   87526:	4628      	mov	r0, r5
   87528:	f7fe fe40 	bl	861ac <_free_r>
   8752c:	2300      	movs	r3, #0
   8752e:	6463      	str	r3, [r4, #68]	; 0x44
   87530:	f7fe fd6a 	bl	86008 <__sfp_lock_acquire>
   87534:	2300      	movs	r3, #0
   87536:	81a3      	strh	r3, [r4, #12]
   87538:	f7fe fd68 	bl	8600c <__sfp_lock_release>
   8753c:	4630      	mov	r0, r6
   8753e:	bd70      	pop	{r4, r5, r6, pc}
   87540:	f7fe fd5c 	bl	85ffc <__sinit>
   87544:	e7cc      	b.n	874e0 <_fclose_r+0x10>
   87546:	4628      	mov	r0, r5
   87548:	6921      	ldr	r1, [r4, #16]
   8754a:	f7fe fe2f 	bl	861ac <_free_r>
   8754e:	e7dd      	b.n	8750c <_fclose_r+0x3c>
   87550:	2000      	movs	r0, #0
   87552:	4770      	bx	lr

00087554 <_fstat_r>:
   87554:	b538      	push	{r3, r4, r5, lr}
   87556:	4c08      	ldr	r4, [pc, #32]	; (87578 <_fstat_r+0x24>)
   87558:	2300      	movs	r3, #0
   8755a:	4605      	mov	r5, r0
   8755c:	4608      	mov	r0, r1
   8755e:	4611      	mov	r1, r2
   87560:	6023      	str	r3, [r4, #0]
   87562:	f7fc f94b 	bl	837fc <_fstat>
   87566:	1c43      	adds	r3, r0, #1
   87568:	d000      	beq.n	8756c <_fstat_r+0x18>
   8756a:	bd38      	pop	{r3, r4, r5, pc}
   8756c:	6823      	ldr	r3, [r4, #0]
   8756e:	2b00      	cmp	r3, #0
   87570:	d0fb      	beq.n	8756a <_fstat_r+0x16>
   87572:	602b      	str	r3, [r5, #0]
   87574:	bd38      	pop	{r3, r4, r5, pc}
   87576:	bf00      	nop
   87578:	2007ad74 	.word	0x2007ad74

0008757c <_isatty_r>:
   8757c:	b538      	push	{r3, r4, r5, lr}
   8757e:	4c07      	ldr	r4, [pc, #28]	; (8759c <_isatty_r+0x20>)
   87580:	2300      	movs	r3, #0
   87582:	4605      	mov	r5, r0
   87584:	4608      	mov	r0, r1
   87586:	6023      	str	r3, [r4, #0]
   87588:	f7fc f93e 	bl	83808 <_isatty>
   8758c:	1c43      	adds	r3, r0, #1
   8758e:	d000      	beq.n	87592 <_isatty_r+0x16>
   87590:	bd38      	pop	{r3, r4, r5, pc}
   87592:	6823      	ldr	r3, [r4, #0]
   87594:	2b00      	cmp	r3, #0
   87596:	d0fb      	beq.n	87590 <_isatty_r+0x14>
   87598:	602b      	str	r3, [r5, #0]
   8759a:	bd38      	pop	{r3, r4, r5, pc}
   8759c:	2007ad74 	.word	0x2007ad74

000875a0 <_lseek_r>:
   875a0:	b570      	push	{r4, r5, r6, lr}
   875a2:	4c08      	ldr	r4, [pc, #32]	; (875c4 <_lseek_r+0x24>)
   875a4:	4606      	mov	r6, r0
   875a6:	2500      	movs	r5, #0
   875a8:	4608      	mov	r0, r1
   875aa:	4611      	mov	r1, r2
   875ac:	461a      	mov	r2, r3
   875ae:	6025      	str	r5, [r4, #0]
   875b0:	f7fc f92c 	bl	8380c <_lseek>
   875b4:	1c43      	adds	r3, r0, #1
   875b6:	d000      	beq.n	875ba <_lseek_r+0x1a>
   875b8:	bd70      	pop	{r4, r5, r6, pc}
   875ba:	6823      	ldr	r3, [r4, #0]
   875bc:	2b00      	cmp	r3, #0
   875be:	d0fb      	beq.n	875b8 <_lseek_r+0x18>
   875c0:	6033      	str	r3, [r6, #0]
   875c2:	bd70      	pop	{r4, r5, r6, pc}
   875c4:	2007ad74 	.word	0x2007ad74

000875c8 <_read_r>:
   875c8:	b570      	push	{r4, r5, r6, lr}
   875ca:	4c08      	ldr	r4, [pc, #32]	; (875ec <_read_r+0x24>)
   875cc:	4606      	mov	r6, r0
   875ce:	2500      	movs	r5, #0
   875d0:	4608      	mov	r0, r1
   875d2:	4611      	mov	r1, r2
   875d4:	461a      	mov	r2, r3
   875d6:	6025      	str	r5, [r4, #0]
   875d8:	f7f9 f800 	bl	805dc <_read>
   875dc:	1c43      	adds	r3, r0, #1
   875de:	d000      	beq.n	875e2 <_read_r+0x1a>
   875e0:	bd70      	pop	{r4, r5, r6, pc}
   875e2:	6823      	ldr	r3, [r4, #0]
   875e4:	2b00      	cmp	r3, #0
   875e6:	d0fb      	beq.n	875e0 <_read_r+0x18>
   875e8:	6033      	str	r3, [r6, #0]
   875ea:	bd70      	pop	{r4, r5, r6, pc}
   875ec:	2007ad74 	.word	0x2007ad74

000875f0 <__aeabi_uldivmod>:
   875f0:	b953      	cbnz	r3, 87608 <__aeabi_uldivmod+0x18>
   875f2:	b94a      	cbnz	r2, 87608 <__aeabi_uldivmod+0x18>
   875f4:	2900      	cmp	r1, #0
   875f6:	bf08      	it	eq
   875f8:	2800      	cmpeq	r0, #0
   875fa:	bf1c      	itt	ne
   875fc:	f04f 31ff 	movne.w	r1, #4294967295
   87600:	f04f 30ff 	movne.w	r0, #4294967295
   87604:	f000 b83c 	b.w	87680 <__aeabi_idiv0>
   87608:	b082      	sub	sp, #8
   8760a:	46ec      	mov	ip, sp
   8760c:	e92d 5000 	stmdb	sp!, {ip, lr}
   87610:	f000 f81e 	bl	87650 <__gnu_uldivmod_helper>
   87614:	f8dd e004 	ldr.w	lr, [sp, #4]
   87618:	b002      	add	sp, #8
   8761a:	bc0c      	pop	{r2, r3}
   8761c:	4770      	bx	lr
   8761e:	bf00      	nop

00087620 <__gnu_ldivmod_helper>:
   87620:	e92d 41f0 	stmdb	sp!, {r4, r5, r6, r7, r8, lr}
   87624:	9c06      	ldr	r4, [sp, #24]
   87626:	4690      	mov	r8, r2
   87628:	4606      	mov	r6, r0
   8762a:	460f      	mov	r7, r1
   8762c:	461d      	mov	r5, r3
   8762e:	f000 f829 	bl	87684 <__divdi3>
   87632:	fb08 fc01 	mul.w	ip, r8, r1
   87636:	fba8 2300 	umull	r2, r3, r8, r0
   8763a:	fb00 c505 	mla	r5, r0, r5, ip
   8763e:	1ab2      	subs	r2, r6, r2
   87640:	442b      	add	r3, r5
   87642:	eb67 0303 	sbc.w	r3, r7, r3
   87646:	4686      	mov	lr, r0
   87648:	e9c4 2300 	strd	r2, r3, [r4]
   8764c:	e8bd 81f0 	ldmia.w	sp!, {r4, r5, r6, r7, r8, pc}

00087650 <__gnu_uldivmod_helper>:
   87650:	e92d 43f8 	stmdb	sp!, {r3, r4, r5, r6, r7, r8, r9, lr}
   87654:	9e08      	ldr	r6, [sp, #32]
   87656:	4617      	mov	r7, r2
   87658:	4680      	mov	r8, r0
   8765a:	4689      	mov	r9, r1
   8765c:	461d      	mov	r5, r3
   8765e:	f000 f967 	bl	87930 <__udivdi3>
   87662:	fb00 f305 	mul.w	r3, r0, r5
   87666:	fba0 4507 	umull	r4, r5, r0, r7
   8766a:	fb07 3701 	mla	r7, r7, r1, r3
   8766e:	ebb8 0404 	subs.w	r4, r8, r4
   87672:	443d      	add	r5, r7
   87674:	eb69 0505 	sbc.w	r5, r9, r5
   87678:	e9c6 4500 	strd	r4, r5, [r6]
   8767c:	e8bd 83f8 	ldmia.w	sp!, {r3, r4, r5, r6, r7, r8, r9, pc}

00087680 <__aeabi_idiv0>:
   87680:	4770      	bx	lr
   87682:	bf00      	nop

00087684 <__divdi3>:
   87684:	2900      	cmp	r1, #0
   87686:	e92d 43f0 	stmdb	sp!, {r4, r5, r6, r7, r8, r9, lr}
   8768a:	f2c0 80a8 	blt.w	877de <__divdi3+0x15a>
   8768e:	2600      	movs	r6, #0
   87690:	2b00      	cmp	r3, #0
   87692:	f2c0 809e 	blt.w	877d2 <__divdi3+0x14e>
   87696:	4681      	mov	r9, r0
   87698:	468e      	mov	lr, r1
   8769a:	4690      	mov	r8, r2
   8769c:	469c      	mov	ip, r3
   8769e:	4617      	mov	r7, r2
   876a0:	4604      	mov	r4, r0
   876a2:	460d      	mov	r5, r1
   876a4:	2b00      	cmp	r3, #0
   876a6:	d13d      	bne.n	87724 <__divdi3+0xa0>
   876a8:	428a      	cmp	r2, r1
   876aa:	d959      	bls.n	87760 <__divdi3+0xdc>
   876ac:	fab2 f382 	clz	r3, r2
   876b0:	b13b      	cbz	r3, 876c2 <__divdi3+0x3e>
   876b2:	f1c3 0220 	rsb	r2, r3, #32
   876b6:	409d      	lsls	r5, r3
   876b8:	fa20 f202 	lsr.w	r2, r0, r2
   876bc:	409f      	lsls	r7, r3
   876be:	4315      	orrs	r5, r2
   876c0:	409c      	lsls	r4, r3
   876c2:	0c39      	lsrs	r1, r7, #16
   876c4:	fbb5 f0f1 	udiv	r0, r5, r1
   876c8:	fa1f fe87 	uxth.w	lr, r7
   876cc:	fb01 5510 	mls	r5, r1, r0, r5
   876d0:	fb0e f300 	mul.w	r3, lr, r0
   876d4:	0c22      	lsrs	r2, r4, #16
   876d6:	ea42 4505 	orr.w	r5, r2, r5, lsl #16
   876da:	42ab      	cmp	r3, r5
   876dc:	d909      	bls.n	876f2 <__divdi3+0x6e>
   876de:	19ed      	adds	r5, r5, r7
   876e0:	f100 32ff 	add.w	r2, r0, #4294967295
   876e4:	f080 810b 	bcs.w	878fe <__divdi3+0x27a>
   876e8:	42ab      	cmp	r3, r5
   876ea:	f240 8108 	bls.w	878fe <__divdi3+0x27a>
   876ee:	3802      	subs	r0, #2
   876f0:	443d      	add	r5, r7
   876f2:	1aed      	subs	r5, r5, r3
   876f4:	fbb5 f3f1 	udiv	r3, r5, r1
   876f8:	fb01 5513 	mls	r5, r1, r3, r5
   876fc:	fb0e fe03 	mul.w	lr, lr, r3
   87700:	b2a4      	uxth	r4, r4
   87702:	ea44 4505 	orr.w	r5, r4, r5, lsl #16
   87706:	45ae      	cmp	lr, r5
   87708:	d908      	bls.n	8771c <__divdi3+0x98>
   8770a:	19ed      	adds	r5, r5, r7
   8770c:	f103 32ff 	add.w	r2, r3, #4294967295
   87710:	f080 80f7 	bcs.w	87902 <__divdi3+0x27e>
   87714:	45ae      	cmp	lr, r5
   87716:	f240 80f4 	bls.w	87902 <__divdi3+0x27e>
   8771a:	3b02      	subs	r3, #2
   8771c:	ea43 4300 	orr.w	r3, r3, r0, lsl #16
   87720:	2200      	movs	r2, #0
   87722:	e003      	b.n	8772c <__divdi3+0xa8>
   87724:	428b      	cmp	r3, r1
   87726:	d90f      	bls.n	87748 <__divdi3+0xc4>
   87728:	2200      	movs	r2, #0
   8772a:	4613      	mov	r3, r2
   8772c:	1c34      	adds	r4, r6, #0
   8772e:	bf18      	it	ne
   87730:	2401      	movne	r4, #1
   87732:	4260      	negs	r0, r4
   87734:	f04f 0500 	mov.w	r5, #0
   87738:	eb65 0145 	sbc.w	r1, r5, r5, lsl #1
   8773c:	4058      	eors	r0, r3
   8773e:	4051      	eors	r1, r2
   87740:	1900      	adds	r0, r0, r4
   87742:	4169      	adcs	r1, r5
   87744:	e8bd 83f0 	ldmia.w	sp!, {r4, r5, r6, r7, r8, r9, pc}
   87748:	fab3 f283 	clz	r2, r3
   8774c:	2a00      	cmp	r2, #0
   8774e:	f040 8089 	bne.w	87864 <__divdi3+0x1e0>
   87752:	428b      	cmp	r3, r1
   87754:	d302      	bcc.n	8775c <__divdi3+0xd8>
   87756:	4580      	cmp	r8, r0
   87758:	f200 80e2 	bhi.w	87920 <__divdi3+0x29c>
   8775c:	2301      	movs	r3, #1
   8775e:	e7e5      	b.n	8772c <__divdi3+0xa8>
   87760:	b912      	cbnz	r2, 87768 <__divdi3+0xe4>
   87762:	2301      	movs	r3, #1
   87764:	fbb3 f7f2 	udiv	r7, r3, r2
   87768:	fab7 f887 	clz	r8, r7
   8776c:	f1b8 0f00 	cmp.w	r8, #0
   87770:	d13b      	bne.n	877ea <__divdi3+0x166>
   87772:	1bed      	subs	r5, r5, r7
   87774:	ea4f 4c17 	mov.w	ip, r7, lsr #16
   87778:	fa1f fe87 	uxth.w	lr, r7
   8777c:	2201      	movs	r2, #1
   8777e:	fbb5 f0fc 	udiv	r0, r5, ip
   87782:	fb0c 5510 	mls	r5, ip, r0, r5
   87786:	fb0e f300 	mul.w	r3, lr, r0
   8778a:	0c21      	lsrs	r1, r4, #16
   8778c:	ea41 4505 	orr.w	r5, r1, r5, lsl #16
   87790:	42ab      	cmp	r3, r5
   87792:	d907      	bls.n	877a4 <__divdi3+0x120>
   87794:	19ed      	adds	r5, r5, r7
   87796:	f100 31ff 	add.w	r1, r0, #4294967295
   8779a:	d202      	bcs.n	877a2 <__divdi3+0x11e>
   8779c:	42ab      	cmp	r3, r5
   8779e:	f200 80c3 	bhi.w	87928 <__divdi3+0x2a4>
   877a2:	4608      	mov	r0, r1
   877a4:	1aed      	subs	r5, r5, r3
   877a6:	fbb5 f3fc 	udiv	r3, r5, ip
   877aa:	fb0c 5513 	mls	r5, ip, r3, r5
   877ae:	fb0e fe03 	mul.w	lr, lr, r3
   877b2:	b2a4      	uxth	r4, r4
   877b4:	ea44 4505 	orr.w	r5, r4, r5, lsl #16
   877b8:	45ae      	cmp	lr, r5
   877ba:	d907      	bls.n	877cc <__divdi3+0x148>
   877bc:	19ed      	adds	r5, r5, r7
   877be:	f103 31ff 	add.w	r1, r3, #4294967295
   877c2:	d202      	bcs.n	877ca <__divdi3+0x146>
   877c4:	45ae      	cmp	lr, r5
   877c6:	f200 80ad 	bhi.w	87924 <__divdi3+0x2a0>
   877ca:	460b      	mov	r3, r1
   877cc:	ea43 4300 	orr.w	r3, r3, r0, lsl #16
   877d0:	e7ac      	b.n	8772c <__divdi3+0xa8>
   877d2:	4252      	negs	r2, r2
   877d4:	ea6f 0606 	mvn.w	r6, r6
   877d8:	eb63 0343 	sbc.w	r3, r3, r3, lsl #1
   877dc:	e75b      	b.n	87696 <__divdi3+0x12>
   877de:	4240      	negs	r0, r0
   877e0:	eb61 0141 	sbc.w	r1, r1, r1, lsl #1
   877e4:	f04f 36ff 	mov.w	r6, #4294967295
   877e8:	e752      	b.n	87690 <__divdi3+0xc>
   877ea:	fa07 f708 	lsl.w	r7, r7, r8
   877ee:	f1c8 0220 	rsb	r2, r8, #32
   877f2:	fa25 f302 	lsr.w	r3, r5, r2
   877f6:	ea4f 4c17 	mov.w	ip, r7, lsr #16
   877fa:	fbb3 f1fc 	udiv	r1, r3, ip
   877fe:	fa1f fe87 	uxth.w	lr, r7
   87802:	fb0c 3311 	mls	r3, ip, r1, r3
   87806:	fa24 f202 	lsr.w	r2, r4, r2
   8780a:	fa05 f508 	lsl.w	r5, r5, r8
   8780e:	fb0e f901 	mul.w	r9, lr, r1
   87812:	432a      	orrs	r2, r5
   87814:	0c10      	lsrs	r0, r2, #16
   87816:	ea40 4303 	orr.w	r3, r0, r3, lsl #16
   8781a:	4599      	cmp	r9, r3
   8781c:	fa04 f408 	lsl.w	r4, r4, r8
   87820:	d907      	bls.n	87832 <__divdi3+0x1ae>
   87822:	19db      	adds	r3, r3, r7
   87824:	f101 30ff 	add.w	r0, r1, #4294967295
   87828:	d278      	bcs.n	8791c <__divdi3+0x298>
   8782a:	4599      	cmp	r9, r3
   8782c:	d976      	bls.n	8791c <__divdi3+0x298>
   8782e:	3902      	subs	r1, #2
   87830:	443b      	add	r3, r7
   87832:	ebc9 0303 	rsb	r3, r9, r3
   87836:	fbb3 f0fc 	udiv	r0, r3, ip
   8783a:	fb0c 3310 	mls	r3, ip, r0, r3
   8783e:	fb0e f500 	mul.w	r5, lr, r0
   87842:	b292      	uxth	r2, r2
   87844:	ea42 4303 	orr.w	r3, r2, r3, lsl #16
   87848:	429d      	cmp	r5, r3
   8784a:	d907      	bls.n	8785c <__divdi3+0x1d8>
   8784c:	19db      	adds	r3, r3, r7
   8784e:	f100 32ff 	add.w	r2, r0, #4294967295
   87852:	d25f      	bcs.n	87914 <__divdi3+0x290>
   87854:	429d      	cmp	r5, r3
   87856:	d95d      	bls.n	87914 <__divdi3+0x290>
   87858:	3802      	subs	r0, #2
   8785a:	443b      	add	r3, r7
   8785c:	1b5d      	subs	r5, r3, r5
   8785e:	ea40 4201 	orr.w	r2, r0, r1, lsl #16
   87862:	e78c      	b.n	8777e <__divdi3+0xfa>
   87864:	f1c2 0320 	rsb	r3, r2, #32
   87868:	fa28 f103 	lsr.w	r1, r8, r3
   8786c:	fa0c fc02 	lsl.w	ip, ip, r2
   87870:	ea41 0c0c 	orr.w	ip, r1, ip
   87874:	ea4f 401c 	mov.w	r0, ip, lsr #16
   87878:	fa2e f103 	lsr.w	r1, lr, r3
   8787c:	fbb1 f5f0 	udiv	r5, r1, r0
   87880:	fa1f f78c 	uxth.w	r7, ip
   87884:	fb00 1115 	mls	r1, r0, r5, r1
   87888:	fa29 f303 	lsr.w	r3, r9, r3
   8788c:	fa0e fe02 	lsl.w	lr, lr, r2
   87890:	fb07 f905 	mul.w	r9, r7, r5
   87894:	ea43 0e0e 	orr.w	lr, r3, lr
   87898:	ea4f 431e 	mov.w	r3, lr, lsr #16
   8789c:	ea43 4101 	orr.w	r1, r3, r1, lsl #16
   878a0:	4589      	cmp	r9, r1
   878a2:	fa08 f802 	lsl.w	r8, r8, r2
   878a6:	d908      	bls.n	878ba <__divdi3+0x236>
   878a8:	eb11 010c 	adds.w	r1, r1, ip
   878ac:	f105 33ff 	add.w	r3, r5, #4294967295
   878b0:	d232      	bcs.n	87918 <__divdi3+0x294>
   878b2:	4589      	cmp	r9, r1
   878b4:	d930      	bls.n	87918 <__divdi3+0x294>
   878b6:	3d02      	subs	r5, #2
   878b8:	4461      	add	r1, ip
   878ba:	ebc9 0101 	rsb	r1, r9, r1
   878be:	fbb1 f3f0 	udiv	r3, r1, r0
   878c2:	fb00 1113 	mls	r1, r0, r3, r1
   878c6:	fb07 f703 	mul.w	r7, r7, r3
   878ca:	fa1f fe8e 	uxth.w	lr, lr
   878ce:	ea4e 4e01 	orr.w	lr, lr, r1, lsl #16
   878d2:	4577      	cmp	r7, lr
   878d4:	d908      	bls.n	878e8 <__divdi3+0x264>
   878d6:	eb1e 0e0c 	adds.w	lr, lr, ip
   878da:	f103 31ff 	add.w	r1, r3, #4294967295
   878de:	d217      	bcs.n	87910 <__divdi3+0x28c>
   878e0:	4577      	cmp	r7, lr
   878e2:	d915      	bls.n	87910 <__divdi3+0x28c>
   878e4:	3b02      	subs	r3, #2
   878e6:	44e6      	add	lr, ip
   878e8:	ea43 4305 	orr.w	r3, r3, r5, lsl #16
   878ec:	fba3 8908 	umull	r8, r9, r3, r8
   878f0:	ebc7 0e0e 	rsb	lr, r7, lr
   878f4:	45ce      	cmp	lr, r9
   878f6:	d309      	bcc.n	8790c <__divdi3+0x288>
   878f8:	d005      	beq.n	87906 <__divdi3+0x282>
   878fa:	2200      	movs	r2, #0
   878fc:	e716      	b.n	8772c <__divdi3+0xa8>
   878fe:	4610      	mov	r0, r2
   87900:	e6f7      	b.n	876f2 <__divdi3+0x6e>
   87902:	4613      	mov	r3, r2
   87904:	e70a      	b.n	8771c <__divdi3+0x98>
   87906:	4094      	lsls	r4, r2
   87908:	4544      	cmp	r4, r8
   8790a:	d2f6      	bcs.n	878fa <__divdi3+0x276>
   8790c:	3b01      	subs	r3, #1
   8790e:	e7f4      	b.n	878fa <__divdi3+0x276>
   87910:	460b      	mov	r3, r1
   87912:	e7e9      	b.n	878e8 <__divdi3+0x264>
   87914:	4610      	mov	r0, r2
   87916:	e7a1      	b.n	8785c <__divdi3+0x1d8>
   87918:	461d      	mov	r5, r3
   8791a:	e7ce      	b.n	878ba <__divdi3+0x236>
   8791c:	4601      	mov	r1, r0
   8791e:	e788      	b.n	87832 <__divdi3+0x1ae>
   87920:	4613      	mov	r3, r2
   87922:	e703      	b.n	8772c <__divdi3+0xa8>
   87924:	3b02      	subs	r3, #2
   87926:	e751      	b.n	877cc <__divdi3+0x148>
   87928:	3802      	subs	r0, #2
   8792a:	443d      	add	r5, r7
   8792c:	e73a      	b.n	877a4 <__divdi3+0x120>
   8792e:	bf00      	nop

00087930 <__udivdi3>:
   87930:	e92d 43f0 	stmdb	sp!, {r4, r5, r6, r7, r8, r9, lr}
   87934:	2b00      	cmp	r3, #0
   87936:	d144      	bne.n	879c2 <__udivdi3+0x92>
   87938:	428a      	cmp	r2, r1
   8793a:	4615      	mov	r5, r2
   8793c:	4604      	mov	r4, r0
   8793e:	d94f      	bls.n	879e0 <__udivdi3+0xb0>
   87940:	fab2 f782 	clz	r7, r2
   87944:	460e      	mov	r6, r1
   87946:	b14f      	cbz	r7, 8795c <__udivdi3+0x2c>
   87948:	f1c7 0320 	rsb	r3, r7, #32
   8794c:	40b9      	lsls	r1, r7
   8794e:	fa20 f603 	lsr.w	r6, r0, r3
   87952:	fa02 f507 	lsl.w	r5, r2, r7
   87956:	430e      	orrs	r6, r1
   87958:	fa00 f407 	lsl.w	r4, r0, r7
   8795c:	0c2f      	lsrs	r7, r5, #16
   8795e:	fbb6 f0f7 	udiv	r0, r6, r7
   87962:	fa1f fe85 	uxth.w	lr, r5
   87966:	fb07 6210 	mls	r2, r7, r0, r6
   8796a:	fb0e f100 	mul.w	r1, lr, r0
   8796e:	0c26      	lsrs	r6, r4, #16
   87970:	ea46 4302 	orr.w	r3, r6, r2, lsl #16
   87974:	4299      	cmp	r1, r3
   87976:	d909      	bls.n	8798c <__udivdi3+0x5c>
   87978:	195b      	adds	r3, r3, r5
   8797a:	f100 32ff 	add.w	r2, r0, #4294967295
   8797e:	f080 80ee 	bcs.w	87b5e <__udivdi3+0x22e>
   87982:	4299      	cmp	r1, r3
   87984:	f240 80eb 	bls.w	87b5e <__udivdi3+0x22e>
   87988:	3802      	subs	r0, #2
   8798a:	442b      	add	r3, r5
   8798c:	1a59      	subs	r1, r3, r1
   8798e:	fbb1 f3f7 	udiv	r3, r1, r7
   87992:	fb07 1113 	mls	r1, r7, r3, r1
   87996:	fb0e fe03 	mul.w	lr, lr, r3
   8799a:	b2a4      	uxth	r4, r4
   8799c:	ea44 4101 	orr.w	r1, r4, r1, lsl #16
   879a0:	458e      	cmp	lr, r1
   879a2:	d908      	bls.n	879b6 <__udivdi3+0x86>
   879a4:	1949      	adds	r1, r1, r5
   879a6:	f103 32ff 	add.w	r2, r3, #4294967295
   879aa:	f080 80da 	bcs.w	87b62 <__udivdi3+0x232>
   879ae:	458e      	cmp	lr, r1
   879b0:	f240 80d7 	bls.w	87b62 <__udivdi3+0x232>
   879b4:	3b02      	subs	r3, #2
   879b6:	ea43 4000 	orr.w	r0, r3, r0, lsl #16
   879ba:	2600      	movs	r6, #0
   879bc:	4631      	mov	r1, r6
   879be:	e8bd 83f0 	ldmia.w	sp!, {r4, r5, r6, r7, r8, r9, pc}
   879c2:	428b      	cmp	r3, r1
   879c4:	d847      	bhi.n	87a56 <__udivdi3+0x126>
   879c6:	fab3 f683 	clz	r6, r3
   879ca:	2e00      	cmp	r6, #0
   879cc:	d148      	bne.n	87a60 <__udivdi3+0x130>
   879ce:	428b      	cmp	r3, r1
   879d0:	d302      	bcc.n	879d8 <__udivdi3+0xa8>
   879d2:	4282      	cmp	r2, r0
   879d4:	f200 80cf 	bhi.w	87b76 <__udivdi3+0x246>
   879d8:	2001      	movs	r0, #1
   879da:	4631      	mov	r1, r6
   879dc:	e8bd 83f0 	ldmia.w	sp!, {r4, r5, r6, r7, r8, r9, pc}
   879e0:	b912      	cbnz	r2, 879e8 <__udivdi3+0xb8>
   879e2:	2501      	movs	r5, #1
   879e4:	fbb5 f5f2 	udiv	r5, r5, r2
   879e8:	fab5 fc85 	clz	ip, r5
   879ec:	f1bc 0f00 	cmp.w	ip, #0
   879f0:	d178      	bne.n	87ae4 <__udivdi3+0x1b4>
   879f2:	1b49      	subs	r1, r1, r5
   879f4:	0c2f      	lsrs	r7, r5, #16
   879f6:	fa1f fe85 	uxth.w	lr, r5
   879fa:	2601      	movs	r6, #1
   879fc:	fbb1 f0f7 	udiv	r0, r1, r7
   87a00:	fb07 1110 	mls	r1, r7, r0, r1
   87a04:	fb0e f200 	mul.w	r2, lr, r0
   87a08:	0c23      	lsrs	r3, r4, #16
   87a0a:	ea43 4101 	orr.w	r1, r3, r1, lsl #16
   87a0e:	428a      	cmp	r2, r1
   87a10:	d907      	bls.n	87a22 <__udivdi3+0xf2>
   87a12:	1949      	adds	r1, r1, r5
   87a14:	f100 33ff 	add.w	r3, r0, #4294967295
   87a18:	d202      	bcs.n	87a20 <__udivdi3+0xf0>
   87a1a:	428a      	cmp	r2, r1
   87a1c:	f200 80bc 	bhi.w	87b98 <__udivdi3+0x268>
   87a20:	4618      	mov	r0, r3
   87a22:	1a89      	subs	r1, r1, r2
   87a24:	fbb1 f3f7 	udiv	r3, r1, r7
   87a28:	fb07 1113 	mls	r1, r7, r3, r1
   87a2c:	fb0e fe03 	mul.w	lr, lr, r3
   87a30:	b2a4      	uxth	r4, r4
   87a32:	ea44 4201 	orr.w	r2, r4, r1, lsl #16
   87a36:	4596      	cmp	lr, r2
   87a38:	d908      	bls.n	87a4c <__udivdi3+0x11c>
   87a3a:	1952      	adds	r2, r2, r5
   87a3c:	f103 31ff 	add.w	r1, r3, #4294967295
   87a40:	f080 8091 	bcs.w	87b66 <__udivdi3+0x236>
   87a44:	4596      	cmp	lr, r2
   87a46:	f240 808e 	bls.w	87b66 <__udivdi3+0x236>
   87a4a:	3b02      	subs	r3, #2
   87a4c:	ea43 4000 	orr.w	r0, r3, r0, lsl #16
   87a50:	4631      	mov	r1, r6
   87a52:	e8bd 83f0 	ldmia.w	sp!, {r4, r5, r6, r7, r8, r9, pc}
   87a56:	2600      	movs	r6, #0
   87a58:	4630      	mov	r0, r6
   87a5a:	4631      	mov	r1, r6
   87a5c:	e8bd 83f0 	ldmia.w	sp!, {r4, r5, r6, r7, r8, r9, pc}
   87a60:	f1c6 0420 	rsb	r4, r6, #32
   87a64:	fa22 f504 	lsr.w	r5, r2, r4
   87a68:	40b3      	lsls	r3, r6
   87a6a:	432b      	orrs	r3, r5
   87a6c:	fa21 f704 	lsr.w	r7, r1, r4
   87a70:	ea4f 4813 	mov.w	r8, r3, lsr #16
   87a74:	fbb7 fcf8 	udiv	ip, r7, r8
   87a78:	fa1f f983 	uxth.w	r9, r3
   87a7c:	fb08 771c 	mls	r7, r8, ip, r7
   87a80:	fa20 fe04 	lsr.w	lr, r0, r4
   87a84:	fa01 f506 	lsl.w	r5, r1, r6
   87a88:	fb09 f40c 	mul.w	r4, r9, ip
   87a8c:	ea4e 0505 	orr.w	r5, lr, r5
   87a90:	ea4f 4e15 	mov.w	lr, r5, lsr #16
   87a94:	ea4e 4707 	orr.w	r7, lr, r7, lsl #16
   87a98:	42bc      	cmp	r4, r7
   87a9a:	fa02 f206 	lsl.w	r2, r2, r6
   87a9e:	d904      	bls.n	87aaa <__udivdi3+0x17a>
   87aa0:	18ff      	adds	r7, r7, r3
   87aa2:	f10c 31ff 	add.w	r1, ip, #4294967295
   87aa6:	d368      	bcc.n	87b7a <__udivdi3+0x24a>
   87aa8:	468c      	mov	ip, r1
   87aaa:	1b3f      	subs	r7, r7, r4
   87aac:	fbb7 f4f8 	udiv	r4, r7, r8
   87ab0:	fb08 7714 	mls	r7, r8, r4, r7
   87ab4:	fb09 f904 	mul.w	r9, r9, r4
   87ab8:	b2ad      	uxth	r5, r5
   87aba:	ea45 4107 	orr.w	r1, r5, r7, lsl #16
   87abe:	4589      	cmp	r9, r1
   87ac0:	d904      	bls.n	87acc <__udivdi3+0x19c>
   87ac2:	18c9      	adds	r1, r1, r3
   87ac4:	f104 35ff 	add.w	r5, r4, #4294967295
   87ac8:	d35d      	bcc.n	87b86 <__udivdi3+0x256>
   87aca:	462c      	mov	r4, r5
   87acc:	ea44 440c 	orr.w	r4, r4, ip, lsl #16
   87ad0:	fba4 2302 	umull	r2, r3, r4, r2
   87ad4:	ebc9 0101 	rsb	r1, r9, r1
   87ad8:	4299      	cmp	r1, r3
   87ada:	d349      	bcc.n	87b70 <__udivdi3+0x240>
   87adc:	d045      	beq.n	87b6a <__udivdi3+0x23a>
   87ade:	4620      	mov	r0, r4
   87ae0:	2600      	movs	r6, #0
   87ae2:	e76b      	b.n	879bc <__udivdi3+0x8c>
   87ae4:	f1cc 0420 	rsb	r4, ip, #32
   87ae8:	fa05 f50c 	lsl.w	r5, r5, ip
   87aec:	fa21 f304 	lsr.w	r3, r1, r4
   87af0:	0c2a      	lsrs	r2, r5, #16
   87af2:	fbb3 f6f2 	udiv	r6, r3, r2
   87af6:	fa1f fe85 	uxth.w	lr, r5
   87afa:	fb02 3816 	mls	r8, r2, r6, r3
   87afe:	fa20 f704 	lsr.w	r7, r0, r4
   87b02:	fa01 f10c 	lsl.w	r1, r1, ip
   87b06:	fb0e f906 	mul.w	r9, lr, r6
   87b0a:	430f      	orrs	r7, r1
   87b0c:	0c3c      	lsrs	r4, r7, #16
   87b0e:	ea44 4308 	orr.w	r3, r4, r8, lsl #16
   87b12:	4599      	cmp	r9, r3
   87b14:	fa00 f40c 	lsl.w	r4, r0, ip
   87b18:	d907      	bls.n	87b2a <__udivdi3+0x1fa>
   87b1a:	195b      	adds	r3, r3, r5
   87b1c:	f106 31ff 	add.w	r1, r6, #4294967295
   87b20:	d238      	bcs.n	87b94 <__udivdi3+0x264>
   87b22:	4599      	cmp	r9, r3
   87b24:	d936      	bls.n	87b94 <__udivdi3+0x264>
   87b26:	3e02      	subs	r6, #2
   87b28:	442b      	add	r3, r5
   87b2a:	ebc9 0303 	rsb	r3, r9, r3
   87b2e:	fbb3 f0f2 	udiv	r0, r3, r2
   87b32:	fb02 3310 	mls	r3, r2, r0, r3
   87b36:	fb0e f100 	mul.w	r1, lr, r0
   87b3a:	b2bf      	uxth	r7, r7
   87b3c:	ea47 4303 	orr.w	r3, r7, r3, lsl #16
   87b40:	4299      	cmp	r1, r3
   87b42:	d907      	bls.n	87b54 <__udivdi3+0x224>
   87b44:	195b      	adds	r3, r3, r5
   87b46:	f100 37ff 	add.w	r7, r0, #4294967295
   87b4a:	d221      	bcs.n	87b90 <__udivdi3+0x260>
   87b4c:	4299      	cmp	r1, r3
   87b4e:	d91f      	bls.n	87b90 <__udivdi3+0x260>
   87b50:	3802      	subs	r0, #2
   87b52:	442b      	add	r3, r5
   87b54:	4617      	mov	r7, r2
   87b56:	1a59      	subs	r1, r3, r1
   87b58:	ea40 4606 	orr.w	r6, r0, r6, lsl #16
   87b5c:	e74e      	b.n	879fc <__udivdi3+0xcc>
   87b5e:	4610      	mov	r0, r2
   87b60:	e714      	b.n	8798c <__udivdi3+0x5c>
   87b62:	4613      	mov	r3, r2
   87b64:	e727      	b.n	879b6 <__udivdi3+0x86>
   87b66:	460b      	mov	r3, r1
   87b68:	e770      	b.n	87a4c <__udivdi3+0x11c>
   87b6a:	40b0      	lsls	r0, r6
   87b6c:	4290      	cmp	r0, r2
   87b6e:	d2b6      	bcs.n	87ade <__udivdi3+0x1ae>
   87b70:	1e60      	subs	r0, r4, #1
   87b72:	2600      	movs	r6, #0
   87b74:	e722      	b.n	879bc <__udivdi3+0x8c>
   87b76:	4630      	mov	r0, r6
   87b78:	e720      	b.n	879bc <__udivdi3+0x8c>
   87b7a:	42bc      	cmp	r4, r7
   87b7c:	d994      	bls.n	87aa8 <__udivdi3+0x178>
   87b7e:	f1ac 0c02 	sub.w	ip, ip, #2
   87b82:	441f      	add	r7, r3
   87b84:	e791      	b.n	87aaa <__udivdi3+0x17a>
   87b86:	4589      	cmp	r9, r1
   87b88:	d99f      	bls.n	87aca <__udivdi3+0x19a>
   87b8a:	3c02      	subs	r4, #2
   87b8c:	4419      	add	r1, r3
   87b8e:	e79d      	b.n	87acc <__udivdi3+0x19c>
   87b90:	4638      	mov	r0, r7
   87b92:	e7df      	b.n	87b54 <__udivdi3+0x224>
   87b94:	460e      	mov	r6, r1
   87b96:	e7c8      	b.n	87b2a <__udivdi3+0x1fa>
   87b98:	3802      	subs	r0, #2
   87b9a:	4429      	add	r1, r5
   87b9c:	e741      	b.n	87a22 <__udivdi3+0xf2>
   87b9e:	bf00      	nop
   87ba0:	00000001 	.word	0x00000001
   87ba4:	00000002 	.word	0x00000002
   87ba8:	00000004 	.word	0x00000004
   87bac:	00000008 	.word	0x00000008
   87bb0:	00000010 	.word	0x00000010
   87bb4:	00000020 	.word	0x00000020
   87bb8:	00000040 	.word	0x00000040
   87bbc:	00000080 	.word	0x00000080
   87bc0:	00000100 	.word	0x00000100
   87bc4:	00000200 	.word	0x00000200
   87bc8:	00000400 	.word	0x00000400
   87bcc:	09097325 	.word	0x09097325
   87bd0:	25096325 	.word	0x25096325
   87bd4:	75250975 	.word	0x75250975
   87bd8:	0d752509 	.word	0x0d752509
   87bdc:	0000000a 	.word	0x0000000a
   87be0:	454c4449 	.word	0x454c4449
   87be4:	00000000 	.word	0x00000000
   87be8:	00000a0d 	.word	0x00000a0d
   87bec:	20726d54 	.word	0x20726d54
   87bf0:	00637653 	.word	0x00637653
   87bf4:	2d2d2d2d 	.word	0x2d2d2d2d
   87bf8:	2d2d2d2d 	.word	0x2d2d2d2d
   87bfc:	2d2d2d2d 	.word	0x2d2d2d2d
   87c00:	636c6557 	.word	0x636c6557
   87c04:	2d656d6f 	.word	0x2d656d6f
   87c08:	2d2d2d2d 	.word	0x2d2d2d2d
   87c0c:	2d2d2d2d 	.word	0x2d2d2d2d
   87c10:	0a2d2d2d 	.word	0x0a2d2d2d
   87c14:	00000000 	.word	0x00000000
   87c18:	69727543 	.word	0x69727543
   87c1c:	65732065 	.word	0x65732065
   87c20:	7463656c 	.word	0x7463656c
   87c24:	000a6465 	.word	0x000a6465
   87c28:	74656f4e 	.word	0x74656f4e
   87c2c:	20726568 	.word	0x20726568
   87c30:	656c6573 	.word	0x656c6573
   87c34:	64657463 	.word	0x64657463
   87c38:	0000000a 	.word	0x0000000a
   87c3c:	72727543 	.word	0x72727543
   87c40:	20746e65 	.word	0x20746e65
   87c44:	3a736f70 	.word	0x3a736f70
   87c48:	64252820 	.word	0x64252820
   87c4c:	6425202c 	.word	0x6425202c
   87c50:	00000a29 	.word	0x00000a29
   87c54:	69736f50 	.word	0x69736f50
   87c58:	6e6f6974 	.word	0x6e6f6974
   87c5c:	20666f20 	.word	0x20666f20
   87c60:	656a626f 	.word	0x656a626f
   87c64:	203a7463 	.word	0x203a7463
   87c68:	2c642528 	.word	0x2c642528
   87c6c:	29642520 	.word	0x29642520
   87c70:	0000000a 	.word	0x0000000a
   87c74:	73726946 	.word	0x73726946
   87c78:	75722074 	.word	0x75722074
   87c7c:	61202c6e 	.word	0x61202c6e
   87c80:	656c676e 	.word	0x656c676e
   87c84:	6425203a 	.word	0x6425203a
   87c88:	3a64202c 	.word	0x3a64202c
   87c8c:	0a642520 	.word	0x0a642520
   87c90:	00000000 	.word	0x00000000
   87c94:	6c726145 	.word	0x6c726145
   87c98:	20726569 	.word	0x20726569
   87c9c:	3a736f70 	.word	0x3a736f70
   87ca0:	64252820 	.word	0x64252820
   87ca4:	6425202c 	.word	0x6425202c
   87ca8:	00000a29 	.word	0x00000a29
   87cac:	72726f63 	.word	0x72726f63
   87cb0:	69746365 	.word	0x69746365
   87cb4:	203a6e6f 	.word	0x203a6e6f
   87cb8:	202c6425 	.word	0x202c6425
   87cbc:	25203a64 	.word	0x25203a64
   87cc0:	00000a64 	.word	0x00000a64
   87cc4:	656a624f 	.word	0x656a624f
   87cc8:	203a7463 	.word	0x203a7463
   87ccc:	2c642528 	.word	0x2c642528
   87cd0:	29642520 	.word	0x29642520
   87cd4:	0000000a 	.word	0x0000000a
   87cd8:	20746f4e 	.word	0x20746f4e
   87cdc:	6e756f66 	.word	0x6e756f66
   87ce0:	52203a64 	.word	0x52203a64
   87ce4:	7461746f 	.word	0x7461746f
   87ce8:	69722065 	.word	0x69722065
   87cec:	0a746867 	.word	0x0a746867
   87cf0:	00000000 	.word	0x00000000
   87cf4:	20746f4e 	.word	0x20746f4e
   87cf8:	6e756f66 	.word	0x6e756f66
   87cfc:	72203a64 	.word	0x72203a64
   87d00:	7461746f 	.word	0x7461746f
   87d04:	6f742065 	.word	0x6f742065
   87d08:	64696d20 	.word	0x64696d20
   87d0c:	00656c64 	.word	0x00656c64
   87d10:	20746f4e 	.word	0x20746f4e
   87d14:	6e756f66 	.word	0x6e756f66
   87d18:	52203a64 	.word	0x52203a64
   87d1c:	7461746f 	.word	0x7461746f
   87d20:	656c2065 	.word	0x656c2065
   87d24:	000a7466 	.word	0x000a7466
   87d28:	20746f4e 	.word	0x20746f4e
   87d2c:	6e756f66 	.word	0x6e756f66
   87d30:	6f6d2064 	.word	0x6f6d2064
   87d34:	66206576 	.word	0x66206576
   87d38:	6177726f 	.word	0x6177726f
   87d3c:	203a6472 	.word	0x203a6472
   87d40:	00000000 	.word	0x00000000
   87d44:	6c756f43 	.word	0x6c756f43
   87d48:	6f6e2064 	.word	0x6f6e2064
   87d4c:	69662074 	.word	0x69662074
   87d50:	7420646e 	.word	0x7420646e
   87d54:	6f206568 	.word	0x6f206568
   87d58:	63656a62 	.word	0x63656a62
   87d5c:	00000a74 	.word	0x00000a74
   87d60:	65747441 	.word	0x65747441
   87d64:	6974706d 	.word	0x6974706d
   87d68:	7420676e 	.word	0x7420676e
   87d6c:	7267206f 	.word	0x7267206f
   87d70:	6f206261 	.word	0x6f206261
   87d74:	63656a62 	.word	0x63656a62
   87d78:	00000a74 	.word	0x00000a74
   87d7c:	3a786f42 	.word	0x3a786f42
   87d80:	64252820 	.word	0x64252820
   87d84:	6425202c 	.word	0x6425202c
   87d88:	00000a29 	.word	0x00000a29
   87d8c:	656c6552 	.word	0x656c6552
   87d90:	64657361 	.word	0x64657361
   87d94:	6a626f20 	.word	0x6a626f20
   87d98:	0a746365 	.word	0x0a746365
   87d9c:	00000000 	.word	0x00000000
   87da0:	2d2d2d2d 	.word	0x2d2d2d2d
   87da4:	2d2d2d2d 	.word	0x2d2d2d2d
   87da8:	2d2d2d2d 	.word	0x2d2d2d2d
   87dac:	6e452d2d 	.word	0x6e452d2d
   87db0:	2d2d2d64 	.word	0x2d2d2d64
   87db4:	2d2d2d2d 	.word	0x2d2d2d2d
   87db8:	2d2d2d2d 	.word	0x2d2d2d2d
   87dbc:	0a2d2d2d 	.word	0x0a2d2d2d
   87dc0:	00000000 	.word	0x00000000
   87dc4:	72726f43 	.word	0x72726f43
   87dc8:	74616c65 	.word	0x74616c65
   87dcc:	25203a65 	.word	0x25203a65
   87dd0:	00000a64 	.word	0x00000a64
   87dd4:	6f746f6d 	.word	0x6f746f6d
   87dd8:	61745f72 	.word	0x61745f72
   87ddc:	00006b73 	.word	0x00006b73
   87de0:	6e69616d 	.word	0x6e69616d
   87de4:	7361745f 	.word	0x7361745f
   87de8:	0000006b 	.word	0x0000006b
   87dec:	00000000 	.word	0x00000000

00087df0 <atanlo>:
   87df0:	222f65e2 3c7a2b7f 33145c07 3c81a626     .e/".+z<.\.3&..<
   87e00:	7af0cbbd 3c700788 33145c07 3c91a626     ...z..p<.\.3&..<

00087e10 <atanhi>:
   87e10:	0561bb4f 3fddac67 54442d18 3fe921fb     O.a.g..?.-DT.!.?
   87e20:	d281f69b 3fef730b 54442d18 3ff921fb     .....s.?.-DT.!.?
   87e30:	74727173 00000000 00000043              sqrt....C...

00087e3c <_global_impure_ptr>:
   87e3c:	200701a8                                ... 

00087e40 <zeroes.6869>:
   87e40:	30303030 30303030 30303030 30303030     0000000000000000
   87e50:	33323130 37363534 42413938 46454443     0123456789ABCDEF
   87e60:	00000000 33323130 37363534 62613938     ....0123456789ab
   87e70:	66656463 00000000 6c756e28 0000296c     cdef....(null)..

00087e80 <blanks.6868>:
   87e80:	20202020 20202020 20202020 20202020                     

00087e90 <_init>:
   87e90:	b5f8      	push	{r3, r4, r5, r6, r7, lr}
   87e92:	bf00      	nop
   87e94:	bcf8      	pop	{r3, r4, r5, r6, r7}
   87e96:	bc08      	pop	{r3}
   87e98:	469e      	mov	lr, r3
   87e9a:	4770      	bx	lr

00087e9c <__init_array_start>:
   87e9c:	00085d6d 	.word	0x00085d6d

00087ea0 <__frame_dummy_init_array_entry>:
   87ea0:	00080119                                ....

00087ea4 <_fini>:
   87ea4:	b5f8      	push	{r3, r4, r5, r6, r7, lr}
   87ea6:	bf00      	nop
   87ea8:	bcf8      	pop	{r3, r4, r5, r6, r7}
   87eaa:	bc08      	pop	{r3}
   87eac:	469e      	mov	lr, r3
   87eae:	4770      	bx	lr

00087eb0 <__fini_array_start>:
   87eb0:	000800f5 	.word	0x000800f5

Disassembly of section .relocate:

20070000 <portable_delay_cycles>:
20070000:	f3bf 8f5f 	dmb	sy
20070004:	3801      	subs	r0, #1
20070006:	d1fb      	bne.n	20070000 <portable_delay_cycles>
20070008:	4770      	bx	lr
2007000a:	bf00      	nop

2007000c <SystemInit>:
2007000c:	f44f 6380 	mov.w	r3, #1024	; 0x400
20070010:	4a20      	ldr	r2, [pc, #128]	; (20070094 <SystemInit+0x88>)
20070012:	6013      	str	r3, [r2, #0]
20070014:	f502 7200 	add.w	r2, r2, #512	; 0x200
20070018:	6013      	str	r3, [r2, #0]
2007001a:	4b1f      	ldr	r3, [pc, #124]	; (20070098 <SystemInit+0x8c>)
2007001c:	6a1b      	ldr	r3, [r3, #32]
2007001e:	f013 7f80 	tst.w	r3, #16777216	; 0x1000000
20070022:	d107      	bne.n	20070034 <SystemInit+0x28>
20070024:	4a1d      	ldr	r2, [pc, #116]	; (2007009c <SystemInit+0x90>)
20070026:	4b1c      	ldr	r3, [pc, #112]	; (20070098 <SystemInit+0x8c>)
20070028:	621a      	str	r2, [r3, #32]
2007002a:	461a      	mov	r2, r3
2007002c:	6e93      	ldr	r3, [r2, #104]	; 0x68
2007002e:	f013 0f01 	tst.w	r3, #1
20070032:	d0fb      	beq.n	2007002c <SystemInit+0x20>
20070034:	4a1a      	ldr	r2, [pc, #104]	; (200700a0 <SystemInit+0x94>)
20070036:	4b18      	ldr	r3, [pc, #96]	; (20070098 <SystemInit+0x8c>)
20070038:	621a      	str	r2, [r3, #32]
2007003a:	461a      	mov	r2, r3
2007003c:	6e93      	ldr	r3, [r2, #104]	; 0x68
2007003e:	f413 3f80 	tst.w	r3, #65536	; 0x10000
20070042:	d0fb      	beq.n	2007003c <SystemInit+0x30>
20070044:	4a14      	ldr	r2, [pc, #80]	; (20070098 <SystemInit+0x8c>)
20070046:	6b13      	ldr	r3, [r2, #48]	; 0x30
20070048:	f023 0303 	bic.w	r3, r3, #3
2007004c:	f043 0301 	orr.w	r3, r3, #1
20070050:	6313      	str	r3, [r2, #48]	; 0x30
20070052:	6e93      	ldr	r3, [r2, #104]	; 0x68
20070054:	f013 0f08 	tst.w	r3, #8
20070058:	d0fb      	beq.n	20070052 <SystemInit+0x46>
2007005a:	4a12      	ldr	r2, [pc, #72]	; (200700a4 <SystemInit+0x98>)
2007005c:	4b0e      	ldr	r3, [pc, #56]	; (20070098 <SystemInit+0x8c>)
2007005e:	629a      	str	r2, [r3, #40]	; 0x28
20070060:	461a      	mov	r2, r3
20070062:	6e93      	ldr	r3, [r2, #104]	; 0x68
20070064:	f013 0f02 	tst.w	r3, #2
20070068:	d0fb      	beq.n	20070062 <SystemInit+0x56>
2007006a:	2211      	movs	r2, #17
2007006c:	4b0a      	ldr	r3, [pc, #40]	; (20070098 <SystemInit+0x8c>)
2007006e:	631a      	str	r2, [r3, #48]	; 0x30
20070070:	461a      	mov	r2, r3
20070072:	6e93      	ldr	r3, [r2, #104]	; 0x68
20070074:	f013 0f08 	tst.w	r3, #8
20070078:	d0fb      	beq.n	20070072 <SystemInit+0x66>
2007007a:	2212      	movs	r2, #18
2007007c:	4b06      	ldr	r3, [pc, #24]	; (20070098 <SystemInit+0x8c>)
2007007e:	631a      	str	r2, [r3, #48]	; 0x30
20070080:	461a      	mov	r2, r3
20070082:	6e93      	ldr	r3, [r2, #104]	; 0x68
20070084:	f013 0f08 	tst.w	r3, #8
20070088:	d0fb      	beq.n	20070082 <SystemInit+0x76>
2007008a:	4a07      	ldr	r2, [pc, #28]	; (200700a8 <SystemInit+0x9c>)
2007008c:	4b07      	ldr	r3, [pc, #28]	; (200700ac <SystemInit+0xa0>)
2007008e:	601a      	str	r2, [r3, #0]
20070090:	4770      	bx	lr
20070092:	bf00      	nop
20070094:	400e0a00 	.word	0x400e0a00
20070098:	400e0600 	.word	0x400e0600
2007009c:	00370809 	.word	0x00370809
200700a0:	01370809 	.word	0x01370809
200700a4:	200d3f01 	.word	0x200d3f01
200700a8:	0501bd00 	.word	0x0501bd00
200700ac:	200701a0 	.word	0x200701a0

200700b0 <system_init_flash>:
200700b0:	4b1b      	ldr	r3, [pc, #108]	; (20070120 <system_init_flash+0x70>)
200700b2:	4298      	cmp	r0, r3
200700b4:	d806      	bhi.n	200700c4 <system_init_flash+0x14>
200700b6:	2300      	movs	r3, #0
200700b8:	4a1a      	ldr	r2, [pc, #104]	; (20070124 <system_init_flash+0x74>)
200700ba:	6013      	str	r3, [r2, #0]
200700bc:	f502 7200 	add.w	r2, r2, #512	; 0x200
200700c0:	6013      	str	r3, [r2, #0]
200700c2:	4770      	bx	lr
200700c4:	4b18      	ldr	r3, [pc, #96]	; (20070128 <system_init_flash+0x78>)
200700c6:	4298      	cmp	r0, r3
200700c8:	d807      	bhi.n	200700da <system_init_flash+0x2a>
200700ca:	f44f 7380 	mov.w	r3, #256	; 0x100
200700ce:	4a15      	ldr	r2, [pc, #84]	; (20070124 <system_init_flash+0x74>)
200700d0:	6013      	str	r3, [r2, #0]
200700d2:	f502 7200 	add.w	r2, r2, #512	; 0x200
200700d6:	6013      	str	r3, [r2, #0]
200700d8:	4770      	bx	lr
200700da:	4b14      	ldr	r3, [pc, #80]	; (2007012c <system_init_flash+0x7c>)
200700dc:	4298      	cmp	r0, r3
200700de:	d807      	bhi.n	200700f0 <system_init_flash+0x40>
200700e0:	f44f 7300 	mov.w	r3, #512	; 0x200
200700e4:	4a0f      	ldr	r2, [pc, #60]	; (20070124 <system_init_flash+0x74>)
200700e6:	6013      	str	r3, [r2, #0]
200700e8:	f502 7200 	add.w	r2, r2, #512	; 0x200
200700ec:	6013      	str	r3, [r2, #0]
200700ee:	4770      	bx	lr
200700f0:	4b0f      	ldr	r3, [pc, #60]	; (20070130 <system_init_flash+0x80>)
200700f2:	4298      	cmp	r0, r3
200700f4:	d807      	bhi.n	20070106 <system_init_flash+0x56>
200700f6:	f44f 7340 	mov.w	r3, #768	; 0x300
200700fa:	4a0a      	ldr	r2, [pc, #40]	; (20070124 <system_init_flash+0x74>)
200700fc:	6013      	str	r3, [r2, #0]
200700fe:	f502 7200 	add.w	r2, r2, #512	; 0x200
20070102:	6013      	str	r3, [r2, #0]
20070104:	4770      	bx	lr
20070106:	4b0b      	ldr	r3, [pc, #44]	; (20070134 <system_init_flash+0x84>)
20070108:	4298      	cmp	r0, r3
2007010a:	bf94      	ite	ls
2007010c:	f44f 6380 	movls.w	r3, #1024	; 0x400
20070110:	f44f 63a0 	movhi.w	r3, #1280	; 0x500
20070114:	4a03      	ldr	r2, [pc, #12]	; (20070124 <system_init_flash+0x74>)
20070116:	6013      	str	r3, [r2, #0]
20070118:	f502 7200 	add.w	r2, r2, #512	; 0x200
2007011c:	6013      	str	r3, [r2, #0]
2007011e:	4770      	bx	lr
20070120:	0121eabf 	.word	0x0121eabf
20070124:	400e0a00 	.word	0x400e0a00
20070128:	02faf07f 	.word	0x02faf07f
2007012c:	03d08fff 	.word	0x03d08fff
20070130:	04c4b3ff 	.word	0x04c4b3ff
20070134:	055d4a7f 	.word	0x055d4a7f

20070138 <packet_pos>:
	...
20070140:	20070a40 0000000a 00000010              @.. ........

2007014c <uxCriticalNesting>:
2007014c:	aaaaaaaa                                ....

20070150 <xFreeBytesRemaining>:
20070150:	0000a000                                ....

20070154 <xNextTaskUnblockTime>:
20070154:	ffffffff                                ....

20070158 <k>:
20070158:	00000002                                ....

2007015c <pin_table>:
2007015c:	5c390908 5758591d 675d5556 00003b68     ..9\.YXWVU]gh;..
2007016c:	00000000 0e3a0000 6261600f 07696663     ......:..`abcfi.
2007017c:	4342416a 47464544 14134948 50515253     jABCDEFGHI..SRQP
2007018c:	4c4d4e4f 18102e35 04061617 32310203     ONML5.........12
2007019c:	00013433                                         34

2007019e <g_interrupt_enabled>:
2007019e:	09000001                                         ..

200701a0 <SystemCoreClock>:
200701a0:	003d0900                                ..=.

200701a4 <__fdlib_version>:
200701a4:	00000001                                ....

200701a8 <impure_data>:
200701a8:	00000000 20070494 200704fc 20070564     ....... ... d.. 
	...
200701dc:	00087e38 00000000 00000000 00000000     8~..............
	...
20070250:	00000001 00000000 abcd330e e66d1234     .........3..4.m.
20070260:	0005deec 0000000b 00000000 00000000     ................
	...

200705d0 <_impure_ptr>:
200705d0:	200701a8                                ... 

200705d4 <lc_ctype_charset>:
200705d4:	49435341 00000049 00000000 00000000     ASCII...........
	...

200705f4 <__mb_cur_max>:
200705f4:	00000001                                ....

200705f8 <__malloc_av_>:
	...
20070600:	200705f8 200705f8 20070600 20070600     ... ... ... ... 
20070610:	20070608 20070608 20070610 20070610     ... ... ... ... 
20070620:	20070618 20070618 20070620 20070620     ... ...  ..  .. 
20070630:	20070628 20070628 20070630 20070630     (.. (.. 0.. 0.. 
20070640:	20070638 20070638 20070640 20070640     8.. 8.. @.. @.. 
20070650:	20070648 20070648 20070650 20070650     H.. H.. P.. P.. 
20070660:	20070658 20070658 20070660 20070660     X.. X.. `.. `.. 
20070670:	20070668 20070668 20070670 20070670     h.. h.. p.. p.. 
20070680:	20070678 20070678 20070680 20070680     x.. x.. ... ... 
20070690:	20070688 20070688 20070690 20070690     ... ... ... ... 
200706a0:	20070698 20070698 200706a0 200706a0     ... ... ... ... 
200706b0:	200706a8 200706a8 200706b0 200706b0     ... ... ... ... 
200706c0:	200706b8 200706b8 200706c0 200706c0     ... ... ... ... 
200706d0:	200706c8 200706c8 200706d0 200706d0     ... ... ... ... 
200706e0:	200706d8 200706d8 200706e0 200706e0     ... ... ... ... 
200706f0:	200706e8 200706e8 200706f0 200706f0     ... ... ... ... 
20070700:	200706f8 200706f8 20070700 20070700     ... ... ... ... 
20070710:	20070708 20070708 20070710 20070710     ... ... ... ... 
20070720:	20070718 20070718 20070720 20070720     ... ...  ..  .. 
20070730:	20070728 20070728 20070730 20070730     (.. (.. 0.. 0.. 
20070740:	20070738 20070738 20070740 20070740     8.. 8.. @.. @.. 
20070750:	20070748 20070748 20070750 20070750     H.. H.. P.. P.. 
20070760:	20070758 20070758 20070760 20070760     X.. X.. `.. `.. 
20070770:	20070768 20070768 20070770 20070770     h.. h.. p.. p.. 
20070780:	20070778 20070778 20070780 20070780     x.. x.. ... ... 
20070790:	20070788 20070788 20070790 20070790     ... ... ... ... 
200707a0:	20070798 20070798 200707a0 200707a0     ... ... ... ... 
200707b0:	200707a8 200707a8 200707b0 200707b0     ... ... ... ... 
200707c0:	200707b8 200707b8 200707c0 200707c0     ... ... ... ... 
200707d0:	200707c8 200707c8 200707d0 200707d0     ... ... ... ... 
200707e0:	200707d8 200707d8 200707e0 200707e0     ... ... ... ... 
200707f0:	200707e8 200707e8 200707f0 200707f0     ... ... ... ... 
20070800:	200707f8 200707f8 20070800 20070800     ... ... ... ... 
20070810:	20070808 20070808 20070810 20070810     ... ... ... ... 
20070820:	20070818 20070818 20070820 20070820     ... ...  ..  .. 
20070830:	20070828 20070828 20070830 20070830     (.. (.. 0.. 0.. 
20070840:	20070838 20070838 20070840 20070840     8.. 8.. @.. @.. 
20070850:	20070848 20070848 20070850 20070850     H.. H.. P.. P.. 
20070860:	20070858 20070858 20070860 20070860     X.. X.. `.. `.. 
20070870:	20070868 20070868 20070870 20070870     h.. h.. p.. p.. 
20070880:	20070878 20070878 20070880 20070880     x.. x.. ... ... 
20070890:	20070888 20070888 20070890 20070890     ... ... ... ... 
200708a0:	20070898 20070898 200708a0 200708a0     ... ... ... ... 
200708b0:	200708a8 200708a8 200708b0 200708b0     ... ... ... ... 
200708c0:	200708b8 200708b8 200708c0 200708c0     ... ... ... ... 
200708d0:	200708c8 200708c8 200708d0 200708d0     ... ... ... ... 
200708e0:	200708d8 200708d8 200708e0 200708e0     ... ... ... ... 
200708f0:	200708e8 200708e8 200708f0 200708f0     ... ... ... ... 
20070900:	200708f8 200708f8 20070900 20070900     ... ... ... ... 
20070910:	20070908 20070908 20070910 20070910     ... ... ... ... 
20070920:	20070918 20070918 20070920 20070920     ... ...  ..  .. 
20070930:	20070928 20070928 20070930 20070930     (.. (.. 0.. 0.. 
20070940:	20070938 20070938 20070940 20070940     8.. 8.. @.. @.. 
20070950:	20070948 20070948 20070950 20070950     H.. H.. P.. P.. 
20070960:	20070958 20070958 20070960 20070960     X.. X.. `.. `.. 
20070970:	20070968 20070968 20070970 20070970     h.. h.. p.. p.. 
20070980:	20070978 20070978 20070980 20070980     x.. x.. ... ... 
20070990:	20070988 20070988 20070990 20070990     ... ... ... ... 
200709a0:	20070998 20070998 200709a0 200709a0     ... ... ... ... 
200709b0:	200709a8 200709a8 200709b0 200709b0     ... ... ... ... 
200709c0:	200709b8 200709b8 200709c0 200709c0     ... ... ... ... 
200709d0:	200709c8 200709c8 200709d0 200709d0     ... ... ... ... 
200709e0:	200709d8 200709d8 200709e0 200709e0     ... ... ... ... 
200709f0:	200709e8 200709e8 200709f0 200709f0     ... ... ... ... 

20070a00 <__malloc_trim_threshold>:
20070a00:	00020000                                ....

20070a04 <__malloc_sbrk_base>:
20070a04:	ffffffff                                ....

20070a08 <__wctomb>:
20070a08:	000873c5                                .s..
